

Microchip MPLAB XC8 Assembler V2.05 build -831301201 
                                                                                               Wed Mar 27 17:55:31 2019

Microchip MPLAB XC8 C Compiler v2.05 (Free license) build 20181220022703 Og1 
     1                           	processor	18F25K50
     2                           	fnconf	rparam,??,?,0
     3                           	opt	pw 120
     4                           	opt	flic
     5                           	psect	cinit,global,reloc=2,class=CODE,delta=1
     6                           	psect	bssCOMRAM,global,class=COMRAM,space=1,delta=1,noexec
     7                           	psect	cstackCOMRAM,global,class=COMRAM,space=1,delta=1,noexec
     8                           	psect	text0,global,reloc=2,class=CODE,delta=1
     9                           	psect	text1,global,reloc=2,class=CODE,delta=1
    10                           	psect	text2,global,reloc=2,class=CODE,delta=1
    11                           	psect	text3,global,reloc=2,class=CODE,delta=1
    12                           	psect	text4,global,reloc=2,class=CODE,delta=1
    13                           	psect	intcodelo,global,reloc=2,class=CODE,delta=1
    14                           	psect	text6,global,reloc=2,class=CODE,delta=1
    15                           	psect	intcode,global,reloc=2,class=CODE,delta=1
    16                           	psect	intcode_body,global,reloc=2,class=CODE,delta=1
    17                           	psect	text8,global,reloc=2,class=CODE,delta=1
    18                           	psect	text9,global,reloc=2,class=CODE,delta=1
    19                           	psect	intsave_regs,global,class=BIGRAM,space=1,delta=1,noexec
    20                           	psect	rparam,global,class=COMRAM,space=1,delta=1,noexec
    21                           	psect	temp,global,ovrld,common,class=COMRAM,space=1,delta=1
    22  0000                     
    23                           ; Version 2.05
    24                           ; Generated 20/12/2018 GMT
    25                           ; 
    26                           ; Copyright © 2018, Microchip Technology Inc. and its subsidiaries ("Microchip")
    27                           ; All rights reserved.
    28                           ; 
    29                           ; This software is developed by Microchip Technology Inc. and its subsidiaries ("Microch
      +                          ip").
    30                           ; 
    31                           ; Redistribution and use in source and binary forms, with or without modification, are
    32                           ; permitted provided that the following conditions are met:
    33                           ; 
    34                           ;     1. Redistributions of source code must retain the above copyright notice, this lis
      +                          t of
    35                           ;        conditions and the following disclaimer.
    36                           ; 
    37                           ;     2. Redistributions in binary form must reproduce the above copyright notice, this 
      +                          list
    38                           ;        of conditions and the following disclaimer in the documentation and/or other
    39                           ;        materials provided with the distribution.
    40                           ; 
    41                           ;     3. Microchip's name may not be used to endorse or promote products derived from th
      +                          is
    42                           ;        software without specific prior written permission.
    43                           ; 
    44                           ; THIS SOFTWARE IS PROVIDED BY MICROCHIP "AS IS" AND ANY EXPRESS OR IMPLIED WARRANTIES,
    45                           ; INCLUDING, BUT NOT LIMITED TO, THE IMPLIED WARRANTIES OF MERCHANTABILITY AND FITNESS F
      +                          OR
    46                           ; PURPOSE ARE DISCLAIMED.  IN NO EVENT SHALL MICROCHIP BE LIABLE FOR ANY DIRECT, INDIREC
      +                          T,
    47                           ; INCIDENTAL, SPECIAL, EXEMPLARY, OR CONSEQUENTIAL DAMAGES (INCLUDING BUT NOT LIMITED TO
    48                           ; PROCUREMENT OF SUBSTITUTE GOODS OR SERVICES; LOSS OF USE, DATA OR PROFITS; OR BUSINESS
    49                           ; INTERRUPTION) HOWSOEVER CAUSED AND ON ANY THEORY OF LIABILITY, WHETHER IN CONTRACT, ST
      +                          RICT
    50                           ; LIABILITY, OR TORT (INCLUDING NEGLIGENCE OR OTHERWISE) ARISING IN ANY WAY OUT OF THE U
      +                          SE OF
    51                           ; THIS SOFTWARE, EVEN IF ADVISED OF THE POSSIBILITY OF SUCH DAMAGE.
    52                           ; 
    53                           ; 
    54                           ; Code-generator required, PIC18F25K50 Definitions
    55                           ; 
    56                           ; SFR Addresses
    57  0000                     _ANSELBbits	set	3932
    58  0000                     _ANSELCbits	set	3933
    59  0000                     _ANSELAbits	set	3931
    60  0000                     _SSP1CON1	set	4038
    61  0000                     _SSP1STAT	set	4039
    62  0000                     _SSP1CON3	set	4043
    63  0000                     _SSP1ADD	set	4040
    64  0000                     _PIR2bits	set	4001
    65  0000                     _PIE2bits	set	4000
    66  0000                     _IPR2bits	set	4002
    67  0000                     _TRISBbits	set	3987
    68  0000                     _SPBRG1	set	4015
    69  0000                     _BAUDCON1	set	4024
    70  0000                     _RCSTA1	set	4011
    71  0000                     _TXSTA1	set	4012
    72  0000                     _PMD0bits	set	3966
    73  0000                     _TRISCbits	set	3988
    74  0000                     _ADRESL	set	4035
    75  0000                     _ADRESH	set	4036
    76  0000                     _ADCON0bits	set	4034
    77  0000                     _ADCON0	set	4034
    78  0000                     _ADCON2	set	4032
    79  0000                     _ADCON1	set	4033
    80  0000                     _IPR1bits	set	3999
    81  0000                     _PMD1bits	set	3967
    82  0000                     _LATAbits	set	3977
    83  0000                     _RCONbits	set	4048
    84  0000                     _TRISAbits	set	3986
    85  0000                     _OSCCON2bits	set	4050
    86  0000                     _OSCCONbits	set	4051
    87  0000                     _OSCTUNE	set	3995
    88  0000                     _OSCCON2	set	4050
    89  0000                     _OSCCON	set	4051
    90  0000                     _INTCONbits	set	4082
    91  0000                     _SSPCON2bits	set	4037
    92  0000                     _SSPBUF	set	4041
    93  0000                     _SSP1CON2	set	4037
    94  0000                     _SSP1STATbits	set	4039
    95  0000                     _SSPCON1bits	set	4038
    96  0000                     _SSP1CON2bits	set	4037
    97  0000                     _SSPSTATbits	set	4039
    98  0000                     _RCREG1	set	4014
    99  0000                     _RCSTA1bits	set	4011
   100  0000                     _TXREG1	set	4013
   101  0000                     _TXSTA1bits	set	4012
   102  0000                     _PIR1bits	set	3998
   103  0000                     _PIE1bits	set	3997
   104                           
   105                           ; #config settings
   106  0000                     
   107                           	psect	cinit
   108  0002E0                     __pcinit:
   109                           	opt callstack 0
   110  0002E0                     start_initialization:
   111                           	opt callstack 0
   112  0002E0                     __initialization:
   113                           	opt callstack 0
   114                           
   115                           ; Clear objects allocated to COMRAM (51 bytes)
   116  0002E0  EE00  F001         	lfsr	0,__pbssCOMRAM
   117  0002E4  0E33               	movlw	51
   118  0002E6                     clear_0:
   119  0002E6  6AEE               	clrf	postinc0,c
   120  0002E8  06E8               	decf	wreg,f,c
   121  0002EA  E1FD               	bnz	clear_0
   122  0002EC                     end_of_initialization:
   123                           	opt callstack 0
   124  0002EC                     __end_of__initialization:
   125                           	opt callstack 0
   126  0002EC  904C               	bcf	int$flags,0,c	;clear compiler interrupt flag (level 1)
   127  0002EE  924C               	bcf	int$flags,1,c	;clear compiler interrupt flag (level 2)
   128  0002F0  0E00               	movlw	low (__Lmediumconst shr (0+16))
   129  0002F2  6EF8               	movwf	tblptru,c
   130  0002F4  0100               	movlb	0
   131  0002F6  EF6B  F000         	goto	_main	;jump to C main() function
   132                           
   133                           	psect	bssCOMRAM
   134  000001                     __pbssCOMRAM:
   135                           	opt callstack 0
   136  000001                     _rx_buffer:
   137                           	opt callstack 0
   138  000001                     	ds	32
   139  000021                     _I2C_tx_buffer:
   140                           	opt callstack 0
   141  000021                     	ds	5
   142  000026                     _I2C_rx_buffer:
   143                           	opt callstack 0
   144  000026                     	ds	5
   145  00002B                     _I2C_tx_counter:
   146                           	opt callstack 0
   147  00002B                     	ds	2
   148  00002D                     _I2C_rx_counter:
   149                           	opt callstack 0
   150  00002D                     	ds	2
   151  00002F                     _rx_counter:
   152                           	opt callstack 0
   153  00002F                     	ds	2
   154  000031                     _ADC_ready:
   155                           	opt callstack 0
   156  000031                     	ds	1
   157  000032                     _I2C_STATUS:
   158                           	opt callstack 0
   159  000032                     	ds	1
   160  000033                     _tx_byte:
   161                           	opt callstack 0
   162  000033                     	ds	1
   163                           
   164                           	psect	cstackCOMRAM
   165  000034                     __pcstackCOMRAM:
   166                           	opt callstack 0
   167  000034                     ??i2_Initialize_Baud_Rate:
   168  000034                     
   169                           ; 2 bytes @ 0x0
   170  000034                     	ds	2
   171  000036                     i2Initialize_Baud_Rate@baud_rate:
   172                           	opt callstack 0
   173                           
   174                           ; 1 bytes @ 0x2
   175  000036                     	ds	1
   176  000037                     i2USART_Init@baud_rate:
   177                           	opt callstack 0
   178                           
   179                           ; 2 bytes @ 0x3
   180  000037                     	ds	2
   181  000039                     ??_high_isr:
   182  000039                     
   183                           ; 1 bytes @ 0x5
   184  000039                     	ds	2
   185  00003B                     I2C_buffer_move_queue@i:
   186                           	opt callstack 0
   187                           
   188                           ; 2 bytes @ 0x7
   189  00003B                     	ds	2
   190  00003D                     ??_low_isr:
   191                           
   192                           ; 1 bytes @ 0x9
   193  00003D                     	ds	8
   194  000045                     ??_Initialize_Baud_Rate:
   195                           
   196                           ; 1 bytes @ 0x11
   197  000045                     	ds	2
   198  000047                     Initialize_Baud_Rate@baud_rate:
   199                           	opt callstack 0
   200                           
   201                           ; 1 bytes @ 0x13
   202  000047                     	ds	1
   203  000048                     USART_Init@baud_rate:
   204                           	opt callstack 0
   205                           
   206                           ; 2 bytes @ 0x14
   207  000048                     	ds	2
   208  00004A                     ??_main:
   209                           
   210                           ; 1 bytes @ 0x16
   211  00004A                     	ds	2
   212                           
   213 ;;
   214 ;;Main: autosize = 0, tempsize = 2, incstack = 0, save=0
   215 ;;
   216 ;; *************** function _main *****************
   217 ;; Defined at:
   218 ;;		line 95 in file "main.c"
   219 ;; Parameters:    Size  Location     Type
   220 ;;		None
   221 ;; Auto vars:     Size  Location     Type
   222 ;;		None
   223 ;; Return value:  Size  Location     Type
   224 ;;                  1    wreg      void 
   225 ;; Registers used:
   226 ;;		wreg, status,2, status,0, cstack
   227 ;; Tracked objects:
   228 ;;		On entry : 0/0
   229 ;;		On exit  : 0/0
   230 ;;		Unchanged: 0/0
   231 ;; Data sizes:     COMRAM   BANK0   BANK1   BANK2   BANK3   BANK4   BANK5   BANK6   BANK7
   232 ;;      Params:         0       0       0       0       0       0       0       0       0
   233 ;;      Locals:         0       0       0       0       0       0       0       0       0
   234 ;;      Temps:          2       0       0       0       0       0       0       0       0
   235 ;;      Totals:         2       0       0       0       0       0       0       0       0
   236 ;;Total ram usage:        2 bytes
   237 ;; Hardware stack levels required when called:    7
   238 ;; This function calls:
   239 ;;		_I2C_Init
   240 ;;		_USART_Init
   241 ;;		_timer0_init
   242 ;; This function is called by:
   243 ;;		Startup code after reset
   244 ;; This function uses a non-reentrant model
   245 ;;
   246                           
   247                           	psect	text0
   248  0000D6                     __ptext0:
   249                           	opt callstack 0
   250  0000D6                     _main:
   251                           	opt callstack 24
   252                           
   253                           ;main.c: 96:     OSCCON = 0x70;
   254                           
   255                           ;incstack = 0
   256  0000D6  0E70               	movlw	112
   257  0000D8  6ED3               	movwf	4051,c	;volatile
   258                           
   259                           ;main.c: 97:     OSCCON2 = 0x94;
   260  0000DA  0E94               	movlw	148
   261  0000DC  6ED2               	movwf	4050,c	;volatile
   262                           
   263                           ;main.c: 98:     OSCTUNE = 0x80;
   264  0000DE  0E80               	movlw	128
   265  0000E0  6E9B               	movwf	3995,c	;volatile
   266  0000E2                     l128:
   267  0000E2  A4D3               	btfss	4051,2,c	;volatile
   268  0000E4  B2D2               	btfsc	4050,1,c	;volatile
   269  0000E6  D002               	goto	u520
   270  0000E8  AED2               	btfss	4050,7,c	;volatile
   271  0000EA  D7FB               	goto	l128
   272  0000EC                     u520:
   273                           
   274                           ;main.c: 101:     USART_Init(3);
   275  0000EC  0E00               	movlw	0
   276  0000EE  6E49               	movwf	USART_Init@baud_rate+1,c
   277  0000F0  0E03               	movlw	3
   278  0000F2  6E48               	movwf	USART_Init@baud_rate,c
   279  0000F4  EC44  F001         	call	_USART_Init	;wreg free
   280                           
   281                           ;main.c: 102:     I2C_Init();
   282  0000F8  EC2D  F001         	call	_I2C_Init	;wreg free
   283                           
   284                           ;main.c: 103:     timer0_init();
   285  0000FC  EC7D  F001         	call	_timer0_init	;wreg free
   286                           
   287                           ;main.c: 106:     TRISAbits.RA1 = 0;
   288  000100  9292               	bcf	3986,1,c	;volatile
   289                           
   290                           ;main.c: 109:     RCONbits.IPEN = 1;
   291  000102  8ED0               	bsf	4048,7,c	;volatile
   292                           
   293                           ;main.c: 110:     INTCONbits.GIE = 1;
   294  000104  8EF2               	bsf	4082,7,c	;volatile
   295                           
   296                           ;main.c: 111:     INTCONbits.PEIE = 1;
   297  000106  8CF2               	bsf	4082,6,c	;volatile
   298  000108                     l1395:
   299                           
   300                           ;main.c: 115:         LATAbits.LA0 = 1;
   301  000108  8089               	bsf	3977,0,c	;volatile
   302                           
   303                           ;main.c: 116:         LATAbits.LA1 = 1;
   304  00010A  8289               	bsf	3977,1,c	;volatile
   305                           
   306                           ;main.c: 117:         _delay((unsigned long)((700)*(48000000/4000.0)));
   307  00010C  0E2B               	movlw	43
   308  00010E  6E4B               	movwf	(??_main+1)& (0+255),c
   309  000110  0E9D               	movlw	157
   310  000112  6E4A               	movwf	??_main& (0+255),c
   311  000114  0EF9               	movlw	249
   312  000116                     u537:
   313  000116  2EE8               	decfsz	wreg,f,c
   314  000118  D7FE               	bra	u537
   315  00011A  2E4A               	decfsz	??_main& (0+255),f,c
   316  00011C  D7FC               	bra	u537
   317  00011E  2E4B               	decfsz	(??_main+1)& (0+255),f,c
   318  000120  D7FA               	bra	u537
   319  000122  F000               	nop	
   320                           
   321                           ;main.c: 118:         LATAbits.LA0 = 0;
   322  000124  9089               	bcf	3977,0,c	;volatile
   323                           
   324                           ;main.c: 119:         LATAbits.LA1 = 0;
   325  000126  9289               	bcf	3977,1,c	;volatile
   326                           
   327                           ;main.c: 120:         _delay((unsigned long)((700)*(48000000/4000.0)));
   328  000128  0E2B               	movlw	43
   329  00012A  6E4B               	movwf	(??_main+1)& (0+255),c
   330  00012C  0E9D               	movlw	157
   331  00012E  6E4A               	movwf	??_main& (0+255),c
   332  000130  0EF9               	movlw	249
   333  000132                     u547:
   334  000132  2EE8               	decfsz	wreg,f,c
   335  000134  D7FE               	bra	u547
   336  000136  2E4A               	decfsz	??_main& (0+255),f,c
   337  000138  D7FC               	bra	u547
   338  00013A  2E4B               	decfsz	(??_main+1)& (0+255),f,c
   339  00013C  D7FA               	bra	u547
   340  00013E  F000               	nop	
   341  000140  D7E3               	goto	l1395
   342  000142                     __end_of_main:
   343                           	opt callstack 0
   344                           
   345 ;; *************** function _timer0_init *****************
   346 ;; Defined at:
   347 ;;		line 127 in file "main.c"
   348 ;; Parameters:    Size  Location     Type
   349 ;;		None
   350 ;; Auto vars:     Size  Location     Type
   351 ;;		None
   352 ;; Return value:  Size  Location     Type
   353 ;;                  1    wreg      void 
   354 ;; Registers used:
   355 ;;		None
   356 ;; Tracked objects:
   357 ;;		On entry : 0/0
   358 ;;		On exit  : 0/0
   359 ;;		Unchanged: 0/0
   360 ;; Data sizes:     COMRAM   BANK0   BANK1   BANK2   BANK3   BANK4   BANK5   BANK6   BANK7
   361 ;;      Params:         0       0       0       0       0       0       0       0       0
   362 ;;      Locals:         0       0       0       0       0       0       0       0       0
   363 ;;      Temps:          0       0       0       0       0       0       0       0       0
   364 ;;      Totals:         0       0       0       0       0       0       0       0       0
   365 ;;Total ram usage:        0 bytes
   366 ;; Hardware stack levels used:    1
   367 ;; Hardware stack levels required when called:    5
   368 ;; This function calls:
   369 ;;		Nothing
   370 ;; This function is called by:
   371 ;;		_main
   372 ;; This function uses a non-reentrant model
   373 ;;
   374                           
   375                           	psect	text1
   376  0002FA                     __ptext1:
   377                           	opt callstack 0
   378  0002FA                     _timer0_init:
   379                           	opt callstack 25
   380                           
   381                           ;main.c: 129:     TRISAbits.RA0 = 0;
   382                           
   383                           ;incstack = 0
   384  0002FA  9092               	bcf	3986,0,c	;volatile
   385  0002FC  0012               	return		;funcret
   386  0002FE                     __end_of_timer0_init:
   387                           	opt callstack 0
   388                           
   389 ;; *************** function _USART_Init *****************
   390 ;; Defined at:
   391 ;;		line 5 in file "USART.c"
   392 ;; Parameters:    Size  Location     Type
   393 ;;  baud_rate       2   20[COMRAM] int 
   394 ;; Auto vars:     Size  Location     Type
   395 ;;		None
   396 ;; Return value:  Size  Location     Type
   397 ;;                  1    wreg      void 
   398 ;; Registers used:
   399 ;;		wreg, status,2, status,0, cstack
   400 ;; Tracked objects:
   401 ;;		On entry : 0/0
   402 ;;		On exit  : 0/0
   403 ;;		Unchanged: 0/0
   404 ;; Data sizes:     COMRAM   BANK0   BANK1   BANK2   BANK3   BANK4   BANK5   BANK6   BANK7
   405 ;;      Params:         2       0       0       0       0       0       0       0       0
   406 ;;      Locals:         0       0       0       0       0       0       0       0       0
   407 ;;      Temps:          0       0       0       0       0       0       0       0       0
   408 ;;      Totals:         2       0       0       0       0       0       0       0       0
   409 ;;Total ram usage:        2 bytes
   410 ;; Hardware stack levels used:    1
   411 ;; Hardware stack levels required when called:    6
   412 ;; This function calls:
   413 ;;		_Initialize_Baud_Rate
   414 ;; This function is called by:
   415 ;;		_main
   416 ;; This function uses a non-reentrant model
   417 ;;
   418                           
   419                           	psect	text2
   420  000288                     __ptext2:
   421                           	opt callstack 0
   422  000288                     _USART_Init:
   423                           	opt callstack 24
   424                           
   425                           ;USART.c: 7:     TRISCbits.RC6 = 1;
   426                           
   427                           ;incstack = 0
   428  000288  8C94               	bsf	3988,6,c	;volatile
   429                           
   430                           ;USART.c: 8:     TRISCbits.RC7 = 1;
   431  00028A  8E94               	bsf	3988,7,c	;volatile
   432                           
   433                           ;USART.c: 9:     ANSELCbits.ANSC6 = 0;
   434  00028C  010F               	movlb	15	; () banked
   435  00028E  9D5D               	bcf	93,6,b	;volatile
   436                           
   437                           ;USART.c: 10:     ANSELCbits.ANSC7 = 0;
   438  000290  9F5D               	bcf	93,7,b	;volatile
   439                           
   440                           ; BSR set to: 15
   441                           ;USART.c: 12:     rx_counter = 0;
   442  000292  0E00               	movlw	0
   443  000294  6E30               	movwf	_rx_counter+1,c
   444  000296  0E00               	movlw	0
   445  000298  6E2F               	movwf	_rx_counter,c
   446                           
   447                           ; BSR set to: 15
   448                           ;USART.c: 14:     PMD0bits.UARTMD = 0;
   449  00029A  9C7E               	bcf	3966,6,c	;volatile
   450                           
   451                           ;USART.c: 15:     TXSTA1 = 0x24;
   452  00029C  0E24               	movlw	36
   453  00029E  6EAC               	movwf	4012,c	;volatile
   454                           
   455                           ; BSR set to: 15
   456                           ;USART.c: 16:     Initialize_Baud_Rate(baud_rate);
   457  0002A0  5048               	movf	USART_Init@baud_rate,w,c
   458  0002A2  ECD1  F000         	call	_Initialize_Baud_Rate
   459                           
   460                           ;USART.c: 17:     RCSTA1 = 0x90;
   461  0002A6  0E90               	movlw	144
   462  0002A8  6EAB               	movwf	4011,c	;volatile
   463                           
   464                           ;USART.c: 20:     IPR1bits.TXIP = 1;
   465  0002AA  889F               	bsf	3999,4,c	;volatile
   466                           
   467                           ;USART.c: 21:     IPR1bits.RCIP = 1;
   468  0002AC  8A9F               	bsf	3999,5,c	;volatile
   469                           
   470                           ;USART.c: 22:     PIE1bits.RCIE = 1;
   471  0002AE  8A9D               	bsf	3997,5,c	;volatile
   472                           
   473                           ;USART.c: 23:     PIE1bits.TXIE = 0;
   474  0002B0  989D               	bcf	3997,4,c	;volatile
   475  0002B2  0012               	return		;funcret
   476  0002B4                     __end_of_USART_Init:
   477                           	opt callstack 0
   478                           
   479 ;; *************** function _Initialize_Baud_Rate *****************
   480 ;; Defined at:
   481 ;;		line 27 in file "USART.c"
   482 ;; Parameters:    Size  Location     Type
   483 ;;  baud_rate       1    wreg     unsigned char 
   484 ;; Auto vars:     Size  Location     Type
   485 ;;  baud_rate       1   19[COMRAM] unsigned char 
   486 ;; Return value:  Size  Location     Type
   487 ;;                  2  163[None  ] int 
   488 ;; Registers used:
   489 ;;		wreg, status,2, status,0
   490 ;; Tracked objects:
   491 ;;		On entry : 0/0
   492 ;;		On exit  : 0/0
   493 ;;		Unchanged: 0/0
   494 ;; Data sizes:     COMRAM   BANK0   BANK1   BANK2   BANK3   BANK4   BANK5   BANK6   BANK7
   495 ;;      Params:         0       0       0       0       0       0       0       0       0
   496 ;;      Locals:         1       0       0       0       0       0       0       0       0
   497 ;;      Temps:          2       0       0       0       0       0       0       0       0
   498 ;;      Totals:         3       0       0       0       0       0       0       0       0
   499 ;;Total ram usage:        3 bytes
   500 ;; Hardware stack levels used:    1
   501 ;; Hardware stack levels required when called:    5
   502 ;; This function calls:
   503 ;;		Nothing
   504 ;; This function is called by:
   505 ;;		_USART_Init
   506 ;; This function uses a non-reentrant model
   507 ;;
   508                           
   509                           	psect	text3
   510  0001A2                     __ptext3:
   511                           	opt callstack 0
   512  0001A2                     _Initialize_Baud_Rate:
   513                           	opt callstack 24
   514                           
   515                           ;incstack = 0
   516                           ;Initialize_Baud_Rate@baud_rate stored from wreg
   517  0001A2  6E47               	movwf	Initialize_Baud_Rate@baud_rate,c
   518                           
   519                           ;USART.c: 29:     BAUDCON1 = 0x00;
   520  0001A4  0E00               	movlw	0
   521  0001A6  6EB8               	movwf	4024,c	;volatile
   522                           
   523                           ;USART.c: 31:     switch(baud_rate){
   524  0001A8  D009               	goto	l967
   525  0001AA                     l959:
   526                           
   527                           ;USART.c: 33:             SPBRG1 = 155;
   528  0001AA  0E9B               	movlw	155
   529  0001AC  6EAF               	movwf	4015,c	;volatile
   530                           
   531                           ;USART.c: 34:             break;
   532  0001AE  0012               	return	
   533  0001B0                     l961:
   534                           
   535                           ;USART.c: 36:             SPBRG1 = 51;
   536  0001B0  0E33               	movlw	51
   537  0001B2  6EAF               	movwf	4015,c	;volatile
   538                           
   539                           ;USART.c: 37:             break;
   540  0001B4  0012               	return	
   541  0001B6                     l963:
   542                           
   543                           ;USART.c: 39:             SPBRG1 = 25;
   544  0001B6  0E19               	movlw	25
   545  0001B8  6EAF               	movwf	4015,c	;volatile
   546                           
   547                           ;USART.c: 40:             break;
   548  0001BA  0012               	return	
   549  0001BC                     l967:
   550  0001BC  5047               	movf	Initialize_Baud_Rate@baud_rate,w,c
   551  0001BE  6E45               	movwf	??_Initialize_Baud_Rate& (0+255),c
   552  0001C0  6A46               	clrf	(??_Initialize_Baud_Rate+1)& (0+255),c
   553                           
   554                           ; Switch on 2 bytes has been partitioned into a top level switch of size 1, and 1 sub-sw
      +                          itches
   555                           ; Switch size 1, requested type "simple"
   556                           ; Number of cases is 1, Range of values is 0 to 0
   557                           ; switch strategies available:
   558                           ; Name         Instructions Cycles
   559                           ; simple_byte            4     3 (average)
   560                           ;	Chosen strategy is simple_byte
   561  0001C2  5046               	movf	??_Initialize_Baud_Rate+1,w,c
   562  0001C4  0A00               	xorlw	0	; case 0
   563  0001C6  A4D8               	btfss	status,2,c
   564  0001C8  0012               	return	
   565                           
   566                           ; Switch size 1, requested type "simple"
   567                           ; Number of cases is 3, Range of values is 1 to 3
   568                           ; switch strategies available:
   569                           ; Name         Instructions Cycles
   570                           ; simple_byte           10     6 (average)
   571                           ;	Chosen strategy is simple_byte
   572  0001CA  5045               	movf	??_Initialize_Baud_Rate,w,c
   573  0001CC  0A01               	xorlw	1	; case 1
   574  0001CE  B4D8               	btfsc	status,2,c
   575  0001D0  D7EC               	goto	l959
   576  0001D2  0A03               	xorlw	3	; case 2
   577  0001D4  B4D8               	btfsc	status,2,c
   578  0001D6  D7EC               	goto	l961
   579  0001D8  0A01               	xorlw	1	; case 3
   580  0001DA  A4D8               	btfss	status,2,c
   581  0001DC  0012               	return	
   582  0001DE  D7EB               	goto	l963
   583  0001E0                     __end_of_Initialize_Baud_Rate:
   584                           	opt callstack 0
   585                           
   586 ;; *************** function _I2C_Init *****************
   587 ;; Defined at:
   588 ;;		line 4 in file "I2C.c"
   589 ;; Parameters:    Size  Location     Type
   590 ;;		None
   591 ;; Auto vars:     Size  Location     Type
   592 ;;		None
   593 ;; Return value:  Size  Location     Type
   594 ;;                  1    wreg      void 
   595 ;; Registers used:
   596 ;;		wreg, status,2
   597 ;; Tracked objects:
   598 ;;		On entry : 0/0
   599 ;;		On exit  : 0/0
   600 ;;		Unchanged: 0/0
   601 ;; Data sizes:     COMRAM   BANK0   BANK1   BANK2   BANK3   BANK4   BANK5   BANK6   BANK7
   602 ;;      Params:         0       0       0       0       0       0       0       0       0
   603 ;;      Locals:         0       0       0       0       0       0       0       0       0
   604 ;;      Temps:          0       0       0       0       0       0       0       0       0
   605 ;;      Totals:         0       0       0       0       0       0       0       0       0
   606 ;;Total ram usage:        0 bytes
   607 ;; Hardware stack levels used:    1
   608 ;; Hardware stack levels required when called:    5
   609 ;; This function calls:
   610 ;;		Nothing
   611 ;; This function is called by:
   612 ;;		_main
   613 ;; This function uses a non-reentrant model
   614 ;;
   615                           
   616                           	psect	text4
   617  00025A                     __ptext4:
   618                           	opt callstack 0
   619  00025A                     _I2C_Init:
   620                           	opt callstack 25
   621                           
   622                           ;I2C.c: 6:     ANSELBbits.ANSB0 = 0;
   623                           
   624                           ;incstack = 0
   625  00025A  010F               	movlb	15	; () banked
   626  00025C  915C               	bcf	92,0,b	;volatile
   627                           
   628                           ;I2C.c: 7:     ANSELBbits.ANSB1 = 0;
   629  00025E  935C               	bcf	92,1,b	;volatile
   630                           
   631                           ;I2C.c: 8:     TRISBbits.RB0 = 1;
   632  000260  8093               	bsf	3987,0,c	;volatile
   633                           
   634                           ;I2C.c: 9:     TRISBbits.RB1 = 1;
   635  000262  8293               	bsf	3987,1,c	;volatile
   636                           
   637                           ;I2C.c: 11:     PMD1bits.MSSPMD = 0;
   638  000264  9C7F               	bcf	3967,6,c	;volatile
   639                           
   640                           ;I2C.c: 14:     IPR1bits.SSPIP = 0;
   641  000266  969F               	bcf	3999,3,c	;volatile
   642                           
   643                           ;I2C.c: 15:     IPR2bits.BCLIP = 0;
   644  000268  96A2               	bcf	4002,3,c	;volatile
   645                           
   646                           ;I2C.c: 16:     PIE1bits.SSPIE = 1;
   647  00026A  869D               	bsf	3997,3,c	;volatile
   648                           
   649                           ;I2C.c: 17:     PIE2bits.BCLIE = 1;
   650  00026C  86A0               	bsf	4000,3,c	;volatile
   651                           
   652                           ;I2C.c: 18:     PIR1bits.SSPIF = 0;
   653  00026E  969E               	bcf	3998,3,c	;volatile
   654                           
   655                           ;I2C.c: 19:     PIR2bits.BCLIF = 0;
   656  000270  96A1               	bcf	4001,3,c	;volatile
   657                           
   658                           ; BSR set to: 15
   659                           ;I2C.c: 22:     SSP1ADD = ((48000000/(4*100000))-1);
   660  000272  0E77               	movlw	119
   661  000274  6EC8               	movwf	4040,c	;volatile
   662                           
   663                           ;I2C.c: 23:     SSP1CON2 = 0x00;
   664  000276  0E00               	movlw	0
   665  000278  6EC5               	movwf	4037,c	;volatile
   666                           
   667                           ;I2C.c: 24:     SSP1CON3 = 0x64;
   668  00027A  0E64               	movlw	100
   669  00027C  6ECB               	movwf	4043,c	;volatile
   670                           
   671                           ;I2C.c: 25:     SSP1STAT = 0x80;
   672  00027E  0E80               	movlw	128
   673  000280  6EC7               	movwf	4039,c	;volatile
   674                           
   675                           ;I2C.c: 26:     SSP1CON1 = 0x28;
   676  000282  0E28               	movlw	40
   677  000284  6EC6               	movwf	4038,c	;volatile
   678                           
   679                           ; BSR set to: 15
   680  000286  0012               	return		;funcret
   681  000288                     __end_of_I2C_Init:
   682                           	opt callstack 0
   683                           
   684 ;; *************** function _low_isr *****************
   685 ;; Defined at:
   686 ;;		line 49 in file "main.c"
   687 ;; Parameters:    Size  Location     Type
   688 ;;		None
   689 ;; Auto vars:     Size  Location     Type
   690 ;;		None
   691 ;; Return value:  Size  Location     Type
   692 ;;                  1    wreg      void 
   693 ;; Registers used:
   694 ;;		wreg, fsr1l, fsr1h, fsr2l, fsr2h, status,2, status,0, cstack
   695 ;; Tracked objects:
   696 ;;		On entry : 0/0
   697 ;;		On exit  : 0/0
   698 ;;		Unchanged: 0/0
   699 ;; Data sizes:     COMRAM   BANK0   BANK1   BANK2   BANK3   BANK4   BANK5   BANK6   BANK7
   700 ;;      Params:         0       0       0       0       0       0       0       0       0
   701 ;;      Locals:         0       0       0       0       0       0       0       0       0
   702 ;;      Temps:          8       0       0       0       0       0       0       0       0
   703 ;;      Totals:         8       0       0       0       0       0       0       0       0
   704 ;;Total ram usage:        8 bytes
   705 ;; Hardware stack levels used:    1
   706 ;; Hardware stack levels required when called:    4
   707 ;; This function calls:
   708 ;;		_I2C_buffer_move_queue
   709 ;; This function is called by:
   710 ;;		Interrupt level 1
   711 ;; This function uses a non-reentrant model
   712 ;;
   713                           
   714                           	psect	intcodelo
   715  000018                     __pintcodelo:
   716                           	opt callstack 0
   717  000018                     _low_isr:
   718                           	opt callstack 24
   719                           
   720                           ; BSR set to: 15
   721                           ;incstack = 0
   722  000018  804C               	bsf	btemp,0,c	;set compiler interrupt flag (level 1)
   723  00001A  CFD8 F03E          	movff	status,??_low_isr+1
   724  00001E  CFE8 F03F          	movff	wreg,??_low_isr+2
   725  000022  CFE0 F040          	movff	bsr,??_low_isr+3
   726  000026  CFE1 F041          	movff	fsr1l,??_low_isr+4
   727  00002A  CFE2 F042          	movff	fsr1h,??_low_isr+5
   728  00002E  CFD9 F043          	movff	fsr2l,??_low_isr+6
   729  000032  CFDA F044          	movff	fsr2h,??_low_isr+7
   730                           
   731                           ;main.c: 51:     if(PIR1bits.ADIF){
   732  000036  AC9E               	btfss	3998,6,c	;volatile
   733  000038  D003               	goto	i1l1109
   734                           
   735                           ;main.c: 52:         ADC_ready = TRUE;
   736  00003A  0E01               	movlw	1
   737  00003C  6E31               	movwf	_ADC_ready,c
   738                           
   739                           ;main.c: 53:         PIR1bits.ADIF = 0;
   740  00003E  9C9E               	bcf	3998,6,c	;volatile
   741  000040                     i1l1109:
   742                           
   743                           ;main.c: 56:     if(PIR1bits.SSPIF){
   744  000040  A69E               	btfss	3998,3,c	;volatile
   745  000042  D035               	goto	i1l1153
   746                           
   747                           ;main.c: 57:         if(SSPSTATbits.S && !SSP1CON2bits.SEN){
   748  000044  B6C7               	btfsc	4039,3,c	;volatile
   749  000046  B0C5               	btfsc	4037,0,c	;volatile
   750  000048  D02C               	goto	i1l108
   751                           
   752                           ;main.c: 59:             if(I2C_STATUS == 0){
   753  00004A  5032               	movf	_I2C_STATUS,w,c
   754  00004C  A4D8               	btfss	status,2,c
   755  00004E  D016               	goto	i1l1133
   756                           
   757                           ;main.c: 60:                 if(!SSPCON1bits.WCOL && !SSPSTATbits.BF && (!SSP1STATbits.R
      +                          _nW || !(SSP1CON2 & 0x1F))){
   758  000050  AEC6               	btfss	4038,7,c	;volatile
   759  000052  B0C7               	btfsc	4039,0,c	;volatile
   760  000054  D011               	goto	i1l1131
   761  000056  A4C7               	btfss	4039,2,c	;volatile
   762  000058  D006               	goto	i1u20_20
   763  00005A  CFC5 F03D          	movff	4037,??_low_isr	;volatile
   764  00005E  0E1F               	movlw	31
   765  000060  163D               	andwf	??_low_isr,f,c
   766  000062  A4D8               	btfss	status,2,c
   767  000064  D009               	goto	i1l1131
   768  000066                     i1u20_20:
   769                           
   770                           ;main.c: 61:                     SSPBUF = I2C_tx_buffer[0];
   771  000066  C021  FFC9         	movff	_I2C_tx_buffer,4041	;volatile
   772                           
   773                           ;main.c: 62:                     I2C_buffer_move_queue();
   774  00006A  EC0F  F001         	call	_I2C_buffer_move_queue	;wreg free
   775                           
   776                           ;main.c: 63:                     I2C_tx_counter --;
   777  00006E  062B               	decf	_I2C_tx_counter,f,c
   778  000070  A0D8               	btfss	status,0,c
   779  000072  062C               	decf	_I2C_tx_counter+1,f,c
   780                           
   781                           ;main.c: 64:                     I2C_STATUS = 1;
   782  000074  0E01               	movlw	1
   783  000076  D019               	goto	L1
   784  000078                     i1l1131:
   785                           
   786                           ;main.c: 66:                     I2C_STATUS = 3;
   787  000078  0E03               	movlw	3
   788  00007A  D017               	goto	L1
   789  00007C                     i1l1133:
   790  00007C  0432               	decf	_I2C_STATUS,w,c
   791  00007E  A4D8               	btfss	status,2,c
   792  000080  D015               	goto	i1l1151
   793                           
   794                           ;main.c: 70:                 if(!SSPCON2bits.ACKSTAT){
   795  000082  BCC5               	btfsc	4037,6,c	;volatile
   796  000084  D7F9               	goto	i1l1131
   797                           
   798                           ;main.c: 71:                     if(!I2C_tx_counter){
   799  000086  502B               	movf	_I2C_tx_counter,w,c
   800  000088  102C               	iorwf	_I2C_tx_counter+1,w,c
   801  00008A  A4D8               	btfss	status,2,c
   802  00008C  D002               	goto	i1l117
   803                           
   804                           ;main.c: 72:                         SSPCON2bits.PEN = 1;
   805  00008E  84C5               	bsf	4037,2,c	;volatile
   806                           
   807                           ;main.c: 73:                     }else{
   808  000090  D00D               	goto	i1l1151
   809  000092                     i1l117:
   810                           
   811                           ;main.c: 74:                         SSPBUF = I2C_tx_buffer[0];
   812  000092  C021  FFC9         	movff	_I2C_tx_buffer,4041	;volatile
   813                           
   814                           ;main.c: 75:                         I2C_buffer_move_queue();
   815  000096  EC0F  F001         	call	_I2C_buffer_move_queue	;wreg free
   816                           
   817                           ;main.c: 76:                         I2C_tx_counter --;
   818  00009A  062B               	decf	_I2C_tx_counter,f,c
   819  00009C  A0D8               	btfss	status,0,c
   820  00009E  062C               	decf	_I2C_tx_counter+1,f,c
   821  0000A0  D005               	goto	i1l1151
   822  0000A2                     i1l108:
   823  0000A2  B8C7               	btfsc	4039,4,c	;volatile
   824  0000A4  B4C5               	btfsc	4037,2,c	;volatile
   825  0000A6  D002               	goto	i1l1151
   826                           
   827                           ;main.c: 83:             I2C_STATUS = 2;
   828  0000A8  0E02               	movlw	2
   829  0000AA                     L1:
   830  0000AA  6E32               	movwf	_I2C_STATUS,c
   831  0000AC                     i1l1151:
   832                           
   833                           ;main.c: 85:         PIR1bits.SSPIF = 0;
   834  0000AC  969E               	bcf	3998,3,c	;volatile
   835  0000AE                     i1l1153:
   836                           
   837                           ;main.c: 89:     if(INTCONbits.TMR0IF){
   838  0000AE  B4F2               	btfsc	4082,2,c	;volatile
   839                           
   840                           ;main.c: 91:         INTCONbits.TMR0IF = 0;
   841  0000B0  94F2               	bcf	4082,2,c	;volatile
   842  0000B2  C044  FFDA         	movff	??_low_isr+7,fsr2h
   843  0000B6  C043  FFD9         	movff	??_low_isr+6,fsr2l
   844  0000BA  C042  FFE2         	movff	??_low_isr+5,fsr1h
   845  0000BE  C041  FFE1         	movff	??_low_isr+4,fsr1l
   846  0000C2  C040  FFE0         	movff	??_low_isr+3,bsr
   847  0000C6  C03F  FFE8         	movff	??_low_isr+2,wreg
   848  0000CA  C03E  FFD8         	movff	??_low_isr+1,status
   849  0000CE  904C               	bcf	btemp,0,c	;clear compiler interrupt flag (level 1)
   850  0000D0  0010               	retfie	
   851  0000D2                     __end_of_low_isr:
   852                           	opt callstack 0
   853                           
   854 ;; *************** function _I2C_buffer_move_queue *****************
   855 ;; Defined at:
   856 ;;		line 40 in file "I2C.c"
   857 ;; Parameters:    Size  Location     Type
   858 ;;		None
   859 ;; Auto vars:     Size  Location     Type
   860 ;;  i               2    7[COMRAM] int 
   861 ;; Return value:  Size  Location     Type
   862 ;;                  1    wreg      void 
   863 ;; Registers used:
   864 ;;		wreg, fsr1l, fsr1h, fsr2l, fsr2h, status,2, status,0
   865 ;; Tracked objects:
   866 ;;		On entry : 0/0
   867 ;;		On exit  : 0/0
   868 ;;		Unchanged: 0/0
   869 ;; Data sizes:     COMRAM   BANK0   BANK1   BANK2   BANK3   BANK4   BANK5   BANK6   BANK7
   870 ;;      Params:         0       0       0       0       0       0       0       0       0
   871 ;;      Locals:         2       0       0       0       0       0       0       0       0
   872 ;;      Temps:          0       0       0       0       0       0       0       0       0
   873 ;;      Totals:         2       0       0       0       0       0       0       0       0
   874 ;;Total ram usage:        2 bytes
   875 ;; Hardware stack levels used:    1
   876 ;; Hardware stack levels required when called:    3
   877 ;; This function calls:
   878 ;;		Nothing
   879 ;; This function is called by:
   880 ;;		_low_isr
   881 ;; This function uses a non-reentrant model
   882 ;;
   883                           
   884                           	psect	text6
   885  00021E                     __ptext6:
   886                           	opt callstack 0
   887  00021E                     _I2C_buffer_move_queue:
   888                           	opt callstack 24
   889                           
   890                           ;I2C.c: 41:     int i;;I2C.c: 42:     for(i=0;i<(5 -1);i++){
   891                           
   892                           ;incstack = 0
   893  00021E  0E00               	movlw	0
   894  000220  6E3C               	movwf	I2C_buffer_move_queue@i+1,c
   895  000222  0E00               	movlw	0
   896  000224  6E3B               	movwf	I2C_buffer_move_queue@i,c
   897  000226                     i1l1013:
   898                           
   899                           ;I2C.c: 43:         I2C_tx_buffer[i] = I2C_tx_buffer[i+1];
   900  000226  0E22               	movlw	low (_I2C_tx_buffer+1)
   901  000228  243B               	addwf	I2C_buffer_move_queue@i,w,c
   902  00022A  6ED9               	movwf	fsr2l,c
   903  00022C  0E00               	movlw	high (_I2C_tx_buffer+1)
   904  00022E  203C               	addwfc	I2C_buffer_move_queue@i+1,w,c
   905  000230  6EDA               	movwf	fsr2h,c
   906  000232  0E21               	movlw	low _I2C_tx_buffer
   907  000234  243B               	addwf	I2C_buffer_move_queue@i,w,c
   908  000236  6EE1               	movwf	fsr1l,c
   909  000238  0E00               	movlw	high _I2C_tx_buffer
   910  00023A  203C               	addwfc	I2C_buffer_move_queue@i+1,w,c
   911  00023C  6EE2               	movwf	fsr1h,c
   912  00023E  CFDF FFE7          	movff	indf2,indf1
   913                           
   914                           ;I2C.c: 44:     }
   915  000242  4A3B               	infsnz	I2C_buffer_move_queue@i,f,c
   916  000244  2A3C               	incf	I2C_buffer_move_queue@i+1,f,c
   917  000246  BE3C               	btfsc	I2C_buffer_move_queue@i+1,7,c
   918  000248  D7EE               	goto	i1l1013
   919  00024A  503C               	movf	I2C_buffer_move_queue@i+1,w,c
   920  00024C  E105               	bnz	i1u1_20
   921  00024E  0E04               	movlw	4
   922  000250  5C3B               	subwf	I2C_buffer_move_queue@i,w,c
   923  000252  B0D8               	btfsc	status,0,c
   924  000254  0012               	return	
   925  000256  D7E7               	goto	i1l1013
   926  000258                     i1u1_20:
   927  000258  0012               	return		;funcret
   928  00025A                     __end_of_I2C_buffer_move_queue:
   929                           	opt callstack 0
   930                           
   931 ;; *************** function _high_isr *****************
   932 ;; Defined at:
   933 ;;		line 24 in file "main.c"
   934 ;; Parameters:    Size  Location     Type
   935 ;;		None
   936 ;; Auto vars:     Size  Location     Type
   937 ;;		None
   938 ;; Return value:  Size  Location     Type
   939 ;;                  1    wreg      void 
   940 ;; Registers used:
   941 ;;		wreg, fsr2l, fsr2h, status,2, status,0, cstack
   942 ;; Tracked objects:
   943 ;;		On entry : 0/0
   944 ;;		On exit  : 0/0
   945 ;;		Unchanged: 0/0
   946 ;; Data sizes:     COMRAM   BANK0   BANK1   BANK2   BANK3   BANK4   BANK5   BANK6   BANK7
   947 ;;      Params:         0       0       0       0       0       0       0       0       0
   948 ;;      Locals:         0       0       0       0       0       0       0       0       0
   949 ;;      Temps:          2       0       0       0       0       0       0       0       0
   950 ;;      Totals:         2       0       0       0       0       0       0       0       0
   951 ;;Total ram usage:        2 bytes
   952 ;; Hardware stack levels used:    1
   953 ;; Hardware stack levels required when called:    2
   954 ;; This function calls:
   955 ;;		i2_USART_Init
   956 ;; This function is called by:
   957 ;;		Interrupt level 2
   958 ;; This function uses a non-reentrant model
   959 ;;
   960                           
   961                           	psect	intcode
   962  000008                     __pintcode:
   963                           	opt callstack 0
   964  000008                     _high_isr:
   965                           	opt callstack 24
   966                           
   967                           ;incstack = 0
   968  000008  824C               	bsf	btemp,1,c	;set compiler interrupt flag (level 2)
   969  00000A  EFA1  F000         	goto	int_func
   970                           
   971                           	psect	intcode_body
   972  000142                     __pintcode_body:
   973                           	opt callstack 24
   974  000142                     int_func:
   975                           	opt callstack 24
   976  000142  CFD9 F039          	movff	fsr2l,??_high_isr
   977  000146  CFDA F03A          	movff	fsr2h,??_high_isr+1
   978                           
   979                           ;main.c: 26:     if(PIE1bits.TXIE && PIR1bits.TXIF && TXSTA1bits.TRMT){
   980  00014A  B89D               	btfsc	3997,4,c	;volatile
   981  00014C  A89E               	btfss	3998,4,c	;volatile
   982  00014E  D005               	goto	i2l95
   983  000150  A2AC               	btfss	4012,1,c	;volatile
   984  000152  D003               	goto	i2l95
   985                           
   986                           ;main.c: 27:         TXREG1 = tx_byte;
   987  000154  C033  FFAD         	movff	_tx_byte,4013	;volatile
   988                           
   989                           ;main.c: 28:         PIE1bits.TXIE = 0;
   990  000158  989D               	bcf	3997,4,c	;volatile
   991  00015A                     i2l95:
   992                           
   993                           ;main.c: 31:     if(PIR1bits.RCIF){
   994  00015A  AA9E               	btfss	3998,5,c	;volatile
   995  00015C  D01C               	goto	i2l101
   996                           
   997                           ;main.c: 32:         if(!RCSTA1bits.FERR){
   998  00015E  B4AB               	btfsc	4011,2,c	;volatile
   999  000160  D018               	goto	i2l97
  1000                           
  1001                           ;main.c: 33:             if(RCSTA1bits.OERR)
  1002  000162  B2AB               	btfsc	4011,1,c	;volatile
  1003                           
  1004                           ;main.c: 34:                 RCSTA1bits.OERR = 0;
  1005  000164  92AB               	bcf	4011,1,c	;volatile
  1006                           
  1007                           ;main.c: 35:             rx_buffer[rx_counter] = RCREG1;
  1008  000166  0E01               	movlw	low _rx_buffer
  1009  000168  242F               	addwf	_rx_counter,w,c
  1010  00016A  6ED9               	movwf	fsr2l,c
  1011  00016C  0E00               	movlw	high _rx_buffer
  1012  00016E  2030               	addwfc	_rx_counter+1,w,c
  1013  000170  6EDA               	movwf	fsr2h,c
  1014  000172  CFAE FFDF          	movff	4014,indf2	;volatile
  1015                           
  1016                           ;main.c: 36:             rx_counter ++;
  1017  000176  4A2F               	infsnz	_rx_counter,f,c
  1018  000178  2A30               	incf	_rx_counter+1,f,c
  1019                           
  1020                           ;main.c: 37:             if(rx_counter == (32 +1)){
  1021  00017A  0E21               	movlw	33
  1022  00017C  182F               	xorwf	_rx_counter,w,c
  1023  00017E  1030               	iorwf	_rx_counter+1,w,c
  1024  000180  A4D8               	btfss	status,2,c
  1025  000182  D009               	goto	i2l101
  1026  000184                     i2u49_40:
  1027                           
  1028                           ;main.c: 39:                 USART_Init(3);
  1029  000184  0E00               	movlw	0
  1030  000186  6E38               	movwf	i2USART_Init@baud_rate+1,c
  1031  000188  0E03               	movlw	3
  1032  00018A  6E37               	movwf	i2USART_Init@baud_rate,c
  1033  00018C  EC5A  F001         	call	i2_USART_Init	;wreg free
  1034  000190  D002               	goto	i2l101
  1035  000192                     i2l97:
  1036                           
  1037                           ;main.c: 42:             RCSTA1bits.SPEN = 0;
  1038  000192  9EAB               	bcf	4011,7,c	;volatile
  1039  000194  D7F7               	goto	i2u49_40
  1040  000196                     i2l101:
  1041  000196  C03A  FFDA         	movff	??_high_isr+1,fsr2h
  1042  00019A  C039  FFD9         	movff	??_high_isr,fsr2l
  1043  00019E  924C               	bcf	btemp,1,c	;clear compiler interrupt flag (level 2)
  1044  0001A0  0011               	retfie		f
  1045  0001A2                     __end_of_high_isr:
  1046                           	opt callstack 0
  1047                           
  1048 ;; *************** function i2_USART_Init *****************
  1049 ;; Defined at:
  1050 ;;		line 5 in file "USART.c"
  1051 ;; Parameters:    Size  Location     Type
  1052 ;;  baud_rate       2    3[COMRAM] int 
  1053 ;; Auto vars:     Size  Location     Type
  1054 ;;		None
  1055 ;; Return value:  Size  Location     Type
  1056 ;;                  1    wreg      void 
  1057 ;; Registers used:
  1058 ;;		wreg, status,2, status,0, cstack
  1059 ;; Tracked objects:
  1060 ;;		On entry : 0/0
  1061 ;;		On exit  : 0/0
  1062 ;;		Unchanged: 0/0
  1063 ;; Data sizes:     COMRAM   BANK0   BANK1   BANK2   BANK3   BANK4   BANK5   BANK6   BANK7
  1064 ;;      Params:         2       0       0       0       0       0       0       0       0
  1065 ;;      Locals:         0       0       0       0       0       0       0       0       0
  1066 ;;      Temps:          0       0       0       0       0       0       0       0       0
  1067 ;;      Totals:         2       0       0       0       0       0       0       0       0
  1068 ;;Total ram usage:        2 bytes
  1069 ;; Hardware stack levels used:    1
  1070 ;; Hardware stack levels required when called:    1
  1071 ;; This function calls:
  1072 ;;		i2_Initialize_Baud_Rate
  1073 ;; This function is called by:
  1074 ;;		_high_isr
  1075 ;; This function uses a non-reentrant model
  1076 ;;
  1077                           
  1078                           	psect	text8
  1079  0002B4                     __ptext8:
  1080                           	opt callstack 0
  1081  0002B4                     i2_USART_Init:
  1082                           	opt callstack 24
  1083                           
  1084                           ;USART.c: 7:     TRISCbits.RC6 = 1;
  1085                           
  1086                           ;incstack = 0
  1087  0002B4  8C94               	bsf	3988,6,c	;volatile
  1088                           
  1089                           ;USART.c: 8:     TRISCbits.RC7 = 1;
  1090  0002B6  8E94               	bsf	3988,7,c	;volatile
  1091                           
  1092                           ;USART.c: 9:     ANSELCbits.ANSC6 = 0;
  1093  0002B8  010F               	movlb	15	; () banked
  1094  0002BA  9D5D               	bcf	93,6,b	;volatile
  1095                           
  1096                           ;USART.c: 10:     ANSELCbits.ANSC7 = 0;
  1097  0002BC  9F5D               	bcf	93,7,b	;volatile
  1098                           
  1099                           ; BSR set to: 15
  1100                           ;USART.c: 12:     rx_counter = 0;
  1101  0002BE  0E00               	movlw	0
  1102  0002C0  6E30               	movwf	_rx_counter+1,c
  1103  0002C2  0E00               	movlw	0
  1104  0002C4  6E2F               	movwf	_rx_counter,c
  1105                           
  1106                           ; BSR set to: 15
  1107                           ;USART.c: 14:     PMD0bits.UARTMD = 0;
  1108  0002C6  9C7E               	bcf	3966,6,c	;volatile
  1109                           
  1110                           ;USART.c: 15:     TXSTA1 = 0x24;
  1111  0002C8  0E24               	movlw	36
  1112  0002CA  6EAC               	movwf	4012,c	;volatile
  1113                           
  1114                           ; BSR set to: 15
  1115                           ;USART.c: 16:     Initialize_Baud_Rate(baud_rate);
  1116  0002CC  5037               	movf	i2USART_Init@baud_rate,w,c
  1117  0002CE  ECF0  F000         	call	i2_Initialize_Baud_Rate
  1118                           
  1119                           ;USART.c: 17:     RCSTA1 = 0x90;
  1120  0002D2  0E90               	movlw	144
  1121  0002D4  6EAB               	movwf	4011,c	;volatile
  1122                           
  1123                           ;USART.c: 20:     IPR1bits.TXIP = 1;
  1124  0002D6  889F               	bsf	3999,4,c	;volatile
  1125                           
  1126                           ;USART.c: 21:     IPR1bits.RCIP = 1;
  1127  0002D8  8A9F               	bsf	3999,5,c	;volatile
  1128                           
  1129                           ;USART.c: 22:     PIE1bits.RCIE = 1;
  1130  0002DA  8A9D               	bsf	3997,5,c	;volatile
  1131                           
  1132                           ;USART.c: 23:     PIE1bits.TXIE = 0;
  1133  0002DC  989D               	bcf	3997,4,c	;volatile
  1134  0002DE  0012               	return		;funcret
  1135  0002E0                     __end_ofi2_USART_Init:
  1136                           	opt callstack 0
  1137                           
  1138 ;; *************** function i2_Initialize_Baud_Rate *****************
  1139 ;; Defined at:
  1140 ;;		line 27 in file "USART.c"
  1141 ;; Parameters:    Size  Location     Type
  1142 ;;  baud_rate       1    wreg     unsigned char 
  1143 ;; Auto vars:     Size  Location     Type
  1144 ;;  baud_rate       1    2[COMRAM] unsigned char 
  1145 ;; Return value:  Size  Location     Type
  1146 ;;                  2    0[None  ] int 
  1147 ;; Registers used:
  1148 ;;		wreg, status,2, status,0
  1149 ;; Tracked objects:
  1150 ;;		On entry : 0/0
  1151 ;;		On exit  : 0/0
  1152 ;;		Unchanged: 0/0
  1153 ;; Data sizes:     COMRAM   BANK0   BANK1   BANK2   BANK3   BANK4   BANK5   BANK6   BANK7
  1154 ;;      Params:         0       0       0       0       0       0       0       0       0
  1155 ;;      Locals:         1       0       0       0       0       0       0       0       0
  1156 ;;      Temps:          2       0       0       0       0       0       0       0       0
  1157 ;;      Totals:         3       0       0       0       0       0       0       0       0
  1158 ;;Total ram usage:        3 bytes
  1159 ;; Hardware stack levels used:    1
  1160 ;; This function calls:
  1161 ;;		Nothing
  1162 ;; This function is called by:
  1163 ;;		i2_USART_Init
  1164 ;; This function uses a non-reentrant model
  1165 ;;
  1166                           
  1167                           	psect	text9
  1168  0001E0                     __ptext9:
  1169                           	opt callstack 0
  1170  0001E0                     i2_Initialize_Baud_Rate:
  1171                           	opt callstack 24
  1172                           
  1173                           ;incstack = 0
  1174                           ;i2Initialize_Baud_Rate@baud_rate stored from wreg
  1175  0001E0  6E36               	movwf	i2Initialize_Baud_Rate@baud_rate,c
  1176                           
  1177                           ;USART.c: 29:     BAUDCON1 = 0x00;
  1178  0001E2  0E00               	movlw	0
  1179  0001E4  6EB8               	movwf	4024,c	;volatile
  1180                           
  1181                           ;USART.c: 31:     switch(baud_rate){
  1182  0001E6  D009               	goto	i2l1309
  1183  0001E8                     i2l1301:
  1184                           
  1185                           ;USART.c: 33:             SPBRG1 = 155;
  1186  0001E8  0E9B               	movlw	155
  1187  0001EA  6EAF               	movwf	4015,c	;volatile
  1188                           
  1189                           ;USART.c: 34:             break;
  1190  0001EC  0012               	return	
  1191  0001EE                     i2l1303:
  1192                           
  1193                           ;USART.c: 36:             SPBRG1 = 51;
  1194  0001EE  0E33               	movlw	51
  1195  0001F0  6EAF               	movwf	4015,c	;volatile
  1196                           
  1197                           ;USART.c: 37:             break;
  1198  0001F2  0012               	return	
  1199  0001F4                     i2l1305:
  1200                           
  1201                           ;USART.c: 39:             SPBRG1 = 25;
  1202  0001F4  0E19               	movlw	25
  1203  0001F6  6EAF               	movwf	4015,c	;volatile
  1204                           
  1205                           ;USART.c: 40:             break;
  1206  0001F8  0012               	return	
  1207  0001FA                     i2l1309:
  1208  0001FA  5036               	movf	i2Initialize_Baud_Rate@baud_rate,w,c
  1209  0001FC  6E34               	movwf	??i2_Initialize_Baud_Rate& (0+255),c
  1210  0001FE  6A35               	clrf	(??i2_Initialize_Baud_Rate+1)& (0+255),c
  1211                           
  1212                           ; Switch on 2 bytes has been partitioned into a top level switch of size 1, and 1 sub-sw
      +                          itches
  1213                           ; Switch size 1, requested type "simple"
  1214                           ; Number of cases is 1, Range of values is 0 to 0
  1215                           ; switch strategies available:
  1216                           ; Name         Instructions Cycles
  1217                           ; simple_byte            4     3 (average)
  1218                           ;	Chosen strategy is simple_byte
  1219  000200  5035               	movf	??i2_Initialize_Baud_Rate+1,w,c
  1220  000202  0A00               	xorlw	0	; case 0
  1221  000204  A4D8               	btfss	status,2,c
  1222  000206  0012               	return	
  1223                           
  1224                           ; Switch size 1, requested type "simple"
  1225                           ; Number of cases is 3, Range of values is 1 to 3
  1226                           ; switch strategies available:
  1227                           ; Name         Instructions Cycles
  1228                           ; simple_byte           10     6 (average)
  1229                           ;	Chosen strategy is simple_byte
  1230  000208  5034               	movf	??i2_Initialize_Baud_Rate,w,c
  1231  00020A  0A01               	xorlw	1	; case 1
  1232  00020C  B4D8               	btfsc	status,2,c
  1233  00020E  D7EC               	goto	i2l1301
  1234  000210  0A03               	xorlw	3	; case 2
  1235  000212  B4D8               	btfsc	status,2,c
  1236  000214  D7EC               	goto	i2l1303
  1237  000216  0A01               	xorlw	1	; case 3
  1238  000218  A4D8               	btfss	status,2,c
  1239  00021A  0012               	return	
  1240  00021C  D7EB               	goto	i2l1305
  1241  00021E                     __end_ofi2_Initialize_Baud_Rate:
  1242                           	opt callstack 0
  1243  0000                     
  1244                           	psect	rparam
  1245  0000                     
  1246                           	psect	temp
  1247  00004C                     btemp:
  1248                           	opt callstack 0
  1249  00004C                     	ds	1
  1250  0000                     int$flags	set	btemp
  1251  0000                     wtemp8	set	btemp+1
  1252  0000                     ttemp5	set	btemp+1
  1253  0000                     ttemp6	set	btemp+4
  1254  0000                     ttemp7	set	btemp+8
  1255                           tosu	equ	0xFFF
  1256                           tosh	equ	0xFFE
  1257                           tosl	equ	0xFFD
  1258                           stkptr	equ	0xFFC
  1259                           pclatu	equ	0xFFB
  1260                           pclath	equ	0xFFA
  1261                           pcl	equ	0xFF9
  1262                           tblptru	equ	0xFF8
  1263                           tblptrh	equ	0xFF7
  1264                           tblptrl	equ	0xFF6
  1265                           tablat	equ	0xFF5
  1266                           prodh	equ	0xFF4
  1267                           prodl	equ	0xFF3
  1268                           indf0	equ	0xFEF
  1269                           postinc0	equ	0xFEE
  1270                           postdec0	equ	0xFED
  1271                           preinc0	equ	0xFEC
  1272                           plusw0	equ	0xFEB
  1273                           fsr0h	equ	0xFEA
  1274                           fsr0l	equ	0xFE9
  1275                           wreg	equ	0xFE8
  1276                           indf1	equ	0xFE7
  1277                           postinc1	equ	0xFE6
  1278                           postdec1	equ	0xFE5
  1279                           preinc1	equ	0xFE4
  1280                           plusw1	equ	0xFE3
  1281                           fsr1h	equ	0xFE2
  1282                           fsr1l	equ	0xFE1
  1283                           bsr	equ	0xFE0
  1284                           indf2	equ	0xFDF
  1285                           postinc2	equ	0xFDE
  1286                           postdec2	equ	0xFDD
  1287                           preinc2	equ	0xFDC
  1288                           plusw2	equ	0xFDB
  1289                           fsr2h	equ	0xFDA
  1290                           fsr2l	equ	0xFD9
  1291                           status	equ	0xFD8


Data Sizes:
    Strings     0
    Constant    0
    Data        0
    BSS         51
    Persistent  0
    Stack       0

Auto Spaces:
    Space          Size  Autos    Used
    COMRAM           94     24      75
    BANK0           160      0       0
    BANK1           256      0       0
    BANK2           256      0       0
    BANK3           256      0       0
    BANK4           256      0       0
    BANK5           256      0       0
    BANK6           256      0       0
    BANK7           256      0       0

Pointer List with Targets:

    None.

Critical Paths under _main in COMRAM

    _main->_USART_Init
    _USART_Init->_Initialize_Baud_Rate

Critical Paths under _low_isr in COMRAM

    _low_isr->_I2C_buffer_move_queue

Critical Paths under _high_isr in COMRAM

    _high_isr->i2_USART_Init
    i2_USART_Init->i2_Initialize_Baud_Rate

Critical Paths under _main in BANK0

    None.

Critical Paths under _low_isr in BANK0

    None.

Critical Paths under _high_isr in BANK0

    None.

Critical Paths under _main in BANK1

    None.

Critical Paths under _low_isr in BANK1

    None.

Critical Paths under _high_isr in BANK1

    None.

Critical Paths under _main in BANK2

    None.

Critical Paths under _low_isr in BANK2

    None.

Critical Paths under _high_isr in BANK2

    None.

Critical Paths under _main in BANK3

    None.

Critical Paths under _low_isr in BANK3

    None.

Critical Paths under _high_isr in BANK3

    None.

Critical Paths under _main in BANK4

    None.

Critical Paths under _low_isr in BANK4

    None.

Critical Paths under _high_isr in BANK4

    None.

Critical Paths under _main in BANK5

    None.

Critical Paths under _low_isr in BANK5

    None.

Critical Paths under _high_isr in BANK5

    None.

Critical Paths under _main in BANK6

    None.

Critical Paths under _low_isr in BANK6

    None.

Critical Paths under _high_isr in BANK6

    None.

Critical Paths under _main in BANK7

    None.

Critical Paths under _low_isr in BANK7

    None.

Critical Paths under _high_isr in BANK7

    None.

Call Graph Tables:

 ---------------------------------------------------------------------------------
 (Depth) Function   	        Calls       Base Space   Used Autos Params    Refs
 ---------------------------------------------------------------------------------
 (0) _main                                                 2     2      0     213
                                             22 COMRAM     2     2      0
                           _I2C_Init
                         _USART_Init
                        _timer0_init
 ---------------------------------------------------------------------------------
 (1) _timer0_init                                          0     0      0       0
 ---------------------------------------------------------------------------------
 (1) _USART_Init                                           2     0      2     213
                                             20 COMRAM     2     0      2
               _Initialize_Baud_Rate
 ---------------------------------------------------------------------------------
 (2) _Initialize_Baud_Rate                                 3     3      0      15
                                             17 COMRAM     3     3      0
 ---------------------------------------------------------------------------------
 (1) _I2C_Init                                             0     0      0       0
 ---------------------------------------------------------------------------------
 Estimated maximum stack depth 2
 ---------------------------------------------------------------------------------
 (Depth) Function   	        Calls       Base Space   Used Autos Params    Refs
 ---------------------------------------------------------------------------------
 (3) _low_isr                                              8     8      0      60
                                              9 COMRAM     8     8      0
              _I2C_buffer_move_queue
 ---------------------------------------------------------------------------------
 (4) _I2C_buffer_move_queue                                2     2      0      60
                                              7 COMRAM     2     2      0
 ---------------------------------------------------------------------------------
 Estimated maximum stack depth 4
 ---------------------------------------------------------------------------------
 (Depth) Function   	        Calls       Base Space   Used Autos Params    Refs
 ---------------------------------------------------------------------------------
 (5) _high_isr                                             2     2      0      96
                                              5 COMRAM     2     2      0
                       i2_USART_Init
 ---------------------------------------------------------------------------------
 (6) i2_USART_Init                                         2     0      2      96
                                              3 COMRAM     2     0      2
             i2_Initialize_Baud_Rate
 ---------------------------------------------------------------------------------
 (7) i2_Initialize_Baud_Rate                               3     3      0      22
                                              0 COMRAM     3     3      0
 ---------------------------------------------------------------------------------
 Estimated maximum stack depth 7
 ---------------------------------------------------------------------------------

 Call Graph Graphs:

 _main (ROOT)
   _I2C_Init
   _USART_Init
     _Initialize_Baud_Rate
   _timer0_init

 _low_isr (ROOT)
   _I2C_buffer_move_queue

 _high_isr (ROOT)
   i2_USART_Init
     i2_Initialize_Baud_Rate

 Address spaces:
Name               Size   Autos  Total    Cost      Usage
BIGRAM             7FF      0       0      21        0.0%
EEDATA             100      0       0       0        0.0%
BITBANK7           100      0       0      19        0.0%
BANK7              100      0       0      20        0.0%
BITBANK6           100      0       0      17        0.0%
BANK6              100      0       0      18        0.0%
BITBANK5           100      0       0      15        0.0%
BANK5              100      0       0      16        0.0%
BITBANK4           100      0       0      13        0.0%
BANK4              100      0       0      14        0.0%
BITBANK3           100      0       0      11        0.0%
BANK3              100      0       0      12        0.0%
BITBANK2           100      0       0       9        0.0%
BANK2              100      0       0      10        0.0%
BITBANK1           100      0       0       7        0.0%
BANK1              100      0       0       8        0.0%
BITBANK0            A0      0       0       4        0.0%
BANK0               A0      0       0       5        0.0%
BITCOMRAM           5E      0       0       0        0.0%
COMRAM              5E     18      4B       1       79.8%
BITSFR_1             0      0       0     200        0.0%
SFR_1                0      0       0     200        0.0%
BITSFR               0      0       0     200        0.0%
SFR                  0      0       0     200        0.0%
STACK                0      0       0       2        0.0%
NULL                 0      0       0       0        0.0%
ABS                  0      0      4B       6        0.0%
DATA                 0      0      4B       3        0.0%
CODE                 0      0       0       0        0.0%


Microchip Technology PIC18 Macro Assembler V2.05 build -831301201 
Symbol Table                                                                                   Wed Mar 27 17:55:31 2019

                    _SSPSTATbits 000FC7                               bsr 000FE0  
                   __CFG_CP0$OFF 000000                     __CFG_CP1$OFF 000000  
                   __CFG_CP2$OFF 000000                     __CFG_CP3$OFF 000000  
                            l128 00E2                              l961 01B0  
                            l963 01B6                              l959 01AA  
                            l967 01BC                     __CFG_CPB$OFF 000000  
                            u520 00EC                     __CFG_CPD$OFF 000000  
                            u537 0116                              u547 0132  
  __size_of_Initialize_Baud_Rate 003E                              wreg 000FE8  
                     _TXSTA1bits 000FAC                     __CFG_LVP$OFF 000000  
                           l1395 0108                             i2l95 015A  
                           i2l97 0192                    __CFG_FCMEN$ON 000000  
                           _main 00D6                 __end_of_I2C_Init 0288  
                           fsr1h 000FE2                             fsr2h 000FDA  
                           indf1 000FE7                             indf2 000FDF  
                           fsr1l 000FE1                             fsr2l 000FD9  
                           btemp 004C                    __CFG_BORV$285 000000  
                           start 00D2                    __CFG_IESO$OFF 000000  
                  __CFG_MCLRE$ON 000000                     ___param_bank 000000  
                          ?_main 0034                            i1l108 00A2  
                          i1l117 0092                            i2l101 0196  
         i2_Initialize_Baud_Rate 01E0                    __CFG_WRT0$OFF 000000  
                  __CFG_WRT1$OFF 000000                    __CFG_WRT2$OFF 000000  
                  __CFG_WRT3$OFF 000000                   __CFG_EBTR0$OFF 000000  
                 __CFG_EBTR1$OFF 000000                   __CFG_EBTR2$OFF 000000  
                 __CFG_EBTR3$OFF 000000                    __CFG_WRTB$OFF 000000  
                  __CFG_WRTC$OFF 000000                    __CFG_WRTD$OFF 000000  
                 __CFG_EBTRB$OFF 000000                  __end_of_low_isr 00D2  
                          ttemp5 004D                            ttemp6 0050  
                          ttemp7 0054                            status 000FD8  
                 __CFG_T3CMX$RC0 000000                            wtemp8 004D  
                 __CFG_ICPRT$OFF 000000                      ?_USART_Init 0048  
 __size_of_I2C_buffer_move_queue 003C                  __initialization 02E0  
  __end_of_I2C_buffer_move_queue 025A                     __end_of_main 0142  
                 __CFG_PCLKEN$ON 000000                           ??_main 004A  
                  __activetblptr 000002                   __CFG_SDOMX$RB3 000000  
                __CFG_CCP2MX$RC1 000000                           _ADCON0 000FC2  
                         _ADCON1 000FC1                           _ADCON2 000FC0  
                         _ADRESH 000FC4                           _ADRESL 000FC3  
                         i1l1013 0226                           i1l1131 0078  
                         i1l1133 007C                           i1l1109 0040  
                         i1l1151 00AC                           i1l1153 00AE  
                         i2l1301 01E8                           i2l1303 01EE  
                         i2l1305 01F4                           i2l1309 01FA  
                 __CFG_WDTEN$OFF 000000                           _RCREG1 000FAE  
                         _RCSTA1 000FAB                           _OSCCON 000FD3  
                         _SPBRG1 000FAF                           i1u1_20 0258  
                 __CFG_WDTPS$256 000000                           _SSPBUF 000FC9  
                         _TXREG1 000FAD           I2C_buffer_move_queue@i 003B  
                         _TXSTA1 000FAC                   __CFG_XINST$OFF 000000  
               __end_of_high_isr 01A2                   __CFG_STVREN$ON 000000  
                   ?_timer0_init 0034                           clear_0 02E6  
                      ?_I2C_Init 0034                        ??_low_isr 003D  
                         tblptru 000FF8              __size_of_USART_Init 002C  
           __CFG_LS48MHZ$SYS48X8 000000                       __accesstop 0060  
        __end_of__initialization 02EC                  __CFG_PBADEN$OFF 000000  
                  ___rparam_used 000001                   __pcstackCOMRAM 0034  
               __CFG_nPWRTEN$OFF 000000                       ??_I2C_Init 0045  
          i2USART_Init@baud_rate 0037     __end_of_Initialize_Baud_Rate 01E0  
  Initialize_Baud_Rate@baud_rate 0047  i2Initialize_Baud_Rate@baud_rate 0036  
                  ?i2_USART_Init 0037                __CFG_PLLSEL$PLL3X 000000  
        ?i2_Initialize_Baud_Rate 0034                          _OSCCON2 000FD2  
                        i1u20_20 0066                          _OSCTUNE 000F9B  
                        i2u49_40 0184                          _SSP1ADD 000FC8  
                      ?_high_isr 0034                 __CFG_CFGPLLEN$ON 000000  
                  _I2C_rx_buffer 0026                   ??i2_USART_Init 0039  
                  _I2C_tx_buffer 0021                     ??_USART_Init 004A  
                        __Hparam 0000                          __Lparam 0000  
                      _ADC_ready 0031   __end_ofi2_Initialize_Baud_Rate 021E  
                        __pcinit 02E0                          __ramtop 0800  
           __size_of_timer0_init 0004                          __ptext0 00D6  
                        __ptext1 02FA                          __ptext2 0288  
                        __ptext3 01A2                          __ptext4 025A  
                        __ptext6 021E                          __ptext8 02B4  
                        __ptext9 01E0                          _low_isr 0018  
             __end_of_USART_Init 02B4                          _tx_byte 0033  
                     ??_high_isr 0039                   __pintcode_body 0142  
           end_of_initialization 02EC                    __Lmediumconst 0000  
                        int_func 0142                          postinc0 000FEE  
          _I2C_buffer_move_queue 021E             _Initialize_Baud_Rate 01A2  
                      _TRISAbits 000F92                        _TRISBbits 000F93  
                      _TRISCbits 000F94                __size_of_I2C_Init 002E  
                     _rx_counter 002F              USART_Init@baud_rate 0048  
          ?_Initialize_Baud_Rate 0034              start_initialization 02E0  
           __end_ofi2_USART_Init 02E0                  __CFG_nLPBOR$OFF 000000  
         ?_I2C_buffer_move_queue 0034                      __pbssCOMRAM 0001  
              __size_of_high_isr 019A                        __pintcode 0008  
                    __pintcodelo 0018           ??_Initialize_Baud_Rate 0045  
                       _BAUDCON1 000FB8                         _I2C_Init 025A  
                       ?_low_isr 0034                         _LATAbits 000F89  
                       _IPR1bits 000F9F                         _IPR2bits 000FA2  
                       _PIE1bits 000F9D                         _PIE2bits 000FA0  
                       _PMD0bits 000F7E                         _PMD1bits 000F7F  
                       _PIR1bits 000F9E                         _PIR2bits 000FA1  
                       _RCONbits 000FD0                         _SSP1CON1 000FC6  
                       _SSP1CON2 000FC5                         _SSP1CON3 000FCB  
                  ??_timer0_init 0045                         _SSP1STAT 000FC7  
          __size_ofi2_USART_Init 002C                        _rx_buffer 0001  
                     _ADCON0bits 000FC2                       _I2C_STATUS 0032  
                 _I2C_rx_counter 002D                   _I2C_tx_counter 002B  
                       __Hrparam 0000                     i2_USART_Init 02B4  
                       __Lrparam 0000               __CFG_BOREN$SBORDIS 000000  
                     _ANSELAbits 000F5B                       _ANSELBbits 000F5C  
                     _ANSELCbits 000F5D              __end_of_timer0_init 02FE  
               __size_of_low_isr 00BA                     _SSP1CON2bits 000FC5  
                       _high_isr 0008                      _OSCCON2bits 000FD2  
                  __size_of_main 006C         ??i2_Initialize_Baud_Rate 0034  
        ??_I2C_buffer_move_queue 003B                         int$flags 004C  
                   _SSP1STATbits 000FC7                       _INTCONbits 000FF2  
                       intlevel1 0000                         intlevel2 0000  
                     _RCSTA1bits 000FAB                       _OSCCONbits 000FD3  
           __CFG_CPUDIV$NOCLKDIV 000000                      _timer0_init 02FA  
                    _SSPCON1bits 000FC6                      _SSPCON2bits 000FC5  
             __CFG_FOSC$INTOSCIO 000000  __size_ofi2_Initialize_Baud_Rate 003E  
                     _USART_Init 0288  
