

Microchip MPLAB XC8 Assembler V2.05 build -831301201 
                                                                                               Fri May 17 09:32:49 2019

Microchip MPLAB XC8 C Compiler v2.05 (Free license) build 20181220022703 Og1 
     1                           	processor	18F27K42
     2                           	fnconf	rparam,??,?,0
     3                           	opt	pw 120
     4                           	opt	flic
     5                           	psect	idataCOMRAM,global,class=CODE,delta=1,noexec
     6                           	psect	idataBANK0,global,class=CODE,delta=1,noexec
     7                           	psect	smallconst,global,reloc=2,class=SMALLCONST,delta=1,noexec
     8                           	psect	cinit,global,reloc=2,class=CODE,delta=1
     9                           	psect	bssCOMRAM,global,class=COMRAM,space=1,delta=1,noexec
    10                           	psect	dataCOMRAM,global,class=COMRAM,space=1,delta=1,noexec
    11                           	psect	bssBANK0,global,class=BANK0,space=1,delta=1,lowdata,noexec
    12                           	psect	dataBANK0,global,class=BANK0,space=1,delta=1,lowdata,noexec
    13                           	psect	bssBANK1,global,class=BANK1,space=1,delta=1,lowdata,noexec
    14                           	psect	cstackBANK1,global,class=BANK1,space=1,delta=1,noexec
    15                           	psect	cstackBANK0,global,class=BANK0,space=1,delta=1,noexec
    16                           	psect	cstackCOMRAM,global,class=COMRAM,space=1,delta=1,noexec
    17                           	psect	text0,global,reloc=2,class=CODE,delta=1
    18                           	psect	text1,global,reloc=2,class=CODE,delta=1
    19                           	psect	text2,global,reloc=2,class=CODE,delta=1
    20                           	psect	text3,global,reloc=2,class=CODE,delta=1,group=2
    21                           	psect	text4,global,reloc=2,class=CODE,delta=1
    22                           	psect	text5,global,reloc=2,class=CODE,delta=1
    23                           	psect	text6,global,reloc=2,class=CODE,delta=1,group=2
    24                           	psect	text7,global,reloc=2,class=CODE,delta=1
    25                           	psect	text8,global,reloc=2,class=CODE,delta=1,group=2
    26                           	psect	text9,global,reloc=2,class=CODE,delta=1,group=2
    27                           	psect	text10,global,reloc=2,class=CODE,delta=1,group=2
    28                           	psect	text11,global,reloc=2,class=CODE,delta=1
    29                           	psect	text12,global,reloc=2,class=CODE,delta=1,group=2
    30                           	psect	text13,global,reloc=2,class=CODE,delta=1,group=2
    31                           	psect	text14,global,reloc=2,class=CODE,delta=1,group=2
    32                           	psect	text15,global,reloc=2,class=CODE,delta=1,group=2
    33                           	psect	text16,global,reloc=2,class=CODE,delta=1,group=2
    34                           	psect	text17,global,reloc=2,class=CODE,delta=1,group=2
    35                           	psect	text18,global,reloc=2,class=CODE,delta=1,group=1
    36                           	psect	text19,global,reloc=2,class=CODE,delta=1,group=1
    37                           	psect	text20,global,reloc=2,class=CODE,delta=1,group=1
    38                           	psect	text21,global,reloc=2,class=CODE,delta=1,group=1
    39                           	psect	text22,global,reloc=2,class=CODE,delta=1,group=1
    40                           	psect	text23,global,reloc=2,class=CODE,delta=1,group=1
    41                           	psect	text24,global,reloc=2,class=CODE,delta=1,group=1
    42                           	psect	text25,global,reloc=2,class=CODE,delta=1,group=1
    43                           	psect	text26,global,reloc=2,class=CODE,delta=1,group=1
    44                           	psect	text27,global,reloc=2,class=CODE,delta=1,group=1
    45                           	psect	text28,global,reloc=2,class=CODE,delta=1
    46                           	psect	text29,global,reloc=2,class=CODE,delta=1
    47                           	psect	text30,global,reloc=2,class=CODE,delta=1
    48                           	psect	text31,global,reloc=2,class=CODE,delta=1
    49                           	psect	text32,global,reloc=2,class=CODE,delta=1
    50                           	psect	text33,global,reloc=2,class=CODE,delta=1
    51                           	psect	text34,global,reloc=2,class=CODE,delta=1
    52                           	psect	text35,global,reloc=2,class=CODE,delta=1,group=1
    53                           	psect	text36,global,reloc=2,class=CODE,delta=1
    54                           	psect	text37,global,reloc=2,class=CODE,delta=1
    55                           	psect	text38,global,reloc=2,class=CODE,delta=1
    56                           	psect	text39,global,reloc=4,class=CODE,delta=1
    57                           	psect	text40,global,reloc=2,class=CODE,delta=1
    58                           	psect	text41,global,reloc=4,class=CODE,delta=1
    59                           	psect	text42,global,reloc=4,class=CODE,delta=1
    60                           	psect	text43,global,reloc=4,class=CODE,delta=1
    61                           	psect	text44,global,reloc=2,class=CODE,delta=1,group=1
    62                           	psect	text45,global,reloc=4,class=CODE,delta=1
    63                           	psect	text46,global,reloc=4,class=CODE,delta=1
    64                           	psect	text47,global,reloc=4,class=CODE,delta=1
    65                           	psect	text48,global,reloc=4,class=CODE,delta=1
    66                           	psect	ivt0x8,global,reloc=2,class=CODE,delta=1,noexec,keep,optim=
    67                           	psect	intsave_regs,global,class=BIGRAM,space=1,delta=1,noexec
    68                           	psect	rparam,global,class=COMRAM,space=1,delta=1,noexec
    69  0000                     
    70                           ; Version 2.05
    71                           ; Generated 20/12/2018 GMT
    72                           ; 
    73                           ; Copyright © 2018, Microchip Technology Inc. and its subsidiaries ("Microchip")
    74                           ; All rights reserved.
    75                           ; 
    76                           ; This software is developed by Microchip Technology Inc. and its subsidiaries ("Microch
      +                          ip").
    77                           ; 
    78                           ; Redistribution and use in source and binary forms, with or without modification, are
    79                           ; permitted provided that the following conditions are met:
    80                           ; 
    81                           ;     1. Redistributions of source code must retain the above copyright notice, this lis
      +                          t of
    82                           ;        conditions and the following disclaimer.
    83                           ; 
    84                           ;     2. Redistributions in binary form must reproduce the above copyright notice, this 
      +                          list
    85                           ;        of conditions and the following disclaimer in the documentation and/or other
    86                           ;        materials provided with the distribution.
    87                           ; 
    88                           ;     3. Microchip's name may not be used to endorse or promote products derived from th
      +                          is
    89                           ;        software without specific prior written permission.
    90                           ; 
    91                           ; THIS SOFTWARE IS PROVIDED BY MICROCHIP "AS IS" AND ANY EXPRESS OR IMPLIED WARRANTIES,
    92                           ; INCLUDING, BUT NOT LIMITED TO, THE IMPLIED WARRANTIES OF MERCHANTABILITY AND FITNESS F
      +                          OR
    93                           ; PURPOSE ARE DISCLAIMED.  IN NO EVENT SHALL MICROCHIP BE LIABLE FOR ANY DIRECT, INDIREC
      +                          T,
    94                           ; INCIDENTAL, SPECIAL, EXEMPLARY, OR CONSEQUENTIAL DAMAGES (INCLUDING BUT NOT LIMITED TO
    95                           ; PROCUREMENT OF SUBSTITUTE GOODS OR SERVICES; LOSS OF USE, DATA OR PROFITS; OR BUSINESS
    96                           ; INTERRUPTION) HOWSOEVER CAUSED AND ON ANY THEORY OF LIABILITY, WHETHER IN CONTRACT, ST
      +                          RICT
    97                           ; LIABILITY, OR TORT (INCLUDING NEGLIGENCE OR OTHERWISE) ARISING IN ANY WAY OUT OF THE U
      +                          SE OF
    98                           ; THIS SOFTWARE, EVEN IF ADVISED OF THE POSSIBILITY OF SUCH DAMAGE.
    99                           ; 
   100                           ; 
   101                           ; Code-generator required, PIC18F27K42 Definitions
   102                           ; 
   103                           ; SFR Addresses
   104  0000                     
   105                           	psect	idataCOMRAM
   106  004F7A                     __pidataCOMRAM:
   107                           	opt callstack 0
   108                           
   109                           ;initializer for _measur_vol_or_cur
   110  004F7A  01                 	db	1
   111                           
   112                           	psect	idataBANK0
   113  004F7B                     __pidataBANK0:
   114                           	opt callstack 0
   115                           
   116                           ;initializer for _AD5272_VOLTAGE_ADDRESS
   117  004F7B  5E                 	db	94
   118  0000                     _PIR3	set	14755
   119  0000                     _PIE2bits	set	14738
   120  0000                     _PIR2bits	set	14754
   121  0000                     _IPR2bits	set	14722
   122  0000                     _PIE1bits	set	14737
   123  0000                     _IPR1bits	set	14721
   124  0000                     _IPR3bits	set	14723
   125  0000                     _WDTCON0	set	14683
   126  0000                     _WDTCON1	set	14684
   127  0000                     _OSCSTATbits	set	14812
   128  0000                     _OSCEN	set	14813
   129  0000                     _OSCTUNE	set	14814
   130  0000                     _OSCFRQ	set	14815
   131  0000                     _PIR1bits	set	14753
   132  0000                     _PIE3bits	set	14739
   133  0000                     _PIR3bits	set	14755
   134  0000                     _RC7PPS	set	14871
   135  0000                     _U1RXPPS	set	15077
   136  0000                     _ANSELCbits	set	14944
   137  0000                     _RB0PPS	set	14856
   138  0000                     _RB1PPS	set	14857
   139  0000                     _I2C1SDAPPS	set	15074
   140  0000                     _I2C1SCLPPS	set	15073
   141  0000                     _SLRCONBbits	set	14931
   142  0000                     _RB1I2C	set	14938
   143  0000                     _ODCONBbits	set	14930
   144  0000                     _ANSELBbits	set	14928
   145  0000                     _ANSELAbits	set	14912
   146  0000                     _PPSLOCKbits	set	15039
   147  0000                     _U1CON1bits	set	15859
   148  0000                     _U1UIR	set	15864
   149  0000                     _U1ERRIE	set	15866
   150  0000                     _U2CON2	set	15836
   151  0000                     _U1CON1	set	15859
   152  0000                     _U1CON0	set	15858
   153  0000                     _U1BRGL	set	15861
   154  0000                     _U1BRGH	set	15862
   155  0000                     _I2C1ADB1	set	15726
   156  0000                     _I2C1CNT	set	15724
   157  0000                     _I2C1STAT0bits	set	15735
   158  0000                     _I2C1CON0bits	set	15731
   159  0000                     _I2C1PIEbits	set	15738
   160  0000                     _I2C1ERR	set	15734
   161  0000                     _I2C1CLK	set	15739
   162  0000                     _I2C1CON2	set	15733
   163  0000                     _I2C1CON1	set	15732
   164  0000                     _I2C1CON0	set	15731
   165  0000                     _I2C1PIR	set	15737
   166  0000                     _I2C1PIRbits	set	15737
   167  0000                     _I2C1RXB	set	15722
   168  0000                     _I2C1TXB	set	15723
   169  0000                     _U1RXB	set	15848
   170  0000                     _U1TXB	set	15850
   171  0000                     _ADCON0bits	set	16120
   172  0000                     _ADREF	set	16125
   173  0000                     _ADCON2	set	16122
   174  0000                     _ADCON1	set	16121
   175  0000                     _ADCON0	set	16120
   176  0000                     _ADPCH	set	16113
   177  0000                     _ADRESH	set	16112
   178  0000                     _ADRESL	set	16111
   179  0000                     _TRISCbits	set	16324
   180  0000                     _T0CON1	set	16313
   181  0000                     _T0CON0	set	16312
   182  0000                     _LATBbits	set	16315
   183  0000                     _TRISBbits	set	16323
   184  0000                     _TRISAbits	set	16322
   185  0000                     _INTCON0bits	set	16338
   186  0000                     _IVTLOCK	set	16340
   187  0000                     _TMR0H	set	16311
   188  0000                     _TMR0L	set	16310
   189  0000                     _LATAbits	set	16314
   190  0000                     _T0CON0bits	set	16312
   191                           
   192                           	psect	smallconst
   193  002000                     __psmallconst:
   194                           	opt callstack 0
   195  002000  00                 	db	0
   196  002001                     STR_3:
   197  002001  56                 	db	86	;'V'
   198  002002  65                 	db	101	;'e'
   199  002003  72                 	db	114	;'r'
   200  002004  73                 	db	115	;'s'
   201  002005  69                 	db	105	;'i'
   202  002006  6F                 	db	111	;'o'
   203  002007  6E                 	db	110	;'n'
   204  002008  20                 	db	32
   205  002009  31                 	db	49	;'1'
   206  00200A  2E                 	db	46
   207  00200B  30                 	db	48	;'0'
   208  00200C  0A                 	db	10
   209  00200D  54                 	db	84	;'T'
   210  00200E  65                 	db	101	;'e'
   211  00200F  61                 	db	97	;'a'
   212  002010  6D                 	db	109	;'m'
   213  002011  20                 	db	32
   214  002012  35                 	db	53	;'5'
   215  002013  56                 	db	86	;'V'
   216  002014  0A                 	db	10
   217  002015  58                 	db	88	;'X'
   218  002016  61                 	db	97	;'a'
   219  002017  72                 	db	114	;'r'
   220  002018  69                 	db	105	;'i'
   221  002019  73                 	db	115	;'s'
   222  00201A  20                 	db	32
   223  00201B  4B                 	db	75	;'K'
   224  00201C  65                 	db	101	;'e'
   225  00201D  74                 	db	116	;'t'
   226  00201E  6F                 	db	111	;'o'
   227  00201F  67                 	db	103	;'g'
   228  002020  6C                 	db	108	;'l'
   229  002021  6F                 	db	111	;'o'
   230  002022  75                 	db	117	;'u'
   231  002023  2C                 	db	44
   232  002024  56                 	db	86	;'V'
   233  002025  6F                 	db	111	;'o'
   234  002026  75                 	db	117	;'u'
   235  002027  6C                 	db	108	;'l'
   236  002028  61                 	db	97	;'a'
   237  002029  20                 	db	32
   238  00202A  4B                 	db	75	;'K'
   239  00202B  6F                 	db	111	;'o'
   240  00202C  6E                 	db	110	;'n'
   241  00202D  74                 	db	116	;'t'
   242  00202E  6F                 	db	111	;'o'
   243  00202F  74                 	db	116	;'t'
   244  002030  6F                 	db	111	;'o'
   245  002031  6C                 	db	108	;'l'
   246  002032  69                 	db	105	;'i'
   247  002033  00                 	db	0
   248  002034                     STR_4:
   249  002034  43                 	db	67	;'C'
   250  002035  6F                 	db	111	;'o'
   251  002036  6D                 	db	109	;'m'
   252  002037  6D                 	db	109	;'m'
   253  002038  61                 	db	97	;'a'
   254  002039  6E                 	db	110	;'n'
   255  00203A  64                 	db	100	;'d'
   256  00203B  20                 	db	32
   257  00203C  6E                 	db	110	;'n'
   258  00203D  6F                 	db	111	;'o'
   259  00203E  74                 	db	116	;'t'
   260  00203F  20                 	db	32
   261  002040  72                 	db	114	;'r'
   262  002041  65                 	db	101	;'e'
   263  002042  63                 	db	99	;'c'
   264  002043  6F                 	db	111	;'o'
   265  002044  67                 	db	103	;'g'
   266  002045  6E                 	db	110	;'n'
   267  002046  69                 	db	105	;'i'
   268  002047  7A                 	db	122	;'z'
   269  002048  65                 	db	101	;'e'
   270  002049  64                 	db	100	;'d'
   271  00204A  21                 	db	33
   272  00204B  00                 	db	0
   273  00204C                     STR_6:
   274  00204C  42                 	db	66	;'B'
   275  00204D  6C                 	db	108	;'l'
   276  00204E  69                 	db	105	;'i'
   277  00204F  6E                 	db	110	;'n'
   278  002050  6B                 	db	107	;'k'
   279  002051  69                 	db	105	;'i'
   280  002052  6E                 	db	110	;'n'
   281  002053  67                 	db	103	;'g'
   282  002054  20                 	db	32
   283  002055  4C                 	db	76	;'L'
   284  002056  45                 	db	69	;'E'
   285  002057  44                 	db	68	;'D'
   286  002058  20                 	db	32
   287  002059  69                 	db	105	;'i'
   288  00205A  73                 	db	115	;'s'
   289  00205B  20                 	db	32
   290  00205C  4F                 	db	79	;'O'
   291  00205D  46                 	db	70	;'F'
   292  00205E  46                 	db	70	;'F'
   293  00205F  21                 	db	33
   294  002060  00                 	db	0
   295  002061                     STR_5:
   296  002061  42                 	db	66	;'B'
   297  002062  6C                 	db	108	;'l'
   298  002063  69                 	db	105	;'i'
   299  002064  6E                 	db	110	;'n'
   300  002065  6B                 	db	107	;'k'
   301  002066  69                 	db	105	;'i'
   302  002067  6E                 	db	110	;'n'
   303  002068  67                 	db	103	;'g'
   304  002069  20                 	db	32
   305  00206A  4C                 	db	76	;'L'
   306  00206B  45                 	db	69	;'E'
   307  00206C  44                 	db	68	;'D'
   308  00206D  20                 	db	32
   309  00206E  69                 	db	105	;'i'
   310  00206F  73                 	db	115	;'s'
   311  002070  20                 	db	32
   312  002071  4F                 	db	79	;'O'
   313  002072  4E                 	db	78	;'N'
   314  002073  21                 	db	33
   315  002074  00                 	db	0
   316  002075                     STR_8:
   317  002075  43                 	db	67	;'C'
   318  002076  75                 	db	117	;'u'
   319  002077  72                 	db	114	;'r'
   320  002078  72                 	db	114	;'r'
   321  002079  65                 	db	101	;'e'
   322  00207A  6E                 	db	110	;'n'
   323  00207B  74                 	db	116	;'t'
   324  00207C  20                 	db	32
   325  00207D  4C                 	db	76	;'L'
   326  00207E  69                 	db	105	;'i'
   327  00207F  6D                 	db	109	;'m'
   328  002080  69                 	db	105	;'i'
   329  002081  74                 	db	116	;'t'
   330  002082  20                 	db	32
   331  002083  73                 	db	115	;'s'
   332  002084  65                 	db	101	;'e'
   333  002085  74                 	db	116	;'t'
   334  002086  21                 	db	33
   335  002087  00                 	db	0
   336  002088                     STR_7:
   337  002088  56                 	db	86	;'V'
   338  002089  6F                 	db	111	;'o'
   339  00208A  6C                 	db	108	;'l'
   340  00208B  74                 	db	116	;'t'
   341  00208C  61                 	db	97	;'a'
   342  00208D  67                 	db	103	;'g'
   343  00208E  65                 	db	101	;'e'
   344  00208F  20                 	db	32
   345  002090  73                 	db	115	;'s'
   346  002091  65                 	db	101	;'e'
   347  002092  74                 	db	116	;'t'
   348  002093  21                 	db	33
   349  002094  00                 	db	0
   350  002095                     STR_10:
   351  002095  49                 	db	73	;'I'
   352  002096  4E                 	db	78	;'N'
   353  002097  46                 	db	70	;'F'
   354  002098  00                 	db	0
   355  002099                     STR_14:
   356  002099  4E                 	db	78	;'N'
   357  00209A  41                 	db	65	;'A'
   358  00209B  4E                 	db	78	;'N'
   359  00209C  00                 	db	0
   360  00209D                     STR_11:
   361  00209D  69                 	db	105	;'i'
   362  00209E  6E                 	db	110	;'n'
   363  00209F  66                 	db	102	;'f'
   364  0020A0  00                 	db	0
   365  0020A1                     STR_15:
   366  0020A1  6E                 	db	110	;'n'
   367  0020A2  61                 	db	97	;'a'
   368  0020A3  6E                 	db	110	;'n'
   369  0020A4  00                 	db	0
   370  0020A5                     STR_18:
   371  0020A5  6C                 	db	108	;'l'
   372  0020A6  66                 	db	102	;'f'
   373  0020A7  00                 	db	0
   374  0020A8                     STR_1:
   375  0020A8  25                 	db	37
   376  0020A9  66                 	db	102	;'f'
   377  0020AA  00                 	db	0
   378  0000                     
   379                           ; #config settings
   380  0020AB  00                 	db	0	; dummy byte at the end
   381  0000                     
   382                           	psect	cinit
   383  004B90                     __pcinit:
   384                           	opt callstack 0
   385  004B90                     start_initialization:
   386                           	opt callstack 0
   387  004B90                     __initialization:
   388                           	opt callstack 0
   389                           
   390                           ; Initialize objects allocated to BANK0 (1 bytes)
   391                           ; load TBLPTR registers with __pidataBANK0
   392  004B90  0E7B               	movlw	low __pidataBANK0
   393  004B92  6EF6               	movwf	tblptrl,c
   394  004B94  0E4F               	movlw	high __pidataBANK0
   395  004B96  6EF7               	movwf	tblptrh,c
   396  004B98  0E00               	movlw	low (__pidataBANK0 shr (0+16))
   397  004B9A  6EF8               	movwf	tblptru,c
   398  004B9C  0009               	tblrd		*+	;fetch initializer
   399  004B9E  006F FFD4  F0FD    	movff	tablat,__pdataBANK0
   400                           
   401                           ; Initialize objects allocated to COMRAM (1 bytes)
   402                           ; load TBLPTR registers with __pidataCOMRAM
   403  004BA4  0E7A               	movlw	low __pidataCOMRAM
   404  004BA6  6EF6               	movwf	tblptrl,c
   405  004BA8  0E4F               	movlw	high __pidataCOMRAM
   406  004BAA  6EF7               	movwf	tblptrh,c
   407  004BAC  0E00               	movlw	low (__pidataCOMRAM shr (0+16))
   408  004BAE  6EF8               	movwf	tblptru,c
   409  004BB0  0009               	tblrd		*+	;fetch initializer
   410  004BB2  006F FFD4  F04C    	movff	tablat,__pdataCOMRAM
   411                           
   412                           ; Clear objects allocated to BANK1 (167 bytes)
   413  004BB8  EE00  F100         	lfsr	0,__pbssBANK1
   414  004BBC  0EA7               	movlw	167
   415  004BBE                     clear_0:
   416  004BBE  6AEE               	clrf	postinc0,c
   417  004BC0  06E8               	decf	wreg,f,c
   418  004BC2  E1FD               	bnz	clear_0
   419                           
   420                           ; Clear objects allocated to BANK0 (42 bytes)
   421  004BC4  EE00  F0D3         	lfsr	0,__pbssBANK0
   422  004BC8  0E2A               	movlw	42
   423  004BCA                     clear_1:
   424  004BCA  6AEE               	clrf	postinc0,c
   425  004BCC  06E8               	decf	wreg,f,c
   426  004BCE  E1FD               	bnz	clear_1
   427                           
   428                           ; Clear objects allocated to COMRAM (15 bytes)
   429  004BD0  EE00  F03D         	lfsr	0,__pbssCOMRAM
   430  004BD4  0E0F               	movlw	15
   431  004BD6                     clear_2:
   432  004BD6  6AEE               	clrf	postinc0,c
   433  004BD8  06E8               	decf	wreg,f,c
   434  004BDA  E1FD               	bnz	clear_2
   435                           
   436                           ;
   437                           ; Setup IVTBASE
   438                           ;
   439  004BDC  0E08               	movlw	(ivt0x8_base shr 0)& (0+255)
   440  004BDE  6ED5               	movwf	213,c
   441  004BE0  0E00               	movlw	(ivt0x8_base shr (0+8))& (0+255)
   442  004BE2  6ED6               	movwf	214,c
   443  004BE4  0E00               	movlw	(ivt0x8_base shr (0+16))& (0+255)
   444  004BE6  6ED7               	movwf	215,c
   445  004BE8                     end_of_initialization:
   446                           	opt callstack 0
   447  004BE8                     __end_of__initialization:
   448                           	opt callstack 0
   449  004BE8  0100               	movlb	0
   450  004BEA  EFFE  F021         	goto	_main	;jump to C main() function
   451                           
   452                           	psect	bssCOMRAM
   453  00003D                     __pbssCOMRAM:
   454                           	opt callstack 0
   455  00003D                     ___fpclassifyf@F463:
   456                           	opt callstack 0
   457  00003D                     	ds	4
   458  000041                     _width:
   459                           	opt callstack 0
   460  000041                     	ds	2
   461  000043                     _prec:
   462                           	opt callstack 0
   463  000043                     	ds	2
   464  000045                     _flags:
   465                           	opt callstack 0
   466  000045                     	ds	2
   467  000047                     _counter_timer0:
   468                           	opt callstack 0
   469  000047                     	ds	1
   470  000048                     _I2C_RX_COUNTER:
   471                           	opt callstack 0
   472  000048                     	ds	1
   473  000049                     _I2C_TX_COUNTER:
   474                           	opt callstack 0
   475  000049                     	ds	1
   476  00004A                     _tx_byte:
   477                           	opt callstack 0
   478  00004A                     	ds	1
   479  00004B                     _rx_counter:
   480                           	opt callstack 0
   481  00004B                     	ds	1
   482                           
   483                           	psect	dataCOMRAM
   484  00004C                     __pdataCOMRAM:
   485                           	opt callstack 0
   486  00004C                     _measur_vol_or_cur:
   487                           	opt callstack 0
   488  00004C                     	ds	1
   489                           
   490                           	psect	bssBANK0
   491  0000D3                     __pbssBANK0:
   492                           	opt callstack 0
   493  0000D3                     _I2C_RX_BUFFER:
   494                           	opt callstack 0
   495  0000D3                     	ds	10
   496  0000DD                     _I2C_TX_BUFFER:
   497                           	opt callstack 0
   498  0000DD                     	ds	10
   499  0000E7                     floorf@F524:
   500                           	opt callstack 0
   501  0000E7                     	ds	4
   502  0000EB                     _ADC_CURRENT_RESULT:
   503                           	opt callstack 0
   504  0000EB                     	ds	4
   505  0000EF                     _ADC_VOLTAGE_RESULT:
   506                           	opt callstack 0
   507  0000EF                     	ds	4
   508  0000F3                     _nout:
   509                           	opt callstack 0
   510  0000F3                     	ds	2
   511  0000F5                     _COMMAND_WRITE_NUMBER:
   512                           	opt callstack 0
   513  0000F5                     	ds	2
   514  0000F7                     _led_enable:
   515                           	opt callstack 0
   516  0000F7                     	ds	1
   517  0000F8                     _I2C_STOP_DETECTED:
   518                           	opt callstack 0
   519  0000F8                     	ds	1
   520  0000F9                     _COMMAND:
   521                           	opt callstack 0
   522  0000F9                     	ds	1
   523  0000FA                     _COMMAND_WR:
   524                           	opt callstack 0
   525  0000FA                     	ds	1
   526  0000FB                     _AD5272_COMMANDS:
   527                           	opt callstack 0
   528  0000FB                     	ds	2
   529                           
   530                           	psect	dataBANK0
   531  0000FD                     __pdataBANK0:
   532                           	opt callstack 0
   533  0000FD                     _AD5272_VOLTAGE_ADDRESS:
   534                           	opt callstack 0
   535  0000FD                     	ds	1
   536                           
   537                           	psect	bssBANK1
   538  000100                     __pbssBANK1:
   539                           	opt callstack 0
   540  000100                     _rx_buffer:
   541                           	opt callstack 0
   542  000100                     	ds	32
   543  000120                     _dbuf:
   544                           	opt callstack 0
   545  000120                     	ds	80
   546  000170                     _tx_buffer:
   547                           	opt callstack 0
   548  000170                     	ds	55
   549                           
   550                           	psect	cstackBANK1
   551  0001A7                     __pcstackBANK1:
   552                           	opt callstack 0
   553  0001A7                     	ds	2
   554  0001A9                     sprintf@ap:
   555                           	opt callstack 0
   556                           
   557                           ; 2 bytes @ 0x2
   558  0001A9                     	ds	2
   559  0001AB                     sprintf@f:
   560                           	opt callstack 0
   561                           
   562                           ; 6 bytes @ 0x4
   563  0001AB                     	ds	6
   564                           
   565                           	psect	cstackBANK0
   566  000060                     __pcstackBANK0:
   567                           	opt callstack 0
   568  000060                     floorf@m:
   569                           	opt callstack 0
   570                           
   571                           ; 4 bytes @ 0x0
   572  000060                     	ds	4
   573  000064                     floorf@e:
   574                           	opt callstack 0
   575                           
   576                           ; 2 bytes @ 0x4
   577  000064                     	ds	2
   578  000066                     floorf@u:
   579                           	opt callstack 0
   580                           
   581                           ; 4 bytes @ 0x6
   582  000066                     	ds	4
   583  00006A                     ?_efgtoa:
   584                           	opt callstack 0
   585  00006A                     efgtoa@fp:
   586                           	opt callstack 0
   587                           
   588                           ; 2 bytes @ 0xA
   589  00006A                     	ds	2
   590  00006C                     efgtoa@f:
   591                           	opt callstack 0
   592                           
   593                           ; 4 bytes @ 0xC
   594  00006C                     	ds	4
   595  000070                     efgtoa@c:
   596                           	opt callstack 0
   597                           
   598                           ; 1 bytes @ 0x10
   599  000070                     	ds	1
   600  000071                     ??_efgtoa:
   601                           
   602                           ; 1 bytes @ 0x11
   603  000071                     	ds	5
   604  000076                     efgtoa@ou:
   605                           	opt callstack 0
   606                           
   607                           ; 4 bytes @ 0x16
   608  000076                     	ds	4
   609  00007A                     _efgtoa$1655:
   610                           	opt callstack 0
   611                           
   612                           ; 2 bytes @ 0x1A
   613  00007A                     	ds	2
   614  00007C                     _efgtoa$1656:
   615                           	opt callstack 0
   616                           
   617                           ; 2 bytes @ 0x1C
   618  00007C                     	ds	2
   619  00007E                     _efgtoa$1661:
   620                           	opt callstack 0
   621                           
   622                           ; 2 bytes @ 0x1E
   623  00007E                     	ds	2
   624  000080                     _efgtoa$1665:
   625                           	opt callstack 0
   626                           
   627                           ; 2 bytes @ 0x20
   628  000080                     	ds	2
   629  000082                     _efgtoa$1666:
   630                           	opt callstack 0
   631                           
   632                           ; 2 bytes @ 0x22
   633  000082                     	ds	2
   634  000084                     _efgtoa$1667:
   635                           	opt callstack 0
   636                           
   637                           ; 2 bytes @ 0x24
   638  000084                     	ds	2
   639  000086                     efgtoa@t:
   640                           	opt callstack 0
   641                           
   642                           ; 2 bytes @ 0x26
   643  000086                     	ds	2
   644  000088                     efgtoa@pp:
   645                           	opt callstack 0
   646                           
   647                           ; 2 bytes @ 0x28
   648  000088                     	ds	2
   649  00008A                     efgtoa@m:
   650                           	opt callstack 0
   651                           
   652                           ; 2 bytes @ 0x2A
   653  00008A                     	ds	2
   654  00008C                     efgtoa@ne:
   655                           	opt callstack 0
   656                           
   657                           ; 2 bytes @ 0x2C
   658  00008C                     	ds	2
   659  00008E                     efgtoa@d:
   660                           	opt callstack 0
   661                           
   662                           ; 2 bytes @ 0x2E
   663  00008E                     	ds	2
   664  000090                     efgtoa@sign:
   665                           	opt callstack 0
   666                           
   667                           ; 2 bytes @ 0x30
   668  000090                     	ds	2
   669  000092                     efgtoa@p:
   670                           	opt callstack 0
   671                           
   672                           ; 2 bytes @ 0x32
   673  000092                     	ds	2
   674  000094                     efgtoa@nmode:
   675                           	opt callstack 0
   676                           
   677                           ; 1 bytes @ 0x34
   678  000094                     	ds	1
   679  000095                     efgtoa@w:
   680                           	opt callstack 0
   681                           
   682                           ; 2 bytes @ 0x35
   683  000095                     	ds	2
   684  000097                     efgtoa@mode:
   685                           	opt callstack 0
   686                           
   687                           ; 1 bytes @ 0x37
   688  000097                     	ds	1
   689  000098                     efgtoa@h:
   690                           	opt callstack 0
   691                           
   692                           ; 4 bytes @ 0x38
   693  000098                     	ds	4
   694  00009C                     efgtoa@l:
   695                           	opt callstack 0
   696                           
   697                           ; 4 bytes @ 0x3C
   698  00009C                     	ds	4
   699  0000A0                     efgtoa@i:
   700                           	opt callstack 0
   701                           
   702                           ; 2 bytes @ 0x40
   703  0000A0                     	ds	2
   704  0000A2                     efgtoa@g:
   705                           	opt callstack 0
   706                           
   707                           ; 4 bytes @ 0x42
   708  0000A2                     	ds	4
   709  0000A6                     efgtoa@e:
   710                           	opt callstack 0
   711                           
   712                           ; 2 bytes @ 0x46
   713  0000A6                     	ds	2
   714  0000A8                     efgtoa@n:
   715                           	opt callstack 0
   716                           
   717                           ; 2 bytes @ 0x48
   718  0000A8                     	ds	2
   719  0000AA                     efgtoa@u:
   720                           	opt callstack 0
   721                           
   722                           ; 4 bytes @ 0x4A
   723  0000AA                     	ds	4
   724  0000AE                     ?_vfpfcnvrt:
   725                           	opt callstack 0
   726  0000AE                     vfpfcnvrt@fp:
   727                           	opt callstack 0
   728                           
   729                           ; 2 bytes @ 0x4E
   730  0000AE                     	ds	2
   731  0000B0                     vfpfcnvrt@fmt:
   732                           	opt callstack 0
   733                           
   734                           ; 2 bytes @ 0x50
   735  0000B0                     	ds	2
   736  0000B2                     vfpfcnvrt@ap:
   737                           	opt callstack 0
   738                           
   739                           ; 2 bytes @ 0x52
   740  0000B2                     	ds	2
   741  0000B4                     _vfpfcnvrt$1684:
   742                           	opt callstack 0
   743                           
   744                           ; 2 bytes @ 0x54
   745  0000B4                     	ds	2
   746  0000B6                     vfpfcnvrt@f:
   747                           	opt callstack 0
   748                           
   749                           ; 4 bytes @ 0x56
   750  0000B6                     	ds	4
   751  0000BA                     vfpfcnvrt@ct:
   752                           	opt callstack 0
   753                           
   754                           ; 3 bytes @ 0x5A
   755  0000BA                     	ds	3
   756  0000BD                     vfpfcnvrt@c:
   757                           	opt callstack 0
   758                           
   759                           ; 1 bytes @ 0x5D
   760  0000BD                     	ds	1
   761  0000BE                     ?_vfprintf:
   762                           	opt callstack 0
   763  0000BE                     vfprintf@fp:
   764                           	opt callstack 0
   765                           
   766                           ; 2 bytes @ 0x5E
   767  0000BE                     	ds	2
   768  0000C0                     vfprintf@fmt:
   769                           	opt callstack 0
   770                           
   771                           ; 2 bytes @ 0x60
   772  0000C0                     	ds	2
   773  0000C2                     vfprintf@ap:
   774                           	opt callstack 0
   775                           
   776                           ; 2 bytes @ 0x62
   777  0000C2                     	ds	2
   778  0000C4                     vfprintf@cfmt:
   779                           	opt callstack 0
   780                           
   781                           ; 2 bytes @ 0x64
   782  0000C4                     	ds	2
   783  0000C6                     ?_sprintf:
   784                           	opt callstack 0
   785  0000C6                     sprintf@s:
   786                           	opt callstack 0
   787                           
   788                           ; 2 bytes @ 0x66
   789  0000C6                     	ds	2
   790  0000C8                     sprintf@fmt:
   791                           	opt callstack 0
   792                           
   793                           ; 2 bytes @ 0x68
   794  0000C8                     	ds	6
   795  0000CE                     ??_UART_handler:
   796                           
   797                           ; 1 bytes @ 0x6E
   798  0000CE                     	ds	2
   799  0000D0                     ??_main:
   800                           
   801                           ; 1 bytes @ 0x70
   802  0000D0                     	ds	2
   803  0000D2                     main@receive_command:
   804                           	opt callstack 0
   805                           
   806                           ; 1 bytes @ 0x72
   807  0000D2                     	ds	1
   808                           
   809                           	psect	cstackCOMRAM
   810  000001                     __pcstackCOMRAM:
   811                           	opt callstack 0
   812  000001                     ADC_Start@pin:
   813                           	opt callstack 0
   814  000001                     
   815                           ; 1 bytes @ 0x0
   816  000001                     	ds	1
   817  000002                     ?___xxtofl:
   818                           	opt callstack 0
   819  000002                     ___xxtofl@val:
   820                           	opt callstack 0
   821                           
   822                           ; 4 bytes @ 0x1
   823  000002                     	ds	4
   824  000006                     ??___xxtofl:
   825                           
   826                           ; 1 bytes @ 0x5
   827  000006                     	ds	4
   828  00000A                     ___xxtofl@sign:
   829                           	opt callstack 0
   830                           
   831                           ; 1 bytes @ 0x9
   832  00000A                     	ds	1
   833  00000B                     ___xxtofl@exp:
   834                           	opt callstack 0
   835                           
   836                           ; 1 bytes @ 0xA
   837  00000B                     	ds	1
   838  00000C                     ___xxtofl@arg:
   839                           	opt callstack 0
   840                           
   841                           ; 4 bytes @ 0xB
   842  00000C                     	ds	4
   843  000010                     ??_ADC_ISR:
   844                           
   845                           ; 1 bytes @ 0xF
   846  000010                     	ds	2
   847  000012                     ADC_ISR@adc_result:
   848                           	opt callstack 0
   849                           
   850                           ; 2 bytes @ 0x11
   851  000012                     	ds	2
   852  000014                     ??_UART1_Init:
   853  000014                     ?_GetStringSize:
   854                           	opt callstack 0
   855  000014                     ?_strlen:
   856                           	opt callstack 0
   857  000014                     ?___fpclassifyf:
   858                           	opt callstack 0
   859  000014                     ?_isupper:
   860                           	opt callstack 0
   861  000014                     ?_strncmp:
   862                           	opt callstack 0
   863  000014                     ?___wmul:
   864                           	opt callstack 0
   865  000014                     ?___awdiv:
   866                           	opt callstack 0
   867  000014                     ?___awmod:
   868                           	opt callstack 0
   869  000014                     ?___fladd:
   870                           	opt callstack 0
   871  000014                     ?___fldiv:
   872                           	opt callstack 0
   873  000014                     ?___flmul:
   874                           	opt callstack 0
   875  000014                     ?___flneg:
   876                           	opt callstack 0
   877  000014                     ?___fltol:
   878                           	opt callstack 0
   879  000014                     UART1_SendByte@byte:
   880                           	opt callstack 0
   881  000014                     memset@st:
   882                           	opt callstack 0
   883  000014                     I2C_Transmit@buffer:
   884                           	opt callstack 0
   885  000014                     ___wmul@multiplier:
   886                           	opt callstack 0
   887  000014                     ___awdiv@dividend:
   888                           	opt callstack 0
   889  000014                     ___awmod@dividend:
   890                           	opt callstack 0
   891  000014                     isupper@c:
   892                           	opt callstack 0
   893  000014                     fputc@c:
   894                           	opt callstack 0
   895  000014                     strcpy@dest:
   896                           	opt callstack 0
   897  000014                     strlen@s:
   898                           	opt callstack 0
   899  000014                     strncmp@_l:
   900                           	opt callstack 0
   901  000014                     ___fleq@ff1:
   902                           	opt callstack 0
   903  000014                     ___flneg@f1:
   904                           	opt callstack 0
   905  000014                     ___fltol@f1:
   906                           	opt callstack 0
   907  000014                     ___fladd@b:
   908                           	opt callstack 0
   909  000014                     ___fldiv@b:
   910                           	opt callstack 0
   911  000014                     ___flmul@b:
   912                           	opt callstack 0
   913  000014                     ___fpclassifyf@x:
   914                           	opt callstack 0
   915                           
   916                           ; 4 bytes @ 0x13
   917  000014                     	ds	2
   918  000016                     ??_isupper:
   919  000016                     memset@x:
   920                           	opt callstack 0
   921  000016                     I2C_Transmit@buffer_size:
   922                           	opt callstack 0
   923  000016                     UART1_Init@baud_rate:
   924                           	opt callstack 0
   925  000016                     GetStringSize@i:
   926                           	opt callstack 0
   927  000016                     ___wmul@multiplicand:
   928                           	opt callstack 0
   929  000016                     ___awdiv@divisor:
   930                           	opt callstack 0
   931  000016                     ___awmod@divisor:
   932                           	opt callstack 0
   933  000016                     fputc@fp:
   934                           	opt callstack 0
   935  000016                     strcpy@src:
   936                           	opt callstack 0
   937  000016                     strlen@a:
   938                           	opt callstack 0
   939  000016                     strncmp@_r:
   940                           	opt callstack 0
   941                           
   942                           ; 2 bytes @ 0x15
   943  000016                     	ds	1
   944  000017                     I2C_Transmit@address:
   945                           	opt callstack 0
   946  000017                     memset@size:
   947                           	opt callstack 0
   948                           
   949                           ; 2 bytes @ 0x16
   950  000017                     	ds	1
   951  000018                     ??_I2C_Transmit:
   952  000018                     ??_fputc:
   953  000018                     ??___fpclassifyf:
   954  000018                     ??_strcpy:
   955  000018                     ??___fltol:
   956  000018                     ___awdiv@counter:
   957                           	opt callstack 0
   958  000018                     ___awmod@counter:
   959                           	opt callstack 0
   960  000018                     UART1_SendString@str:
   961                           	opt callstack 0
   962  000018                     ___wmul@product:
   963                           	opt callstack 0
   964  000018                     strncmp@n:
   965                           	opt callstack 0
   966  000018                     ___fleq@ff2:
   967                           	opt callstack 0
   968  000018                     ___fladd@a:
   969                           	opt callstack 0
   970  000018                     ___fldiv@a:
   971                           	opt callstack 0
   972  000018                     ___flmul@a:
   973                           	opt callstack 0
   974                           
   975                           ; 4 bytes @ 0x17
   976  000018                     	ds	1
   977  000019                     ??_memset:
   978  000019                     ___awdiv@sign:
   979                           	opt callstack 0
   980  000019                     ___awmod@sign:
   981                           	opt callstack 0
   982                           
   983                           ; 1 bytes @ 0x18
   984  000019                     	ds	1
   985  00001A                     ??_UART1_ReceiveCommand:
   986  00001A                     ??_strncmp:
   987  00001A                     ?_tolower:
   988                           	opt callstack 0
   989  00001A                     memset@i:
   990                           	opt callstack 0
   991  00001A                     UART1_SendString@size:
   992                           	opt callstack 0
   993  00001A                     ___awdiv@quotient:
   994                           	opt callstack 0
   995  00001A                     strcpy@s:
   996                           	opt callstack 0
   997  00001A                     tolower@c:
   998                           	opt callstack 0
   999                           
  1000                           ; 2 bytes @ 0x19
  1001  00001A                     	ds	1
  1002  00001B                     strncmp@l:
  1003                           	opt callstack 0
  1004                           
  1005                           ; 2 bytes @ 0x1A
  1006  00001B                     	ds	1
  1007  00001C                     ??_tolower:
  1008  00001C                     ??___fladd:
  1009  00001C                     ??___fldiv:
  1010  00001C                     ??___flmul:
  1011  00001C                     ??___fleq:
  1012  00001C                     ___fltol@sign1:
  1013                           	opt callstack 0
  1014  00001C                     UART1_SendString@i:
  1015                           	opt callstack 0
  1016  00001C                     ___fpclassifyf@e:
  1017                           	opt callstack 0
  1018  00001C                     strcpy@d:
  1019                           	opt callstack 0
  1020                           
  1021                           ; 2 bytes @ 0x1B
  1022  00001C                     	ds	1
  1023  00001D                     ___fltol@exp1:
  1024                           	opt callstack 0
  1025  00001D                     fputs@s:
  1026                           	opt callstack 0
  1027  00001D                     strncmp@r:
  1028                           	opt callstack 0
  1029                           
  1030                           ; 2 bytes @ 0x1C
  1031  00001D                     	ds	1
  1032  00001E                     UART1_SendString@attempts:
  1033                           	opt callstack 0
  1034  00001E                     ___fpclassifyf@u:
  1035                           	opt callstack 0
  1036                           
  1037                           ; 4 bytes @ 0x1D
  1038  00001E                     	ds	1
  1039  00001F                     I2C_Transmit@i:
  1040                           	opt callstack 0
  1041  00001F                     fputs@fp:
  1042                           	opt callstack 0
  1043                           
  1044                           ; 2 bytes @ 0x1E
  1045  00001F                     	ds	1
  1046  000020                     ___fladd@signs:
  1047                           	opt callstack 0
  1048  000020                     ___flmul@sign:
  1049                           	opt callstack 0
  1050  000020                     I2C_handler@value:
  1051                           	opt callstack 0
  1052  000020                     _tolower$2239:
  1053                           	opt callstack 0
  1054  000020                     ___fldiv@rem:
  1055                           	opt callstack 0
  1056                           
  1057                           ; 4 bytes @ 0x1F
  1058  000020                     	ds	1
  1059  000021                     ___fladd@aexp:
  1060                           	opt callstack 0
  1061  000021                     ___flmul@aexp:
  1062                           	opt callstack 0
  1063  000021                     fputs@c:
  1064                           	opt callstack 0
  1065                           
  1066                           ; 1 bytes @ 0x20
  1067  000021                     	ds	1
  1068  000022                     ___fladd@bexp:
  1069                           	opt callstack 0
  1070  000022                     fputs@i:
  1071                           	opt callstack 0
  1072  000022                     ___flmul@grs:
  1073                           	opt callstack 0
  1074                           
  1075                           ; 4 bytes @ 0x21
  1076  000022                     	ds	1
  1077  000023                     ___fladd@grs:
  1078                           	opt callstack 0
  1079                           
  1080                           ; 1 bytes @ 0x22
  1081  000023                     	ds	1
  1082  000024                     ?_pad:
  1083                           	opt callstack 0
  1084  000024                     ___fldiv@sign:
  1085                           	opt callstack 0
  1086  000024                     pad@fp:
  1087                           	opt callstack 0
  1088                           
  1089                           ; 2 bytes @ 0x23
  1090  000024                     	ds	1
  1091  000025                     ___fldiv@new_exp:
  1092                           	opt callstack 0
  1093                           
  1094                           ; 2 bytes @ 0x24
  1095  000025                     	ds	1
  1096  000026                     ___flmul@bexp:
  1097                           	opt callstack 0
  1098  000026                     pad@buf:
  1099                           	opt callstack 0
  1100                           
  1101                           ; 2 bytes @ 0x25
  1102  000026                     	ds	1
  1103  000027                     ___fldiv@grs:
  1104                           	opt callstack 0
  1105  000027                     ___flmul@prod:
  1106                           	opt callstack 0
  1107                           
  1108                           ; 4 bytes @ 0x26
  1109  000027                     	ds	1
  1110  000028                     pad@p:
  1111                           	opt callstack 0
  1112                           
  1113                           ; 2 bytes @ 0x27
  1114  000028                     	ds	2
  1115  00002A                     ??_pad:
  1116                           
  1117                           ; 1 bytes @ 0x29
  1118  00002A                     	ds	1
  1119  00002B                     ___fldiv@bexp:
  1120                           	opt callstack 0
  1121  00002B                     pad@i:
  1122                           	opt callstack 0
  1123  00002B                     ___flmul@temp:
  1124                           	opt callstack 0
  1125                           
  1126                           ; 2 bytes @ 0x2A
  1127  00002B                     	ds	1
  1128  00002C                     ___fldiv@aexp:
  1129                           	opt callstack 0
  1130                           
  1131                           ; 1 bytes @ 0x2B
  1132  00002C                     	ds	1
  1133  00002D                     ?_floorf:
  1134                           	opt callstack 0
  1135  00002D                     ?___flsub:
  1136                           	opt callstack 0
  1137  00002D                     pad@w:
  1138                           	opt callstack 0
  1139  00002D                     ___flge@ff1:
  1140                           	opt callstack 0
  1141  00002D                     ___flsub@b:
  1142                           	opt callstack 0
  1143  00002D                     floorf@x:
  1144                           	opt callstack 0
  1145                           
  1146                           ; 4 bytes @ 0x2C
  1147  00002D                     	ds	4
  1148  000031                     ??_floorf:
  1149  000031                     ___flge@ff2:
  1150                           	opt callstack 0
  1151  000031                     ___flsub@a:
  1152                           	opt callstack 0
  1153                           
  1154                           ; 4 bytes @ 0x30
  1155  000031                     	ds	4
  1156  000035                     ??___flge:
  1157                           
  1158                           ; 1 bytes @ 0x34
  1159  000035                     	ds	4
  1160  000039                     ??_vfpfcnvrt:
  1161                           
  1162                           ; 1 bytes @ 0x38
  1163  000039                     	ds	4
  1164  00003D                     
  1165                           ; 1 bytes @ 0x3C
  1166 ;;
  1167 ;;Main: autosize = 0, tempsize = 2, incstack = 0, save=0
  1168 ;;
  1169 ;; *************** function _main *****************
  1170 ;; Defined at:
  1171 ;;		line 127 in file "main.c"
  1172 ;; Parameters:    Size  Location     Type
  1173 ;;		None
  1174 ;; Auto vars:     Size  Location     Type
  1175 ;;  receive_comm    1  114[BANK0 ] unsigned char 
  1176 ;; Return value:  Size  Location     Type
  1177 ;;                  1    wreg      void 
  1178 ;; Registers used:
  1179 ;;		wreg, fsr1l, fsr1h, fsr2l, fsr2h, status,2, status,0, tblptrl, tblptrh, tblptru, prodl, prodh, cstack
  1180 ;; Tracked objects:
  1181 ;;		On entry : 0/0
  1182 ;;		On exit  : 0/0
  1183 ;;		Unchanged: 0/0
  1184 ;; Data sizes:     COMRAM   BANK0   BANK1   BANK2   BANK3   BANK4   BANK5   BANK6   BANK7   BANK8   BANK9  BANK10  BANK1
      +1  BANK12  BANK13  BANK14  BANK15  BANK16  BANK17  BANK18  BANK19  BANK20  BANK21  BANK22  BANK23  BANK24  BANK25  BANK2
      +6  BANK27  BANK28  BANK29  BANK30  BANK31
  1185 ;;      Params:         0       0       0       0       0       0       0       0       0       0       0       0       
      +0       0       0       0       0       0       0       0       0       0       0       0       0       0       0       
      +0       0       0       0       0       0
  1186 ;;      Locals:         0       1       0       0       0       0       0       0       0       0       0       0       
      +0       0       0       0       0       0       0       0       0       0       0       0       0       0       0       
      +0       0       0       0       0       0
  1187 ;;      Temps:          0       2       0       0       0       0       0       0       0       0       0       0       
      +0       0       0       0       0       0       0       0       0       0       0       0       0       0       0       
      +0       0       0       0       0       0
  1188 ;;      Totals:         0       3       0       0       0       0       0       0       0       0       0       0       
      +0       0       0       0       0       0       0       0       0       0       0       0       0       0       0       
      +0       0       0       0       0       0
  1189 ;;Total ram usage:        3 bytes
  1190 ;; Hardware stack levels required when called:   11
  1191 ;; This function calls:
  1192 ;;		_ADC_Init
  1193 ;;		_I2C_Init
  1194 ;;		_I2C_Transmit
  1195 ;;		_UART1_Init
  1196 ;;		_UART1_ReceiveCommand
  1197 ;;		_UART_handler
  1198 ;;		_timer0_init
  1199 ;; This function is called by:
  1200 ;;		Startup code after reset
  1201 ;; This function uses a non-reentrant model
  1202 ;;
  1203                           
  1204                           	psect	text0
  1205  0043FC                     __ptext0:
  1206                           	opt callstack 0
  1207  0043FC                     _main:
  1208                           	opt callstack 20
  1209                           
  1210                           ;main.c: 128:     OSCFRQ = 0x08;
  1211                           
  1212                           ;incstack = 0
  1213  0043FC  0E08               	movlw	8
  1214  0043FE  0139               	movlb	57	; () banked
  1215  004400  6FDF               	movwf	223,b	;volatile
  1216                           
  1217                           ;main.c: 129:     OSCTUNE = 0x00;
  1218  004402  0E00               	movlw	0
  1219  004404  6FDE               	movwf	222,b	;volatile
  1220                           
  1221                           ;main.c: 130:     OSCEN = 0x40;
  1222  004406  0E40               	movlw	64
  1223  004408  6FDD               	movwf	221,b	;volatile
  1224  00440A                     l201:
  1225                           
  1226                           ; BSR set to: 57
  1227  00440A  BDDC               	btfsc	220,6,b	;volatile
  1228  00440C  D002               	goto	u8140
  1229                           
  1230                           ; BSR set to: 57
  1231  00440E  A5DC               	btfss	220,2,b	;volatile
  1232  004410  D7FC               	goto	l201
  1233  004412                     u8140:
  1234                           
  1235                           ; BSR set to: 57
  1236                           ;main.c: 137:     IVTLOCK = 0x01;
  1237  004412  0E01               	movlw	1
  1238  004414  6ED4               	movwf	16340,c	;volatile
  1239                           
  1240                           ;main.c: 140:     WDTCON1 = 0x07;
  1241  004416  0E07               	movlw	7
  1242  004418  6F5C               	movwf	92,b	;volatile
  1243                           
  1244                           ;main.c: 141:     WDTCON0 = 0x3F;
  1245  00441A  0E3F               	movlw	63
  1246  00441C  6F5B               	movwf	91,b	;volatile
  1247                           
  1248                           ; BSR set to: 57
  1249                           ;main.c: 144:     PPSLOCKbits.PPSLOCKED = 0;
  1250  00441E  013A               	movlb	58	; () banked
  1251  004420  91BF               	bcf	191,0,b	;volsfr
  1252                           
  1253                           ; BSR set to: 58
  1254                           ;main.c: 147:     timer0_init();
  1255  004422  EC5F  F027         	call	_timer0_init	;wreg free
  1256                           
  1257                           ;main.c: 148:     UART1_Init(1);
  1258  004426  0E01               	movlw	1
  1259  004428  EC7B  F024         	call	_UART1_Init
  1260                           
  1261                           ;main.c: 149:     ADC_Init();
  1262  00442C  EC4E  F027         	call	_ADC_Init	;wreg free
  1263                           
  1264                           ;main.c: 150:     I2C_Init();
  1265  004430  EC2D  F025         	call	_I2C_Init	;wreg free
  1266                           
  1267                           ;main.c: 152:     INTCON0bits.GIEH = 1;
  1268  004434  8ED2               	bsf	16338,7,c	;volatile
  1269                           
  1270                           ;main.c: 153:     INTCON0bits.GIEL = 1;
  1271  004436  8CD2               	bsf	16338,6,c	;volatile
  1272                           
  1273                           ;main.c: 154:     INTCON0bits.IPEN = 1;
  1274  004438  8AD2               	bsf	16338,5,c	;volatile
  1275                           
  1276                           ;main.c: 157:     TRISAbits.TRISA0 = 0;
  1277  00443A  90C2               	bcf	16322,0,c	;volatile
  1278                           
  1279                           ;main.c: 158:     ANSELAbits.ANSELA0 = 1;
  1280  00443C  013A               	movlb	58	; () banked
  1281  00443E  8140               	bsf	64,0,b	;volatile
  1282                           
  1283                           ; BSR set to: 58
  1284                           ;main.c: 159:     led_enable = 1;
  1285  004440  0E01               	movlw	1
  1286  004442  0100               	movlb	0	; () banked
  1287  004444  6FF7               	movwf	_led_enable& (0+255),b
  1288                           
  1289                           ; BSR set to: 0
  1290                           ;main.c: 161:     TRISAbits.TRISA1 = 0;
  1291  004446  92C2               	bcf	16322,1,c	;volatile
  1292                           
  1293                           ; BSR set to: 0
  1294                           ;main.c: 162:     ANSELAbits.ANSELA1 = 1;
  1295  004448  013A               	movlb	58	; () banked
  1296  00444A  8340               	bsf	64,1,b	;volatile
  1297                           
  1298                           ; BSR set to: 58
  1299                           ;main.c: 163:     LATAbits.LA1 = 0;
  1300  00444C  92BA               	bcf	16314,1,c	;volatile
  1301                           
  1302                           ; BSR set to: 58
  1303                           ;main.c: 165:     TRISBbits.TRISB2 = 0;
  1304  00444E  94C3               	bcf	16323,2,c	;volatile
  1305                           
  1306                           ; BSR set to: 58
  1307                           ;main.c: 166:     TRISBbits.TRISB3 = 0;
  1308  004450  96C3               	bcf	16323,3,c	;volatile
  1309                           
  1310                           ; BSR set to: 58
  1311                           ;main.c: 167:     LATBbits.LB2 = 1;
  1312  004452  84BB               	bsf	16315,2,c	;volatile
  1313                           
  1314                           ; BSR set to: 58
  1315                           ;main.c: 168:     LATBbits.LB3 = 1;
  1316  004454  86BB               	bsf	16315,3,c	;volatile
  1317                           
  1318                           ; BSR set to: 58
  1319                           ;main.c: 170:     _delay((unsigned long)((2000)*(64000000/4000.0)));
  1320  004456  0EA3               	movlw	163
  1321  004458  0100               	movlb	0	; () banked
  1322  00445A  6FD1               	movwf	(??_main+1)& (0+255),b
  1323  00445C  0E57               	movlw	87
  1324  00445E  6FD0               	movwf	??_main& (0+255),b
  1325  004460  0E02               	movlw	2
  1326  004462                     u8177:
  1327  004462  2EE8               	decfsz	wreg,f,c
  1328  004464  D7FE               	bra	u8177
  1329  004466  2FD0               	decfsz	??_main& (0+255),f,b
  1330  004468  D7FC               	bra	u8177
  1331  00446A  2FD1               	decfsz	(??_main+1)& (0+255),f,b
  1332  00446C  D7FA               	bra	u8177
  1333  00446E  F000               	nop	
  1334                           
  1335                           ;main.c: 172:     AD5272_COMMANDS[0] = 0x1C;
  1336  004470  0E1C               	movlw	28
  1337  004472  0100               	movlb	0	; () banked
  1338  004474  6FFB               	movwf	_AD5272_COMMANDS& (0+255),b
  1339                           
  1340                           ; BSR set to: 0
  1341                           ;main.c: 173:     AD5272_COMMANDS[1] = 0x02;
  1342  004476  0E02               	movlw	2
  1343  004478  6FFC               	movwf	(_AD5272_COMMANDS+1)& (0+255),b
  1344                           
  1345                           ; BSR set to: 0
  1346  00447A  0EFB               	movlw	low _AD5272_COMMANDS
  1347  00447C  6E14               	movwf	I2C_Transmit@buffer,c
  1348  00447E  0E00               	movlw	high _AD5272_COMMANDS
  1349  004480  6E15               	movwf	I2C_Transmit@buffer+1,c
  1350  004482  0E02               	movlw	2
  1351  004484  6E16               	movwf	I2C_Transmit@buffer_size,c
  1352  004486  0E5E               	movlw	94
  1353  004488  6E17               	movwf	I2C_Transmit@address,c
  1354  00448A  EC07  F023         	call	_I2C_Transmit	;wreg free
  1355  00448E                     l6259:
  1356  00448E  0100               	movlb	0	; () banked
  1357  004490  51F8               	movf	_I2C_STOP_DETECTED& (0+255),w,b
  1358  004492  B4D8               	btfsc	status,2,c
  1359  004494  D7FC               	goto	l6259
  1360                           
  1361                           ; BSR set to: 0
  1362                           ;main.c: 176:     AD5272_COMMANDS[0] = 0x04;
  1363  004496  0E04               	movlw	4
  1364  004498  6FFB               	movwf	_AD5272_COMMANDS& (0+255),b
  1365  00449A                     l6263:
  1366                           
  1367                           ;main.c: 181:         receive_command = UART1_ReceiveCommand();
  1368  00449A  ECB2  F01E         	call	_UART1_ReceiveCommand	;wreg free
  1369  00449E  0100               	movlb	0	; () banked
  1370  0044A0  6FD2               	movwf	main@receive_command& (0+255),b
  1371                           
  1372                           ; BSR set to: 0
  1373                           ;main.c: 182:         if(receive_command)
  1374  0044A2  51D2               	movf	main@receive_command& (0+255),w,b
  1375  0044A4  B4D8               	btfsc	status,2,c
  1376  0044A6  D7F9               	goto	l6263
  1377                           
  1378                           ; BSR set to: 0
  1379                           ;main.c: 183:             UART_handler();
  1380  0044A8  EC9E  F01C         	call	_UART_handler	;wreg free
  1381  0044AC  D7F6               	goto	l6263
  1382  0044AE                     __end_of_main:
  1383                           	opt callstack 0
  1384                           
  1385 ;; *************** function _timer0_init *****************
  1386 ;; Defined at:
  1387 ;;		line 238 in file "main.c"
  1388 ;; Parameters:    Size  Location     Type
  1389 ;;		None
  1390 ;; Auto vars:     Size  Location     Type
  1391 ;;		None
  1392 ;; Return value:  Size  Location     Type
  1393 ;;                  1    wreg      void 
  1394 ;; Registers used:
  1395 ;;		wreg, status,2
  1396 ;; Tracked objects:
  1397 ;;		On entry : 0/0
  1398 ;;		On exit  : 0/0
  1399 ;;		Unchanged: 0/0
  1400 ;; Data sizes:     COMRAM   BANK0   BANK1   BANK2   BANK3   BANK4   BANK5   BANK6   BANK7   BANK8   BANK9  BANK10  BANK1
      +1  BANK12  BANK13  BANK14  BANK15  BANK16  BANK17  BANK18  BANK19  BANK20  BANK21  BANK22  BANK23  BANK24  BANK25  BANK2
      +6  BANK27  BANK28  BANK29  BANK30  BANK31
  1401 ;;      Params:         0       0       0       0       0       0       0       0       0       0       0       0       
      +0       0       0       0       0       0       0       0       0       0       0       0       0       0       0       
      +0       0       0       0       0       0
  1402 ;;      Locals:         0       0       0       0       0       0       0       0       0       0       0       0       
      +0       0       0       0       0       0       0       0       0       0       0       0       0       0       0       
      +0       0       0       0       0       0
  1403 ;;      Temps:          0       0       0       0       0       0       0       0       0       0       0       0       
      +0       0       0       0       0       0       0       0       0       0       0       0       0       0       0       
      +0       0       0       0       0       0
  1404 ;;      Totals:         0       0       0       0       0       0       0       0       0       0       0       0       
      +0       0       0       0       0       0       0       0       0       0       0       0       0       0       0       
      +0       0       0       0       0       0
  1405 ;;Total ram usage:        0 bytes
  1406 ;; Hardware stack levels used:    1
  1407 ;; Hardware stack levels required when called:    2
  1408 ;; This function calls:
  1409 ;;		Nothing
  1410 ;; This function is called by:
  1411 ;;		_main
  1412 ;; This function uses a non-reentrant model
  1413 ;;
  1414                           
  1415                           	psect	text1
  1416  004EBE                     __ptext1:
  1417                           	opt callstack 0
  1418  004EBE                     _timer0_init:
  1419                           	opt callstack 28
  1420                           
  1421                           ;main.c: 239:     T0CON0 = 0x10;
  1422                           
  1423                           ;incstack = 0
  1424  004EBE  0E10               	movlw	16
  1425  004EC0  6EB8               	movwf	16312,c	;volatile
  1426                           
  1427                           ;main.c: 240:     T0CON1 = 0x75;
  1428  004EC2  0E75               	movlw	117
  1429  004EC4  6EB9               	movwf	16313,c	;volatile
  1430                           
  1431                           ;main.c: 241:     TMR0L = 0xB0;
  1432  004EC6  0EB0               	movlw	176
  1433  004EC8  6EB6               	movwf	16310,c	;volatile
  1434                           
  1435                           ;main.c: 242:     TMR0H = 0x3C;
  1436  004ECA  0E3C               	movlw	60
  1437  004ECC  6EB7               	movwf	16311,c	;volatile
  1438                           
  1439                           ;main.c: 243:     counter_timer0 = 0;
  1440  004ECE  0E00               	movlw	0
  1441  004ED0  6E47               	movwf	_counter_timer0,c
  1442                           
  1443                           ;main.c: 244:     IPR3bits.TMR0IP = 0;
  1444  004ED2  0139               	movlb	57	; () banked
  1445  004ED4  9F83               	bcf	131,7,b	;volatile
  1446                           
  1447                           ; BSR set to: 57
  1448                           ;main.c: 245:     PIR3bits.TMR0IF = 0;
  1449  004ED6  9FA3               	bcf	163,7,b	;volatile
  1450                           
  1451                           ; BSR set to: 57
  1452                           ;main.c: 246:     PIE3bits.TMR0IE = 1;
  1453  004ED8  8F93               	bsf	147,7,b	;volatile
  1454                           
  1455                           ; BSR set to: 57
  1456                           ;main.c: 247:     T0CON0bits.EN = 1;
  1457  004EDA  8EB8               	bsf	16312,7,c	;volatile
  1458                           
  1459                           ; BSR set to: 57
  1460  004EDC  0012               	return		;funcret
  1461  004EDE                     __end_of_timer0_init:
  1462                           	opt callstack 0
  1463                           
  1464 ;; *************** function _UART_handler *****************
  1465 ;; Defined at:
  1466 ;;		line 189 in file "main.c"
  1467 ;; Parameters:    Size  Location     Type
  1468 ;;		None
  1469 ;; Auto vars:     Size  Location     Type
  1470 ;;		None
  1471 ;; Return value:  Size  Location     Type
  1472 ;;                  1    wreg      void 
  1473 ;; Registers used:
  1474 ;;		wreg, fsr1l, fsr1h, fsr2l, fsr2h, status,2, status,0, tblptrl, tblptrh, tblptru, prodl, prodh, cstack
  1475 ;; Tracked objects:
  1476 ;;		On entry : 0/0
  1477 ;;		On exit  : 0/0
  1478 ;;		Unchanged: 0/0
  1479 ;; Data sizes:     COMRAM   BANK0   BANK1   BANK2   BANK3   BANK4   BANK5   BANK6   BANK7   BANK8   BANK9  BANK10  BANK1
      +1  BANK12  BANK13  BANK14  BANK15  BANK16  BANK17  BANK18  BANK19  BANK20  BANK21  BANK22  BANK23  BANK24  BANK25  BANK2
      +6  BANK27  BANK28  BANK29  BANK30  BANK31
  1480 ;;      Params:         0       0       0       0       0       0       0       0       0       0       0       0       
      +0       0       0       0       0       0       0       0       0       0       0       0       0       0       0       
      +0       0       0       0       0       0
  1481 ;;      Locals:         0       0       0       0       0       0       0       0       0       0       0       0       
      +0       0       0       0       0       0       0       0       0       0       0       0       0       0       0       
      +0       0       0       0       0       0
  1482 ;;      Temps:          0       2       0       0       0       0       0       0       0       0       0       0       
      +0       0       0       0       0       0       0       0       0       0       0       0       0       0       0       
      +0       0       0       0       0       0
  1483 ;;      Totals:         0       2       0       0       0       0       0       0       0       0       0       0       
      +0       0       0       0       0       0       0       0       0       0       0       0       0       0       0       
      +0       0       0       0       0       0
  1484 ;;Total ram usage:        2 bytes
  1485 ;; Hardware stack levels used:    1
  1486 ;; Hardware stack levels required when called:   10
  1487 ;; This function calls:
  1488 ;;		_GetStringSize
  1489 ;;		_I2C_handler
  1490 ;;		_UART1_SendString
  1491 ;;		___flmul
  1492 ;;		_memset
  1493 ;;		_sprintf
  1494 ;; This function is called by:
  1495 ;;		_main
  1496 ;; This function uses a non-reentrant model
  1497 ;;
  1498                           
  1499                           	psect	text2
  1500  00393C                     __ptext2:
  1501                           	opt callstack 0
  1502  00393C                     _UART_handler:
  1503                           	opt callstack 20
  1504                           
  1505                           ;main.c: 190:     memset(tx_buffer,0,55);
  1506                           
  1507                           ; BSR set to: 57
  1508                           ;incstack = 0
  1509  00393C  0E70               	movlw	low _tx_buffer
  1510  00393E  6E14               	movwf	memset@st,c
  1511  003940  0E01               	movlw	high _tx_buffer
  1512  003942  6E15               	movwf	memset@st+1,c
  1513  003944  0E00               	movlw	0
  1514  003946  6E16               	movwf	memset@x,c
  1515  003948  0E00               	movlw	0
  1516  00394A  6E18               	movwf	memset@size+1,c
  1517  00394C  0E37               	movlw	55
  1518  00394E  6E17               	movwf	memset@size,c
  1519  003950  ECD3  F026         	call	_memset	;wreg free
  1520                           
  1521                           ;main.c: 191:     if(COMMAND_WR){
  1522  003954  0100               	movlb	0	; () banked
  1523  003956  51FA               	movf	_COMMAND_WR& (0+255),w,b
  1524  003958  A4D8               	btfss	status,2,c
  1525  00395A  D08B               	goto	l6175
  1526  00395C  D0E4               	goto	l6197
  1527  00395E                     l6161:
  1528                           
  1529                           ; BSR set to: 0
  1530                           ;main.c: 194:                 ADC_VOLTAGE_RESULT = ADC_VOLTAGE_RESULT * 0.00122;
  1531  00395E  0060  F3BC  F014   	movff	_ADC_VOLTAGE_RESULT,___flmul@b
  1532  003964  0060  F3C0  F015   	movff	_ADC_VOLTAGE_RESULT+1,___flmul@b+1
  1533  00396A  0060  F3C4  F016   	movff	_ADC_VOLTAGE_RESULT+2,___flmul@b+2
  1534  003970  0060  F3C8  F017   	movff	_ADC_VOLTAGE_RESULT+3,___flmul@b+3
  1535  003976  0E68               	movlw	104
  1536  003978  6E18               	movwf	___flmul@a,c
  1537  00397A  0EE8               	movlw	232
  1538  00397C  6E19               	movwf	___flmul@a+1,c
  1539  00397E  0E9F               	movlw	159
  1540  003980  6E1A               	movwf	___flmul@a+2,c
  1541  003982  0E3A               	movlw	58
  1542  003984  6E1B               	movwf	___flmul@a+3,c
  1543  003986  EC01  F016         	call	___flmul	;wreg free
  1544  00398A  0060  F050  F0EF   	movff	?___flmul,_ADC_VOLTAGE_RESULT
  1545  003990  0060  F054  F0F0   	movff	?___flmul+1,_ADC_VOLTAGE_RESULT+1
  1546  003996  0060  F058  F0F1   	movff	?___flmul+2,_ADC_VOLTAGE_RESULT+2
  1547  00399C  0060  F05C  F0F2   	movff	?___flmul+3,_ADC_VOLTAGE_RESULT+3
  1548                           
  1549                           ;main.c: 195:                 sprintf(tx_buffer,"%f",ADC_VOLTAGE_RESULT);
  1550  0039A2  0E70               	movlw	low _tx_buffer
  1551  0039A4  0100               	movlb	0	; () banked
  1552  0039A6  6FC6               	movwf	sprintf@s& (0+255),b
  1553  0039A8  0E01               	movlw	high _tx_buffer
  1554  0039AA  6FC7               	movwf	(sprintf@s+1)& (0+255),b
  1555  0039AC  0EA8               	movlw	low STR_1
  1556  0039AE  6FC8               	movwf	sprintf@fmt& (0+255),b
  1557  0039B0  0E20               	movlw	high STR_1
  1558  0039B2  6FC9               	movwf	(sprintf@fmt+1)& (0+255),b
  1559  0039B4  0060  F3BC  F0CA   	movff	_ADC_VOLTAGE_RESULT,?_sprintf+4
  1560  0039BA  0060  F3C0  F0CB   	movff	_ADC_VOLTAGE_RESULT+1,?_sprintf+5
  1561  0039C0  0060  F3C4  F0CC   	movff	_ADC_VOLTAGE_RESULT+2,?_sprintf+6
  1562  0039C6  0060  F3C8  F0CD   	movff	_ADC_VOLTAGE_RESULT+3,?_sprintf+7
  1563  0039CC  EC97  F025         	call	_sprintf	;wreg free
  1564                           
  1565                           ;main.c: 196:                 break;
  1566  0039D0  D0BC               	goto	l6199
  1567  0039D2                     l6165:
  1568                           
  1569                           ; BSR set to: 0
  1570                           ;main.c: 198:                 ADC_CURRENT_RESULT = ADC_CURRENT_RESULT * 0.00122;
  1571  0039D2  0060  F3AC  F014   	movff	_ADC_CURRENT_RESULT,___flmul@b
  1572  0039D8  0060  F3B0  F015   	movff	_ADC_CURRENT_RESULT+1,___flmul@b+1
  1573  0039DE  0060  F3B4  F016   	movff	_ADC_CURRENT_RESULT+2,___flmul@b+2
  1574  0039E4  0060  F3B8  F017   	movff	_ADC_CURRENT_RESULT+3,___flmul@b+3
  1575  0039EA  0E68               	movlw	104
  1576  0039EC  6E18               	movwf	___flmul@a,c
  1577  0039EE  0EE8               	movlw	232
  1578  0039F0  6E19               	movwf	___flmul@a+1,c
  1579  0039F2  0E9F               	movlw	159
  1580  0039F4  6E1A               	movwf	___flmul@a+2,c
  1581  0039F6  0E3A               	movlw	58
  1582  0039F8  6E1B               	movwf	___flmul@a+3,c
  1583  0039FA  EC01  F016         	call	___flmul	;wreg free
  1584  0039FE  0060  F050  F0EB   	movff	?___flmul,_ADC_CURRENT_RESULT
  1585  003A04  0060  F054  F0EC   	movff	?___flmul+1,_ADC_CURRENT_RESULT+1
  1586  003A0A  0060  F058  F0ED   	movff	?___flmul+2,_ADC_CURRENT_RESULT+2
  1587  003A10  0060  F05C  F0EE   	movff	?___flmul+3,_ADC_CURRENT_RESULT+3
  1588                           
  1589                           ;main.c: 199:                 sprintf(tx_buffer,"%f",ADC_CURRENT_RESULT);
  1590  003A16  0E70               	movlw	low _tx_buffer
  1591  003A18  0100               	movlb	0	; () banked
  1592  003A1A  6FC6               	movwf	sprintf@s& (0+255),b
  1593  003A1C  0E01               	movlw	high _tx_buffer
  1594  003A1E  6FC7               	movwf	(sprintf@s+1)& (0+255),b
  1595  003A20  0EA8               	movlw	low STR_1
  1596  003A22  6FC8               	movwf	sprintf@fmt& (0+255),b
  1597  003A24  0E20               	movlw	high STR_1
  1598  003A26  6FC9               	movwf	(sprintf@fmt+1)& (0+255),b
  1599  003A28  0060  F3AC  F0CA   	movff	_ADC_CURRENT_RESULT,?_sprintf+4
  1600  003A2E  0060  F3B0  F0CB   	movff	_ADC_CURRENT_RESULT+1,?_sprintf+5
  1601  003A34  0060  F3B4  F0CC   	movff	_ADC_CURRENT_RESULT+2,?_sprintf+6
  1602  003A3A  0060  F3B8  F0CD   	movff	_ADC_CURRENT_RESULT+3,?_sprintf+7
  1603  003A40  EC97  F025         	call	_sprintf	;wreg free
  1604                           
  1605                           ;main.c: 200:                 break;
  1606  003A44  D082               	goto	l6199
  1607  003A46                     l6169:
  1608                           
  1609                           ; BSR set to: 0
  1610                           ;main.c: 202:                 sprintf(tx_buffer,"Version 1.0\nTeam 5V\nXaris Ketoglou,Vo
      +                          ula Kontotoli");
  1611  003A46  0E70               	movlw	low _tx_buffer
  1612  003A48  6FC6               	movwf	sprintf@s& (0+255),b
  1613  003A4A  0E01               	movlw	high _tx_buffer
  1614  003A4C  6FC7               	movwf	(sprintf@s+1)& (0+255),b
  1615  003A4E  0E01               	movlw	low STR_3
  1616  003A50  6FC8               	movwf	sprintf@fmt& (0+255),b
  1617  003A52  0E20               	movlw	high STR_3
  1618  003A54  6FC9               	movwf	(sprintf@fmt+1)& (0+255),b
  1619  003A56  EC97  F025         	call	_sprintf	;wreg free
  1620                           
  1621                           ;main.c: 203:                 break;
  1622  003A5A  D077               	goto	l6199
  1623  003A5C                     l6171:
  1624                           
  1625                           ; BSR set to: 0
  1626                           ;main.c: 205:                 sprintf(tx_buffer,"Command not recognized!");
  1627  003A5C  0E70               	movlw	low _tx_buffer
  1628  003A5E  6FC6               	movwf	sprintf@s& (0+255),b
  1629  003A60  0E01               	movlw	high _tx_buffer
  1630  003A62  6FC7               	movwf	(sprintf@s+1)& (0+255),b
  1631  003A64  0E34               	movlw	low STR_4
  1632  003A66  6FC8               	movwf	sprintf@fmt& (0+255),b
  1633  003A68  0E20               	movlw	high STR_4
  1634  003A6A  6FC9               	movwf	(sprintf@fmt+1)& (0+255),b
  1635  003A6C  EC97  F025         	call	_sprintf	;wreg free
  1636                           
  1637                           ;main.c: 206:                 break;
  1638  003A70  D06C               	goto	l6199
  1639  003A72                     l6175:
  1640                           
  1641                           ; BSR set to: 0
  1642  003A72  51F9               	movf	_COMMAND& (0+255),w,b
  1643  003A74  6FCE               	movwf	??_UART_handler& (0+255),b
  1644  003A76  6BCF               	clrf	(??_UART_handler+1)& (0+255),b
  1645                           
  1646                           ; Switch on 2 bytes has been partitioned into a top level switch of size 1, and 1 sub-sw
      +                          itches
  1647                           ; Switch size 1, requested type "simple"
  1648                           ; Number of cases is 1, Range of values is 0 to 0
  1649                           ; switch strategies available:
  1650                           ; Name         Instructions Cycles
  1651                           ; simple_byte            4     3 (average)
  1652                           ;	Chosen strategy is simple_byte
  1653  003A78  51CF               	movf	(??_UART_handler+1)& (0+255),w,b
  1654  003A7A  0A00               	xorlw	0	; case 0
  1655  003A7C  A4D8               	btfss	status,2,c
  1656  003A7E  D7EE               	goto	l6171
  1657                           
  1658                           ; BSR set to: 0
  1659                           ; Switch size 1, requested type "simple"
  1660                           ; Number of cases is 3, Range of values is 0 to 2
  1661                           ; switch strategies available:
  1662                           ; Name         Instructions Cycles
  1663                           ; simple_byte           10     6 (average)
  1664                           ;	Chosen strategy is simple_byte
  1665  003A80  51CE               	movf	??_UART_handler& (0+255),w,b
  1666  003A82  0A00               	xorlw	0	; case 0
  1667  003A84  B4D8               	btfsc	status,2,c
  1668  003A86  D76B               	goto	l6161
  1669  003A88  0A01               	xorlw	1	; case 1
  1670  003A8A  B4D8               	btfsc	status,2,c
  1671  003A8C  D7A2               	goto	l6165
  1672  003A8E  0A03               	xorlw	3	; case 2
  1673  003A90  B4D8               	btfsc	status,2,c
  1674  003A92  D7D9               	goto	l6169
  1675  003A94  D7E3               	goto	l6171
  1676  003A96                     l6177:
  1677                           
  1678                           ; BSR set to: 0
  1679                           ;main.c: 211:                 if(COMMAND_WRITE_NUMBER){
  1680  003A96  51F5               	movf	_COMMAND_WRITE_NUMBER& (0+255),w,b
  1681  003A98  11F6               	iorwf	(_COMMAND_WRITE_NUMBER+1)& (0+255),w,b
  1682  003A9A  B4D8               	btfsc	status,2,c
  1683  003A9C  D00D               	goto	l6183
  1684                           
  1685                           ; BSR set to: 0
  1686                           ;main.c: 212:                     led_enable = 1;
  1687  003A9E  0E01               	movlw	1
  1688  003AA0  6FF7               	movwf	_led_enable& (0+255),b
  1689                           
  1690                           ; BSR set to: 0
  1691                           ;main.c: 213:                     sprintf(tx_buffer,"Blinking LED is ON!");
  1692  003AA2  0E70               	movlw	low _tx_buffer
  1693  003AA4  6FC6               	movwf	sprintf@s& (0+255),b
  1694  003AA6  0E01               	movlw	high _tx_buffer
  1695  003AA8  6FC7               	movwf	(sprintf@s+1)& (0+255),b
  1696  003AAA  0E61               	movlw	low STR_5
  1697  003AAC  6FC8               	movwf	sprintf@fmt& (0+255),b
  1698  003AAE  0E20               	movlw	high STR_5
  1699  003AB0  6FC9               	movwf	(sprintf@fmt+1)& (0+255),b
  1700  003AB2  EC97  F025         	call	_sprintf	;wreg free
  1701                           
  1702                           ;main.c: 214:                 }else{
  1703  003AB6  D049               	goto	l6199
  1704  003AB8                     l6183:
  1705                           
  1706                           ; BSR set to: 0
  1707                           ;main.c: 215:                     led_enable = 0;
  1708  003AB8  0E00               	movlw	0
  1709  003ABA  6FF7               	movwf	_led_enable& (0+255),b
  1710                           
  1711                           ; BSR set to: 0
  1712                           ;main.c: 216:                     sprintf(tx_buffer,"Blinking LED is OFF!");
  1713  003ABC  0E70               	movlw	low _tx_buffer
  1714  003ABE  6FC6               	movwf	sprintf@s& (0+255),b
  1715  003AC0  0E01               	movlw	high _tx_buffer
  1716  003AC2  6FC7               	movwf	(sprintf@s+1)& (0+255),b
  1717  003AC4  0E4C               	movlw	low STR_6
  1718  003AC6  6FC8               	movwf	sprintf@fmt& (0+255),b
  1719  003AC8  0E20               	movlw	high STR_6
  1720  003ACA  6FC9               	movwf	(sprintf@fmt+1)& (0+255),b
  1721  003ACC  EC97  F025         	call	_sprintf	;wreg free
  1722  003AD0  D03C               	goto	l6199
  1723  003AD2                     l6187:
  1724                           
  1725                           ; BSR set to: 0
  1726                           ;main.c: 220:                 I2C_handler(COMMAND_WRITE_NUMBER);
  1727  003AD2  0060  F3D4  F020   	movff	_COMMAND_WRITE_NUMBER,I2C_handler@value
  1728  003AD8  0060  F3D8  F021   	movff	_COMMAND_WRITE_NUMBER+1,I2C_handler@value+1
  1729  003ADE  EC38  F027         	call	_I2C_handler	;wreg free
  1730                           
  1731                           ;main.c: 221:                 sprintf(tx_buffer,"Voltage set!");
  1732  003AE2  0E70               	movlw	low _tx_buffer
  1733  003AE4  0100               	movlb	0	; () banked
  1734  003AE6  6FC6               	movwf	sprintf@s& (0+255),b
  1735  003AE8  0E01               	movlw	high _tx_buffer
  1736  003AEA  6FC7               	movwf	(sprintf@s+1)& (0+255),b
  1737  003AEC  0E88               	movlw	low STR_7
  1738  003AEE  6FC8               	movwf	sprintf@fmt& (0+255),b
  1739  003AF0  0E20               	movlw	high STR_7
  1740  003AF2  6FC9               	movwf	(sprintf@fmt+1)& (0+255),b
  1741  003AF4  EC97  F025         	call	_sprintf	;wreg free
  1742                           
  1743                           ;main.c: 222:                 break;
  1744  003AF8  D028               	goto	l6199
  1745  003AFA                     l6191:
  1746                           
  1747                           ; BSR set to: 0
  1748                           ;main.c: 226:                 sprintf(tx_buffer,"Current Limit set!");
  1749  003AFA  0E70               	movlw	low _tx_buffer
  1750  003AFC  6FC6               	movwf	sprintf@s& (0+255),b
  1751  003AFE  0E01               	movlw	high _tx_buffer
  1752  003B00  6FC7               	movwf	(sprintf@s+1)& (0+255),b
  1753  003B02  0E75               	movlw	low STR_8
  1754  003B04  6FC8               	movwf	sprintf@fmt& (0+255),b
  1755  003B06  0E20               	movlw	high STR_8
  1756  003B08  6FC9               	movwf	(sprintf@fmt+1)& (0+255),b
  1757  003B0A  EC97  F025         	call	_sprintf	;wreg free
  1758                           
  1759                           ;main.c: 227:                 break;
  1760  003B0E  D01D               	goto	l6199
  1761  003B10                     l6193:
  1762                           
  1763                           ; BSR set to: 0
  1764                           ;main.c: 229:                 sprintf(tx_buffer,"Command not recognized!");
  1765  003B10  0E70               	movlw	low _tx_buffer
  1766  003B12  6FC6               	movwf	sprintf@s& (0+255),b
  1767  003B14  0E01               	movlw	high _tx_buffer
  1768  003B16  6FC7               	movwf	(sprintf@s+1)& (0+255),b
  1769  003B18  0E34               	movlw	low STR_4
  1770  003B1A  6FC8               	movwf	sprintf@fmt& (0+255),b
  1771  003B1C  0E20               	movlw	high STR_4
  1772  003B1E  6FC9               	movwf	(sprintf@fmt+1)& (0+255),b
  1773  003B20  EC97  F025         	call	_sprintf	;wreg free
  1774                           
  1775                           ;main.c: 230:                 break;
  1776  003B24  D012               	goto	l6199
  1777  003B26                     l6197:
  1778                           
  1779                           ; BSR set to: 0
  1780  003B26  51F9               	movf	_COMMAND& (0+255),w,b
  1781  003B28  6FCE               	movwf	??_UART_handler& (0+255),b
  1782  003B2A  6BCF               	clrf	(??_UART_handler+1)& (0+255),b
  1783                           
  1784                           ; Switch on 2 bytes has been partitioned into a top level switch of size 1, and 1 sub-sw
      +                          itches
  1785                           ; Switch size 1, requested type "simple"
  1786                           ; Number of cases is 1, Range of values is 0 to 0
  1787                           ; switch strategies available:
  1788                           ; Name         Instructions Cycles
  1789                           ; simple_byte            4     3 (average)
  1790                           ;	Chosen strategy is simple_byte
  1791  003B2C  51CF               	movf	(??_UART_handler+1)& (0+255),w,b
  1792  003B2E  0A00               	xorlw	0	; case 0
  1793  003B30  A4D8               	btfss	status,2,c
  1794  003B32  D7EE               	goto	l6193
  1795                           
  1796                           ; BSR set to: 0
  1797                           ; Switch size 1, requested type "simple"
  1798                           ; Number of cases is 3, Range of values is 0 to 2
  1799                           ; switch strategies available:
  1800                           ; Name         Instructions Cycles
  1801                           ; simple_byte           10     6 (average)
  1802                           ;	Chosen strategy is simple_byte
  1803  003B34  51CE               	movf	??_UART_handler& (0+255),w,b
  1804  003B36  0A00               	xorlw	0	; case 0
  1805  003B38  B4D8               	btfsc	status,2,c
  1806  003B3A  D7AD               	goto	l6177
  1807  003B3C  0A01               	xorlw	1	; case 1
  1808  003B3E  B4D8               	btfsc	status,2,c
  1809  003B40  D7C8               	goto	l6187
  1810  003B42  0A03               	xorlw	3	; case 2
  1811  003B44  B4D8               	btfsc	status,2,c
  1812  003B46  D7D9               	goto	l6191
  1813  003B48  D7E3               	goto	l6193
  1814  003B4A                     l6199:
  1815                           
  1816                           ;main.c: 233:     UART1_SendString(tx_buffer,GetStringSize());
  1817  003B4A  0E70               	movlw	low _tx_buffer
  1818  003B4C  6E18               	movwf	UART1_SendString@str,c
  1819  003B4E  0E01               	movlw	high _tx_buffer
  1820  003B50  6E19               	movwf	UART1_SendString@str+1,c
  1821  003B52  EC9A  F026         	call	_GetStringSize	;wreg free
  1822  003B56  0060  F050  F01A   	movff	?_GetStringSize,UART1_SendString@size
  1823  003B5C  0060  F054  F01B   	movff	?_GetStringSize+1,UART1_SendString@size+1
  1824  003B62  ECA6  F023         	call	_UART1_SendString	;wreg free
  1825  003B66  0012               	return		;funcret
  1826  003B68                     __end_of_UART_handler:
  1827                           	opt callstack 0
  1828                           
  1829 ;; *************** function _sprintf *****************
  1830 ;; Defined at:
  1831 ;;		line 9 in file "/opt/microchip/xc8/v2.05/pic/sources/c99/common/nf_sprintf.c"
  1832 ;; Parameters:    Size  Location     Type
  1833 ;;  s               2  102[BANK0 ] PTR unsigned char 
  1834 ;;		 -> tx_buffer(55), 
  1835 ;;  fmt             2  104[BANK0 ] PTR const unsigned char 
  1836 ;;		 -> STR_9(24), STR_8(19), STR_7(13), STR_6(21), 
  1837 ;;		 -> STR_5(20), STR_4(24), STR_3(51), STR_2(3), 
  1838 ;;		 -> STR_1(3), 
  1839 ;; Auto vars:     Size  Location     Type
  1840 ;;  f               6    4[BANK1 ] struct _IO_FILE
  1841 ;;  ap              2    2[BANK1 ] PTR void [1]
  1842 ;;		 -> ?_sprintf(2), 
  1843 ;;  ret             2    0        int 
  1844 ;; Return value:  Size  Location     Type
  1845 ;;                  2  102[BANK0 ] int 
  1846 ;; Registers used:
  1847 ;;		wreg, fsr1l, fsr1h, fsr2l, fsr2h, status,2, status,0, tblptrl, tblptrh, tblptru, prodl, prodh, cstack
  1848 ;; Tracked objects:
  1849 ;;		On entry : 0/0
  1850 ;;		On exit  : 0/0
  1851 ;;		Unchanged: 0/0
  1852 ;; Data sizes:     COMRAM   BANK0   BANK1   BANK2   BANK3   BANK4   BANK5   BANK6   BANK7   BANK8   BANK9  BANK10  BANK1
      +1  BANK12  BANK13  BANK14  BANK15  BANK16  BANK17  BANK18  BANK19  BANK20  BANK21  BANK22  BANK23  BANK24  BANK25  BANK2
      +6  BANK27  BANK28  BANK29  BANK30  BANK31
  1853 ;;      Params:         0       8       0       0       0       0       0       0       0       0       0       0       
      +0       0       0       0       0       0       0       0       0       0       0       0       0       0       0       
      +0       0       0       0       0       0
  1854 ;;      Locals:         0       0      10       0       0       0       0       0       0       0       0       0       
      +0       0       0       0       0       0       0       0       0       0       0       0       0       0       0       
      +0       0       0       0       0       0
  1855 ;;      Temps:          0       0       0       0       0       0       0       0       0       0       0       0       
      +0       0       0       0       0       0       0       0       0       0       0       0       0       0       0       
      +0       0       0       0       0       0
  1856 ;;      Totals:         0       8      10       0       0       0       0       0       0       0       0       0       
      +0       0       0       0       0       0       0       0       0       0       0       0       0       0       0       
      +0       0       0       0       0       0
  1857 ;;Total ram usage:       18 bytes
  1858 ;; Hardware stack levels used:    1
  1859 ;; Hardware stack levels required when called:    9
  1860 ;; This function calls:
  1861 ;;		_vfprintf
  1862 ;; This function is called by:
  1863 ;;		_UART_handler
  1864 ;; This function uses a non-reentrant model
  1865 ;;
  1866                           
  1867                           	psect	text3
  1868  004B2E                     __ptext3:
  1869                           	opt callstack 0
  1870  004B2E                     _sprintf:
  1871                           	opt callstack 20
  1872                           
  1873                           ;incstack = 0
  1874  004B2E  0ECA               	movlw	low (?_sprintf+4)
  1875  004B30  0101               	movlb	1	; () banked
  1876  004B32  6FA9               	movwf	sprintf@ap& (0+255),b
  1877  004B34  0E00               	movlw	high (?_sprintf+4)
  1878  004B36  6FAA               	movwf	(sprintf@ap+1)& (0+255),b
  1879  004B38  0060  F318  F1AB   	movff	sprintf@s,sprintf@f
  1880  004B3E  0060  F31C  F1AC   	movff	sprintf@s+1,sprintf@f+1
  1881                           
  1882                           ; BSR set to: 1
  1883  004B44  0E00               	movlw	0
  1884  004B46  6FAE               	movwf	(sprintf@f+3)& (0+255),b
  1885  004B48  0E00               	movlw	0
  1886  004B4A  6FAD               	movwf	(sprintf@f+2)& (0+255),b
  1887                           
  1888                           ; BSR set to: 1
  1889  004B4C  0E00               	movlw	0
  1890  004B4E  6FB0               	movwf	(sprintf@f+5)& (0+255),b
  1891  004B50  0E00               	movlw	0
  1892  004B52  6FAF               	movwf	(sprintf@f+4)& (0+255),b
  1893                           
  1894                           ; BSR set to: 1
  1895  004B54  0EAB               	movlw	low sprintf@f
  1896  004B56  0100               	movlb	0	; () banked
  1897  004B58  6FBE               	movwf	vfprintf@fp& (0+255),b
  1898  004B5A  0E01               	movlw	high sprintf@f
  1899  004B5C  6FBF               	movwf	(vfprintf@fp+1)& (0+255),b
  1900  004B5E  0060  F320  F0C0   	movff	sprintf@fmt,vfprintf@fmt
  1901  004B64  0060  F324  F0C1   	movff	sprintf@fmt+1,vfprintf@fmt+1
  1902  004B6A  0EA9               	movlw	low sprintf@ap
  1903  004B6C  6FC2               	movwf	vfprintf@ap& (0+255),b
  1904  004B6E  0E01               	movlw	high sprintf@ap
  1905  004B70  6FC3               	movwf	(vfprintf@ap+1)& (0+255),b
  1906  004B72  ECF6  F024         	call	_vfprintf	;wreg free
  1907  004B76  0101               	movlb	1	; () banked
  1908  004B78  51AD               	movf	(sprintf@f+2)& (0+255),w,b
  1909  004B7A  0100               	movlb	0	; () banked
  1910  004B7C  25C6               	addwf	sprintf@s& (0+255),w,b
  1911  004B7E  6ED9               	movwf	fsr2l,c
  1912  004B80  0101               	movlb	1	; () banked
  1913  004B82  51AE               	movf	(sprintf@f+3)& (0+255),w,b
  1914  004B84  0100               	movlb	0	; () banked
  1915  004B86  21C7               	addwfc	(sprintf@s+1)& (0+255),w,b
  1916  004B88  6EDA               	movwf	fsr2h,c
  1917  004B8A  0E00               	movlw	0
  1918  004B8C  6EDF               	movwf	indf2,c
  1919                           
  1920                           ; BSR set to: 0
  1921  004B8E  0012               	return		;funcret
  1922  004B90                     __end_of_sprintf:
  1923                           	opt callstack 0
  1924                           
  1925 ;; *************** function _vfprintf *****************
  1926 ;; Defined at:
  1927 ;;		line 1368 in file "/opt/microchip/xc8/v2.05/pic/sources/c99/common/doprnt.c"
  1928 ;; Parameters:    Size  Location     Type
  1929 ;;  fp              2   94[BANK0 ] PTR struct _IO_FILE
  1930 ;;		 -> sprintf@f(6), 
  1931 ;;  fmt             2   96[BANK0 ] PTR const unsigned char 
  1932 ;;		 -> STR_9(24), STR_8(19), STR_7(13), STR_6(21), 
  1933 ;;		 -> STR_5(20), STR_4(24), STR_3(51), STR_2(3), 
  1934 ;;		 -> STR_1(3), 
  1935 ;;  ap              2   98[BANK0 ] PTR PTR void 
  1936 ;;		 -> sprintf@ap(2), 
  1937 ;; Auto vars:     Size  Location     Type
  1938 ;;  cfmt            2  100[BANK0 ] PTR unsigned char 
  1939 ;;		 -> STR_9(24), STR_8(19), STR_7(13), STR_6(21), 
  1940 ;;		 -> STR_5(20), STR_4(24), STR_3(51), STR_2(3), 
  1941 ;;		 -> STR_1(3), 
  1942 ;; Return value:  Size  Location     Type
  1943 ;;                  2   94[BANK0 ] int 
  1944 ;; Registers used:
  1945 ;;		wreg, fsr1l, fsr1h, fsr2l, fsr2h, status,2, status,0, tblptrl, tblptrh, tblptru, prodl, prodh, cstack
  1946 ;; Tracked objects:
  1947 ;;		On entry : 0/0
  1948 ;;		On exit  : 0/0
  1949 ;;		Unchanged: 0/0
  1950 ;; Data sizes:     COMRAM   BANK0   BANK1   BANK2   BANK3   BANK4   BANK5   BANK6   BANK7   BANK8   BANK9  BANK10  BANK1
      +1  BANK12  BANK13  BANK14  BANK15  BANK16  BANK17  BANK18  BANK19  BANK20  BANK21  BANK22  BANK23  BANK24  BANK25  BANK2
      +6  BANK27  BANK28  BANK29  BANK30  BANK31
  1951 ;;      Params:         0       6       0       0       0       0       0       0       0       0       0       0       
      +0       0       0       0       0       0       0       0       0       0       0       0       0       0       0       
      +0       0       0       0       0       0
  1952 ;;      Locals:         0       2       0       0       0       0       0       0       0       0       0       0       
      +0       0       0       0       0       0       0       0       0       0       0       0       0       0       0       
      +0       0       0       0       0       0
  1953 ;;      Temps:          0       0       0       0       0       0       0       0       0       0       0       0       
      +0       0       0       0       0       0       0       0       0       0       0       0       0       0       0       
      +0       0       0       0       0       0
  1954 ;;      Totals:         0       8       0       0       0       0       0       0       0       0       0       0       
      +0       0       0       0       0       0       0       0       0       0       0       0       0       0       0       
      +0       0       0       0       0       0
  1955 ;;Total ram usage:        8 bytes
  1956 ;; Hardware stack levels used:    1
  1957 ;; Hardware stack levels required when called:    8
  1958 ;; This function calls:
  1959 ;;		_vfpfcnvrt
  1960 ;; This function is called by:
  1961 ;;		_sprintf
  1962 ;; This function uses a non-reentrant model
  1963 ;;
  1964                           
  1965                           	psect	text4
  1966  0049EC                     __ptext4:
  1967                           	opt callstack 0
  1968  0049EC                     _vfprintf:
  1969                           	opt callstack 20
  1970                           
  1971                           ;/opt/microchip/xc8/v2.05/pic/sources/c99/common/doprnt.c: 1368: int vfprintf(FILE *fp, 
      +                          const char *fmt, va_list ap);/opt/microchip/xc8/v2.05/pic/sources/c99/common/doprnt.c: 1
      +                          369: {;/opt/microchip/xc8/v2.05/pic/sources/c99/common/doprnt.c: 1371:     char *cfmt;;/
      +                          opt/microchip/xc8/v2.05/pic/sources/c99/common/doprnt.c: 1373:     cfmt = (char *)fmt;
  1972                           
  1973                           ; BSR set to: 0
  1974                           ;incstack = 0
  1975  0049EC  0060  F300  F0C4   	movff	vfprintf@fmt,vfprintf@cfmt
  1976  0049F2  0060  F304  F0C5   	movff	vfprintf@fmt+1,vfprintf@cfmt+1
  1977                           
  1978                           ;/opt/microchip/xc8/v2.05/pic/sources/c99/common/doprnt.c: 1374:     nout = 0;
  1979  0049F8  0E00               	movlw	0
  1980  0049FA  0100               	movlb	0	; () banked
  1981  0049FC  6FF4               	movwf	(_nout+1)& (0+255),b
  1982  0049FE  0E00               	movlw	0
  1983  004A00  6FF3               	movwf	_nout& (0+255),b
  1984                           
  1985                           ;/opt/microchip/xc8/v2.05/pic/sources/c99/common/doprnt.c: 1375:     while (*cfmt) {
  1986  004A02  D017               	goto	l6141
  1987  004A04                     l6139:
  1988                           
  1989                           ; BSR set to: 0
  1990                           ;/opt/microchip/xc8/v2.05/pic/sources/c99/common/doprnt.c: 1376:         nout += vfpfcnv
      +                          rt(fp, &cfmt, ap);
  1991  004A04  0060  F2F8  F0AE   	movff	vfprintf@fp,vfpfcnvrt@fp
  1992  004A0A  0060  F2FC  F0AF   	movff	vfprintf@fp+1,vfpfcnvrt@fp+1
  1993  004A10  0EC4               	movlw	low vfprintf@cfmt
  1994  004A12  6FB0               	movwf	vfpfcnvrt@fmt& (0+255),b
  1995  004A14  0E00               	movlw	high vfprintf@cfmt
  1996  004A16  6FB1               	movwf	(vfpfcnvrt@fmt+1)& (0+255),b
  1997  004A18  0060  F308  F0B2   	movff	vfprintf@ap,vfpfcnvrt@ap
  1998  004A1E  0060  F30C  F0B3   	movff	vfprintf@ap+1,vfpfcnvrt@ap+1
  1999  004A24  ECDA  F017         	call	_vfpfcnvrt	;wreg free
  2000  004A28  0100               	movlb	0	; () banked
  2001  004A2A  51AE               	movf	?_vfpfcnvrt& (0+255),w,b
  2002  004A2C  27F3               	addwf	_nout& (0+255),f,b
  2003  004A2E  51AF               	movf	(?_vfpfcnvrt+1)& (0+255),w,b
  2004  004A30  23F4               	addwfc	(_nout+1)& (0+255),f,b
  2005  004A32                     l6141:
  2006                           
  2007                           ; BSR set to: 0
  2008                           ;/opt/microchip/xc8/v2.05/pic/sources/c99/common/doprnt.c: 1375:     while (*cfmt) {
  2009  004A32  0060  F313  FFF6   	movff	vfprintf@cfmt,tblptrl
  2010  004A38  0060  F317  FFF7   	movff	vfprintf@cfmt+1,tblptrh
  2011  004A3E                     	if	0	;tblptru may be non-zero
  2012  004A3E                     	endif
  2013  004A3E                     	if	1	;Program memory is > 0xFFFF, there are 3 active tblptr bytes
  2014  004A3E  0E00               	movlw	low (__mediumconst shr (0+16))
  2015  004A40  6EF8               	movwf	tblptru,c
  2016  004A42                     	endif
  2017  004A42  0008               	tblrd		*
  2018  004A44  50F5               	movf	tablat,w,c
  2019  004A46  0900               	iorlw	0
  2020  004A48  A4D8               	btfss	status,2,c
  2021  004A4A  D7DC               	goto	l6139
  2022                           
  2023                           ; BSR set to: 0
  2024                           ;/opt/microchip/xc8/v2.05/pic/sources/c99/common/doprnt.c: 1378:     return nout;
  2025  004A4C  0060  F3CC  F0BE   	movff	_nout,?_vfprintf
  2026  004A52  0060  F3D0  F0BF   	movff	_nout+1,?_vfprintf+1
  2027                           
  2028                           ; BSR set to: 0
  2029  004A58  0012               	return		;funcret
  2030  004A5A                     __end_of_vfprintf:
  2031                           	opt callstack 0
  2032                           
  2033 ;; *************** function _vfpfcnvrt *****************
  2034 ;; Defined at:
  2035 ;;		line 670 in file "/opt/microchip/xc8/v2.05/pic/sources/c99/common/doprnt.c"
  2036 ;; Parameters:    Size  Location     Type
  2037 ;;  fp              2   78[BANK0 ] PTR struct _IO_FILE
  2038 ;;		 -> sprintf@f(6), 
  2039 ;;  fmt             2   80[BANK0 ] PTR PTR unsigned char 
  2040 ;;		 -> vfprintf@cfmt(2), 
  2041 ;;  ap              2   82[BANK0 ] PTR PTR void 
  2042 ;;		 -> sprintf@ap(2), 
  2043 ;; Auto vars:     Size  Location     Type
  2044 ;;  llu             8    0        unsigned long long 
  2045 ;;  ll              8    0        long long 
  2046 ;;  f               4   86[BANK0 ] long long 
  2047 ;;  ct              3   90[BANK0 ] unsigned char [3]
  2048 ;;  vp              3    0        PTR void 
  2049 ;;  cp              3    0        PTR unsigned char 
  2050 ;;  i               2    0        int 
  2051 ;;  done            2    0        int 
  2052 ;;  c               1   93[BANK0 ] unsigned char 
  2053 ;; Return value:  Size  Location     Type
  2054 ;;                  2   78[BANK0 ] int 
  2055 ;; Registers used:
  2056 ;;		wreg, fsr1l, fsr1h, fsr2l, fsr2h, status,2, status,0, tblptrl, tblptrh, tblptru, prodl, prodh, cstack
  2057 ;; Tracked objects:
  2058 ;;		On entry : 0/0
  2059 ;;		On exit  : 0/0
  2060 ;;		Unchanged: 0/0
  2061 ;; Data sizes:     COMRAM   BANK0   BANK1   BANK2   BANK3   BANK4   BANK5   BANK6   BANK7   BANK8   BANK9  BANK10  BANK1
      +1  BANK12  BANK13  BANK14  BANK15  BANK16  BANK17  BANK18  BANK19  BANK20  BANK21  BANK22  BANK23  BANK24  BANK25  BANK2
      +6  BANK27  BANK28  BANK29  BANK30  BANK31
  2062 ;;      Params:         0       6       0       0       0       0       0       0       0       0       0       0       
      +0       0       0       0       0       0       0       0       0       0       0       0       0       0       0       
      +0       0       0       0       0       0
  2063 ;;      Locals:         0      10       0       0       0       0       0       0       0       0       0       0       
      +0       0       0       0       0       0       0       0       0       0       0       0       0       0       0       
      +0       0       0       0       0       0
  2064 ;;      Temps:          4       0       0       0       0       0       0       0       0       0       0       0       
      +0       0       0       0       0       0       0       0       0       0       0       0       0       0       0       
      +0       0       0       0       0       0
  2065 ;;      Totals:         4      16       0       0       0       0       0       0       0       0       0       0       
      +0       0       0       0       0       0       0       0       0       0       0       0       0       0       0       
      +0       0       0       0       0       0
  2066 ;;Total ram usage:       20 bytes
  2067 ;; Hardware stack levels used:    1
  2068 ;; Hardware stack levels required when called:    7
  2069 ;; This function calls:
  2070 ;;		_efgtoa
  2071 ;;		_fputc
  2072 ;;		_isupper
  2073 ;;		_strncmp
  2074 ;;		_tolower
  2075 ;; This function is called by:
  2076 ;;		_vfprintf
  2077 ;; This function uses a non-reentrant model
  2078 ;;
  2079                           
  2080                           	psect	text5
  2081  002FB4                     __ptext5:
  2082                           	opt callstack 0
  2083  002FB4                     _vfpfcnvrt:
  2084                           	opt callstack 20
  2085                           
  2086                           ;/opt/microchip/xc8/v2.05/pic/sources/c99/common/doprnt.c: 670: static int vfpfcnvrt(FIL
      +                          E *fp, char *fmt[], va_list ap);/opt/microchip/xc8/v2.05/pic/sources/c99/common/doprnt.c
      +                          : 671: {;/opt/microchip/xc8/v2.05/pic/sources/c99/common/doprnt.c: 672:     char c, *cp,
      +                           ct[3];;/opt/microchip/xc8/v2.05/pic/sources/c99/common/doprnt.c: 673:     int done, i;;
      +                          /opt/microchip/xc8/v2.05/pic/sources/c99/common/doprnt.c: 674:     long long ll;;/opt/mi
      +                          crochip/xc8/v2.05/pic/sources/c99/common/doprnt.c: 675:     unsigned long long llu;
  2087                           
  2088                           ; BSR set to: 0
  2089                           ;incstack = 0
  2090  002FB4  0060  F2C3  FFD9   	movff	vfpfcnvrt@fmt,fsr2l
  2091  002FBA  0060  F2C7  FFDA   	movff	vfpfcnvrt@fmt+1,fsr2h
  2092  002FC0  006F FF7B FFF6     	movff	postinc2,tblptrl
  2093  002FC6  006F FF77 FFF7     	movff	postdec2,tblptrh
  2094  002FCC                     	if	0	;tblptru may be non-zero
  2095  002FCC                     	endif
  2096  002FCC                     	if	1	;Program memory is > 0xFFFF, there are 3 active tblptr bytes
  2097  002FCC  0E00               	movlw	low (__mediumconst shr (0+16))
  2098  002FCE  6EF8               	movwf	tblptru,c
  2099  002FD0                     	endif
  2100  002FD0  0008               	tblrd		*
  2101  002FD2  50F5               	movf	tablat,w,c
  2102  002FD4  0A25               	xorlw	37
  2103  002FD6  A4D8               	btfss	status,2,c
  2104  002FD8  D193               	goto	l6127
  2105                           
  2106                           ;/opt/microchip/xc8/v2.05/pic/sources/c99/common/doprnt.c: 681:         ++*fmt;
  2107  002FDA  0060  F2C3  FFD9   	movff	vfpfcnvrt@fmt,fsr2l
  2108  002FE0  0060  F2C7  FFDA   	movff	vfpfcnvrt@fmt+1,fsr2h
  2109  002FE6  2ADE               	incf	postinc2,f,c
  2110  002FE8  0E00               	movlw	0
  2111  002FEA  22DD               	addwfc	postdec2,f,c
  2112                           
  2113                           ;/opt/microchip/xc8/v2.05/pic/sources/c99/common/doprnt.c: 683:         flags = width = 
      +                          0;
  2114  002FEC  0E00               	movlw	0
  2115  002FEE  6E42               	movwf	_width+1,c
  2116  002FF0  0E00               	movlw	0
  2117  002FF2  6E41               	movwf	_width,c
  2118  002FF4  0060  F104  F045   	movff	_width,_flags
  2119  002FFA  0060  F108  F046   	movff	_width+1,_flags+1
  2120                           
  2121                           ;/opt/microchip/xc8/v2.05/pic/sources/c99/common/doprnt.c: 684:         prec = -1;
  2122  003000  6843               	setf	_prec,c
  2123  003002  6844               	setf	_prec+1,c
  2124                           
  2125                           ;/opt/microchip/xc8/v2.05/pic/sources/c99/common/doprnt.c: 757:         ct[0] = tolower(
      +                          (int)(*fmt)[0]);
  2126  003004  0060  F2C3  FFD9   	movff	vfpfcnvrt@fmt,fsr2l
  2127  00300A  0060  F2C7  FFDA   	movff	vfpfcnvrt@fmt+1,fsr2h
  2128  003010  006F FF7B FFF6     	movff	postinc2,tblptrl
  2129  003016  006F FF77 FFF7     	movff	postdec2,tblptrh
  2130  00301C                     	if	0	;tblptru may be non-zero
  2131  00301C                     	endif
  2132  00301C                     	if	1	;Program memory is > 0xFFFF, there are 3 active tblptr bytes
  2133  00301C  0E00               	movlw	low (__mediumconst shr (0+16))
  2134  00301E  6EF8               	movwf	tblptru,c
  2135  003020                     	endif
  2136  003020  0008               	tblrd		*
  2137  003022  50F5               	movf	tablat,w,c
  2138  003024  6E1A               	movwf	tolower@c,c
  2139  003026  6A1B               	clrf	tolower@c+1,c
  2140  003028  EC51  F026         	call	_tolower	;wreg free
  2141  00302C  501A               	movf	?_tolower,w,c
  2142  00302E  0100               	movlb	0	; () banked
  2143  003030  6FBA               	movwf	vfpfcnvrt@ct& (0+255),b
  2144                           
  2145                           ; BSR set to: 0
  2146                           ;/opt/microchip/xc8/v2.05/pic/sources/c99/common/doprnt.c: 758:         if (ct[0]) {
  2147  003032  51BA               	movf	vfpfcnvrt@ct& (0+255),w,b
  2148  003034  B4D8               	btfsc	status,2,c
  2149  003036  D045               	goto	l6083
  2150                           
  2151                           ; BSR set to: 0
  2152                           ;/opt/microchip/xc8/v2.05/pic/sources/c99/common/doprnt.c: 759:             ct[1] = tolo
      +                          wer((int)(*fmt)[1]);
  2153  003038  0060  F2C3  FFD9   	movff	vfpfcnvrt@fmt,fsr2l
  2154  00303E  0060  F2C7  FFDA   	movff	vfpfcnvrt@fmt+1,fsr2h
  2155  003044  006F FF78  F039    	movff	postinc2,??_vfpfcnvrt
  2156  00304A  006F FF74  F03A    	movff	postdec2,??_vfpfcnvrt+1
  2157  003050  0E01               	movlw	1
  2158  003052  2639               	addwf	??_vfpfcnvrt,f,c
  2159  003054  0E00               	movlw	0
  2160  003056  223A               	addwfc	??_vfpfcnvrt+1,f,c
  2161  003058  0060  F0E7  FFF6   	movff	??_vfpfcnvrt,tblptrl
  2162  00305E  0060  F0EB  FFF7   	movff	??_vfpfcnvrt+1,tblptrh
  2163  003064                     	if	0	;tblptru may be non-zero
  2164  003064                     	endif
  2165  003064                     	if	1	;Program memory is > 0xFFFF, there are 3 active tblptr bytes
  2166  003064  0E00               	movlw	low (__mediumconst shr (0+16))
  2167  003066  6EF8               	movwf	tblptru,c
  2168  003068                     	endif
  2169  003068  0008               	tblrd		*
  2170  00306A  50F5               	movf	tablat,w,c
  2171  00306C  6E1A               	movwf	tolower@c,c
  2172  00306E  6A1B               	clrf	tolower@c+1,c
  2173  003070  EC51  F026         	call	_tolower	;wreg free
  2174  003074  501A               	movf	?_tolower,w,c
  2175  003076  0100               	movlb	0	; () banked
  2176  003078  6FBB               	movwf	(vfpfcnvrt@ct+1)& (0+255),b
  2177                           
  2178                           ; BSR set to: 0
  2179                           ;/opt/microchip/xc8/v2.05/pic/sources/c99/common/doprnt.c: 760:             if (ct[1]) {
  2180  00307A  51BB               	movf	(vfpfcnvrt@ct+1)& (0+255),w,b
  2181  00307C  B4D8               	btfsc	status,2,c
  2182  00307E  D021               	goto	l6083
  2183                           
  2184                           ; BSR set to: 0
  2185                           ;/opt/microchip/xc8/v2.05/pic/sources/c99/common/doprnt.c: 761:                 ct[2] = 
      +                          tolower((int)(*fmt)[2]);
  2186  003080  0060  F2C3  FFD9   	movff	vfpfcnvrt@fmt,fsr2l
  2187  003086  0060  F2C7  FFDA   	movff	vfpfcnvrt@fmt+1,fsr2h
  2188  00308C  006F FF78  F039    	movff	postinc2,??_vfpfcnvrt
  2189  003092  006F FF74  F03A    	movff	postdec2,??_vfpfcnvrt+1
  2190  003098  0E02               	movlw	2
  2191  00309A  2639               	addwf	??_vfpfcnvrt,f,c
  2192  00309C  0E00               	movlw	0
  2193  00309E  223A               	addwfc	??_vfpfcnvrt+1,f,c
  2194  0030A0  0060  F0E7  FFF6   	movff	??_vfpfcnvrt,tblptrl
  2195  0030A6  0060  F0EB  FFF7   	movff	??_vfpfcnvrt+1,tblptrh
  2196  0030AC                     	if	0	;tblptru may be non-zero
  2197  0030AC                     	endif
  2198  0030AC                     	if	1	;Program memory is > 0xFFFF, there are 3 active tblptr bytes
  2199  0030AC  0E00               	movlw	low (__mediumconst shr (0+16))
  2200  0030AE  6EF8               	movwf	tblptru,c
  2201  0030B0                     	endif
  2202  0030B0  0008               	tblrd		*
  2203  0030B2  50F5               	movf	tablat,w,c
  2204  0030B4  6E1A               	movwf	tolower@c,c
  2205  0030B6  6A1B               	clrf	tolower@c+1,c
  2206  0030B8  EC51  F026         	call	_tolower	;wreg free
  2207  0030BC  501A               	movf	?_tolower,w,c
  2208  0030BE  0100               	movlb	0	; () banked
  2209  0030C0  6FBC               	movwf	(vfpfcnvrt@ct+2)& (0+255),b
  2210  0030C2                     l6083:
  2211                           
  2212                           ; BSR set to: 0
  2213                           ;/opt/microchip/xc8/v2.05/pic/sources/c99/common/doprnt.c: 920:         if (ct[0] == 'f'
      +                          ) {
  2214  0030C2  0E66               	movlw	102
  2215  0030C4  19BA               	xorwf	vfpfcnvrt@ct& (0+255),w,b
  2216  0030C6  A4D8               	btfss	status,2,c
  2217  0030C8  D05B               	goto	l6095
  2218                           
  2219                           ; BSR set to: 0
  2220                           ;/opt/microchip/xc8/v2.05/pic/sources/c99/common/doprnt.c: 922:             c = (*fmt)[0
      +                          ];
  2221  0030CA  0060  F2C3  FFD9   	movff	vfpfcnvrt@fmt,fsr2l
  2222  0030D0  0060  F2C7  FFDA   	movff	vfpfcnvrt@fmt+1,fsr2h
  2223  0030D6  006F FF7B FFF6     	movff	postinc2,tblptrl
  2224  0030DC  006F FF77 FFF7     	movff	postdec2,tblptrh
  2225  0030E2                     	if	0	;tblptru may be non-zero
  2226  0030E2                     	endif
  2227  0030E2                     	if	1	;Program memory is > 0xFFFF, there are 3 active tblptr bytes
  2228  0030E2  0E00               	movlw	low (__mediumconst shr (0+16))
  2229  0030E4  6EF8               	movwf	tblptru,c
  2230  0030E6                     	endif
  2231  0030E6  0008               	tblrd		*
  2232  0030E8  006F FFD4  F0BD    	movff	tablat,vfpfcnvrt@c
  2233                           
  2234                           ; BSR set to: 0
  2235                           ;/opt/microchip/xc8/v2.05/pic/sources/c99/common/doprnt.c: 923:             ++*fmt;
  2236  0030EE  0060  F2C3  FFD9   	movff	vfpfcnvrt@fmt,fsr2l
  2237  0030F4  0060  F2C7  FFDA   	movff	vfpfcnvrt@fmt+1,fsr2h
  2238  0030FA  2ADE               	incf	postinc2,f,c
  2239  0030FC  0E00               	movlw	0
  2240  0030FE  22DD               	addwfc	postdec2,f,c
  2241                           
  2242                           ; BSR set to: 0
  2243                           ;/opt/microchip/xc8/v2.05/pic/sources/c99/common/doprnt.c: 924:             f = (long do
      +                          uble)(*(double *)__va_arg(*(double **)ap, (double)0));
  2244  003100  0060  F2CB  FFD9   	movff	vfpfcnvrt@ap,fsr2l
  2245  003106  0060  F2CF  FFDA   	movff	vfpfcnvrt@ap+1,fsr2h
  2246  00310C  006F FF7C  F039    	movff	indf2,??_vfpfcnvrt
  2247  003112  0E04               	movlw	4
  2248  003114  26DE               	addwf	postinc2,f,c
  2249  003116  006F FF7C  F03A    	movff	indf2,??_vfpfcnvrt+1
  2250  00311C  0E00               	movlw	0
  2251  00311E  22DD               	addwfc	postdec2,f,c
  2252  003120  0060  F0E7  FFD9   	movff	??_vfpfcnvrt,fsr2l
  2253  003126  0060  F0EB  FFDA   	movff	??_vfpfcnvrt+1,fsr2h
  2254  00312C  006F FF78  F0B6    	movff	postinc2,vfpfcnvrt@f
  2255  003132  006F FF78  F0B7    	movff	postinc2,vfpfcnvrt@f+1
  2256  003138  006F FF78  F0B8    	movff	postinc2,vfpfcnvrt@f+2
  2257  00313E  006F FF78  F0B9    	movff	postinc2,vfpfcnvrt@f+3
  2258  003144                     l6091:
  2259                           
  2260                           ; BSR set to: 0
  2261                           ;/opt/microchip/xc8/v2.05/pic/sources/c99/common/doprnt.c: 926:             return efgto
      +                          a(fp, f, c);
  2262  003144  0060  F2B8  F06A   	movff	vfpfcnvrt@fp,efgtoa@fp
  2263  00314A  0060  F2BC  F06B   	movff	vfpfcnvrt@fp+1,efgtoa@fp+1
  2264  003150  0060  F2D8  F06C   	movff	vfpfcnvrt@f,efgtoa@f
  2265  003156  0060  F2DC  F06D   	movff	vfpfcnvrt@f+1,efgtoa@f+1
  2266  00315C  0060  F2E0  F06E   	movff	vfpfcnvrt@f+2,efgtoa@f+2
  2267  003162  0060  F2E4  F06F   	movff	vfpfcnvrt@f+3,efgtoa@f+3
  2268  003168  0060  F2F4  F070   	movff	vfpfcnvrt@c,efgtoa@c
  2269  00316E  EC56  F010         	call	_efgtoa	;wreg free
  2270  003172  0060  F1A8  F0AE   	movff	?_efgtoa,?_vfpfcnvrt
  2271  003178  0060  F1AC  F0AF   	movff	?_efgtoa+1,?_vfpfcnvrt+1
  2272  00317E  0012               	return	
  2273  003180                     l6095:
  2274                           
  2275                           ; BSR set to: 0
  2276                           ;/opt/microchip/xc8/v2.05/pic/sources/c99/common/doprnt.c: 928:         if (!strncmp(ct,
      +                           "lf", ((sizeof("lf")/sizeof("lf"[0]))-1))) {
  2277  003180  0EBA               	movlw	low vfpfcnvrt@ct
  2278  003182  6E14               	movwf	strncmp@_l,c
  2279  003184  0E00               	movlw	high vfpfcnvrt@ct
  2280  003186  6E15               	movwf	strncmp@_l+1,c
  2281  003188  0EA5               	movlw	low STR_18
  2282  00318A  6E16               	movwf	strncmp@_r,c
  2283  00318C  0E20               	movlw	high STR_18
  2284  00318E  6E17               	movwf	strncmp@_r+1,c
  2285  003190  0E00               	movlw	0
  2286  003192  6E19               	movwf	strncmp@n+1,c
  2287  003194  0E02               	movlw	2
  2288  003196  6E18               	movwf	strncmp@n,c
  2289  003198  EC32  F021         	call	_strncmp	;wreg free
  2290  00319C  5014               	movf	?_strncmp,w,c
  2291  00319E  1015               	iorwf	?_strncmp+1,w,c
  2292  0031A0  A4D8               	btfss	status,2,c
  2293  0031A2  D071               	goto	l6111
  2294                           
  2295                           ;/opt/microchip/xc8/v2.05/pic/sources/c99/common/doprnt.c: 931:             if ((0 ? isu
      +                          pper((int)(*fmt)[0]) : ((unsigned)((int)(*fmt)[0])-'A') < 26)) {
  2296  0031A4  0060  F2C3  FFD9   	movff	vfpfcnvrt@fmt,fsr2l
  2297  0031AA  0060  F2C7  FFDA   	movff	vfpfcnvrt@fmt+1,fsr2h
  2298  0031B0  006F FF78  F039    	movff	postinc2,??_vfpfcnvrt
  2299  0031B6  006F FF74  F03A    	movff	postdec2,??_vfpfcnvrt+1
  2300  0031BC  0E01               	movlw	1
  2301  0031BE  2639               	addwf	??_vfpfcnvrt,f,c
  2302  0031C0  0E00               	movlw	0
  2303  0031C2  223A               	addwfc	??_vfpfcnvrt+1,f,c
  2304  0031C4  0060  F0E7  FFF6   	movff	??_vfpfcnvrt,tblptrl
  2305  0031CA  0060  F0EB  FFF7   	movff	??_vfpfcnvrt+1,tblptrh
  2306  0031D0                     	if	0	;tblptru may be non-zero
  2307  0031D0                     	endif
  2308  0031D0                     	if	1	;Program memory is > 0xFFFF, there are 3 active tblptr bytes
  2309  0031D0  0E00               	movlw	low (__mediumconst shr (0+16))
  2310  0031D2  6EF8               	movwf	tblptru,c
  2311  0031D4                     	endif
  2312  0031D4  0008               	tblrd		*
  2313  0031D6  006F FFD4  F0BD    	movff	tablat,vfpfcnvrt@c
  2314  0031DC  0EBF               	movlw	191
  2315  0031DE  6E39               	movwf	??_vfpfcnvrt& (0+255),c
  2316  0031E0  0EFF               	movlw	255
  2317  0031E2  6E3A               	movwf	(??_vfpfcnvrt+1)& (0+255),c
  2318  0031E4  0060  F2C3  FFD9   	movff	vfpfcnvrt@fmt,fsr2l
  2319  0031EA  0060  F2C7  FFDA   	movff	vfpfcnvrt@fmt+1,fsr2h
  2320  0031F0  006F FF7B FFF6     	movff	postinc2,tblptrl
  2321  0031F6  006F FF77 FFF7     	movff	postdec2,tblptrh
  2322  0031FC                     	if	0	;tblptru may be non-zero
  2323  0031FC                     	endif
  2324  0031FC                     	if	1	;Program memory is > 0xFFFF, there are 3 active tblptr bytes
  2325  0031FC  0E00               	movlw	low (__mediumconst shr (0+16))
  2326  0031FE  6EF8               	movwf	tblptru,c
  2327  003200                     	endif
  2328  003200  0008               	tblrd		*
  2329  003202  50F5               	movf	tablat,w,c
  2330  003204  6E3B               	movwf	(??_vfpfcnvrt+2)& (0+255),c
  2331  003206  6A3C               	clrf	(??_vfpfcnvrt+3)& (0+255),c
  2332  003208  5039               	movf	??_vfpfcnvrt,w,c
  2333  00320A  263B               	addwf	??_vfpfcnvrt+2,f,c
  2334  00320C  503A               	movf	??_vfpfcnvrt+1,w,c
  2335  00320E  223C               	addwfc	??_vfpfcnvrt+3,f,c
  2336  003210  503C               	movf	??_vfpfcnvrt+3,w,c
  2337  003212  E106               	bnz	u8060
  2338  003214  0E1A               	movlw	26
  2339  003216  5C3B               	subwf	??_vfpfcnvrt+2,w,c
  2340  003218  B0D8               	btfsc	status,0,c
  2341  00321A  D002               	goto	u8060
  2342  00321C  0E01               	movlw	1
  2343  00321E  D001               	goto	u8070
  2344  003220                     u8060:
  2345  003220  0E00               	movlw	0
  2346  003222                     u8070:
  2347  003222  0100               	movlb	0	; () banked
  2348  003224  6FB4               	movwf	_vfpfcnvrt$1684& (0+255),b
  2349  003226  6BB5               	clrf	(_vfpfcnvrt$1684+1)& (0+255),b
  2350                           
  2351                           ; BSR set to: 0
  2352  003228  51B4               	movf	_vfpfcnvrt$1684& (0+255),w,b
  2353  00322A  11B5               	iorwf	(_vfpfcnvrt$1684+1)& (0+255),w,b
  2354                           
  2355                           ; BSR set to: 0
  2356                           ;/opt/microchip/xc8/v2.05/pic/sources/c99/common/doprnt.c: 934:                 f = (lon
      +                          g double)(*(double *)__va_arg(*(double **)ap, (double)0));
  2357                           
  2358                           ;/opt/microchip/xc8/v2.05/pic/sources/c99/common/doprnt.c: 933:             } else {
  2359                           
  2360                           ; BSR set to: 0
  2361                           ;/opt/microchip/xc8/v2.05/pic/sources/c99/common/doprnt.c: 932:                 f = (*(l
      +                          ong double *)__va_arg(*(long double **)ap, (long double)0));
  2362  00322C  0060  F2CB  FFD9   	movff	vfpfcnvrt@ap,fsr2l
  2363  003232  0060  F2CF  FFDA   	movff	vfpfcnvrt@ap+1,fsr2h
  2364  003238  006F FF7C  F039    	movff	indf2,??_vfpfcnvrt
  2365  00323E  0E04               	movlw	4
  2366  003240  26DE               	addwf	postinc2,f,c
  2367  003242  006F FF7C  F03A    	movff	indf2,??_vfpfcnvrt+1
  2368  003248  0E00               	movlw	0
  2369  00324A  22DD               	addwfc	postdec2,f,c
  2370  00324C  0060  F0E7  FFD9   	movff	??_vfpfcnvrt,fsr2l
  2371  003252  0060  F0EB  FFDA   	movff	??_vfpfcnvrt+1,fsr2h
  2372  003258  006F FF78  F0B6    	movff	postinc2,vfpfcnvrt@f
  2373  00325E  006F FF78  F0B7    	movff	postinc2,vfpfcnvrt@f+1
  2374  003264  006F FF78  F0B8    	movff	postinc2,vfpfcnvrt@f+2
  2375  00326A  006F FF78  F0B9    	movff	postinc2,vfpfcnvrt@f+3
  2376                           
  2377                           ; BSR set to: 0
  2378                           ;/opt/microchip/xc8/v2.05/pic/sources/c99/common/doprnt.c: 936:             *fmt += ((si
      +                          zeof("lf")/sizeof("lf"[0]))-1);
  2379                           
  2380                           ;/opt/microchip/xc8/v2.05/pic/sources/c99/common/doprnt.c: 935:             }
  2381  003270  0E02               	movlw	2
  2382  003272  0060  F2C3  FFD9   	movff	vfpfcnvrt@fmt,fsr2l
  2383  003278  0060  F2C7  FFDA   	movff	vfpfcnvrt@fmt+1,fsr2h
  2384  00327E  26DE               	addwf	postinc2,f,c
  2385  003280  0E00               	movlw	0
  2386  003282  22DD               	addwfc	postdec2,f,c
  2387  003284  D75F               	goto	l6091
  2388  003286                     l6111:
  2389                           
  2390                           ;/opt/microchip/xc8/v2.05/pic/sources/c99/common/doprnt.c: 1350:         if ((*fmt)[0] =
      +                          = '%') {
  2391  003286  0060  F2C3  FFD9   	movff	vfpfcnvrt@fmt,fsr2l
  2392  00328C  0060  F2C7  FFDA   	movff	vfpfcnvrt@fmt+1,fsr2h
  2393  003292  006F FF7B FFF6     	movff	postinc2,tblptrl
  2394  003298  006F FF77 FFF7     	movff	postdec2,tblptrh
  2395  00329E                     	if	0	;tblptru may be non-zero
  2396  00329E                     	endif
  2397  00329E                     	if	1	;Program memory is > 0xFFFF, there are 3 active tblptr bytes
  2398  00329E  0E00               	movlw	low (__mediumconst shr (0+16))
  2399  0032A0  6EF8               	movwf	tblptru,c
  2400  0032A2                     	endif
  2401  0032A2  0008               	tblrd		*
  2402  0032A4  50F5               	movf	tablat,w,c
  2403  0032A6  0A25               	xorlw	37
  2404  0032A8  A4D8               	btfss	status,2,c
  2405  0032AA  D01B               	goto	l6121
  2406                           
  2407                           ;/opt/microchip/xc8/v2.05/pic/sources/c99/common/doprnt.c: 1351:             ++*fmt;
  2408  0032AC  0060  F2C3  FFD9   	movff	vfpfcnvrt@fmt,fsr2l
  2409  0032B2  0060  F2C7  FFDA   	movff	vfpfcnvrt@fmt+1,fsr2h
  2410  0032B8  2ADE               	incf	postinc2,f,c
  2411  0032BA  0E00               	movlw	0
  2412  0032BC  22DD               	addwfc	postdec2,f,c
  2413                           
  2414                           ;/opt/microchip/xc8/v2.05/pic/sources/c99/common/doprnt.c: 1352:             fputc((int)
      +                          '%', fp);
  2415  0032BE  0E00               	movlw	0
  2416  0032C0  6E15               	movwf	fputc@c+1,c
  2417  0032C2  0E25               	movlw	37
  2418  0032C4  6E14               	movwf	fputc@c,c
  2419  0032C6  0060  F2B8  F016   	movff	vfpfcnvrt@fp,fputc@fp
  2420  0032CC  0060  F2BC  F017   	movff	vfpfcnvrt@fp+1,fputc@fp+1
  2421  0032D2  ECB0  F022         	call	_fputc	;wreg free
  2422  0032D6                     l6117:
  2423                           
  2424                           ;/opt/microchip/xc8/v2.05/pic/sources/c99/common/doprnt.c: 1353:             return 1;
  2425  0032D6  0E00               	movlw	0
  2426  0032D8  0100               	movlb	0	; () banked
  2427  0032DA  6FAF               	movwf	(?_vfpfcnvrt+1)& (0+255),b
  2428  0032DC  0E01               	movlw	1
  2429  0032DE  6FAE               	movwf	?_vfpfcnvrt& (0+255),b
  2430  0032E0  0012               	return	
  2431  0032E2                     l6121:
  2432                           
  2433                           ;/opt/microchip/xc8/v2.05/pic/sources/c99/common/doprnt.c: 1357:         ++*fmt;
  2434  0032E2  0060  F2C3  FFD9   	movff	vfpfcnvrt@fmt,fsr2l
  2435  0032E8  0060  F2C7  FFDA   	movff	vfpfcnvrt@fmt+1,fsr2h
  2436  0032EE  2ADE               	incf	postinc2,f,c
  2437  0032F0  0E00               	movlw	0
  2438  0032F2  22DD               	addwfc	postdec2,f,c
  2439                           
  2440                           ;/opt/microchip/xc8/v2.05/pic/sources/c99/common/doprnt.c: 1358:         return 0;
  2441  0032F4  0E00               	movlw	0
  2442  0032F6  0100               	movlb	0	; () banked
  2443  0032F8  6FAF               	movwf	(?_vfpfcnvrt+1)& (0+255),b
  2444  0032FA  0E00               	movlw	0
  2445  0032FC  6FAE               	movwf	?_vfpfcnvrt& (0+255),b
  2446  0032FE  0012               	return	
  2447  003300                     l6127:
  2448                           
  2449                           ;/opt/microchip/xc8/v2.05/pic/sources/c99/common/doprnt.c: 1362:     fputc((int)(*fmt)[0
      +                          ], fp);
  2450  003300  0060  F2C3  FFD9   	movff	vfpfcnvrt@fmt,fsr2l
  2451  003306  0060  F2C7  FFDA   	movff	vfpfcnvrt@fmt+1,fsr2h
  2452  00330C  006F FF7B FFF6     	movff	postinc2,tblptrl
  2453  003312  006F FF77 FFF7     	movff	postdec2,tblptrh
  2454  003318                     	if	0	;tblptru may be non-zero
  2455  003318                     	endif
  2456  003318                     	if	1	;Program memory is > 0xFFFF, there are 3 active tblptr bytes
  2457  003318  0E00               	movlw	low (__mediumconst shr (0+16))
  2458  00331A  6EF8               	movwf	tblptru,c
  2459  00331C                     	endif
  2460  00331C  0008               	tblrd		*
  2461  00331E  50F5               	movf	tablat,w,c
  2462  003320  6E14               	movwf	fputc@c,c
  2463  003322  6A15               	clrf	fputc@c+1,c
  2464  003324  0060  F2B8  F016   	movff	vfpfcnvrt@fp,fputc@fp
  2465  00332A  0060  F2BC  F017   	movff	vfpfcnvrt@fp+1,fputc@fp+1
  2466  003330  ECB0  F022         	call	_fputc	;wreg free
  2467                           
  2468                           ;/opt/microchip/xc8/v2.05/pic/sources/c99/common/doprnt.c: 1363:     ++*fmt;
  2469  003334  0060  F2C3  FFD9   	movff	vfpfcnvrt@fmt,fsr2l
  2470  00333A  0060  F2C7  FFDA   	movff	vfpfcnvrt@fmt+1,fsr2h
  2471  003340  2ADE               	incf	postinc2,f,c
  2472  003342  0E00               	movlw	0
  2473  003344  22DD               	addwfc	postdec2,f,c
  2474  003346  D7C7               	goto	l6117
  2475  003348                     __end_of_vfpfcnvrt:
  2476                           	opt callstack 0
  2477                           
  2478 ;; *************** function _strncmp *****************
  2479 ;; Defined at:
  2480 ;;		line 3 in file "/opt/microchip/xc8/v2.05/pic/sources/c99/common/strncmp.c"
  2481 ;; Parameters:    Size  Location     Type
  2482 ;;  _l              2   19[COMRAM] PTR const unsigned char 
  2483 ;;		 -> vfpfcnvrt@ct(3), 
  2484 ;;  _r              2   21[COMRAM] PTR const unsigned char 
  2485 ;;		 -> STR_20(3), 
  2486 ;;  n               2   23[COMRAM] unsigned int 
  2487 ;; Auto vars:     Size  Location     Type
  2488 ;;  r               2   28[COMRAM] PTR const unsigned char 
  2489 ;;		 -> STR_20(3), 
  2490 ;;  l               2   26[COMRAM] PTR const unsigned char 
  2491 ;;		 -> vfpfcnvrt@ct(3), 
  2492 ;; Return value:  Size  Location     Type
  2493 ;;                  2   19[COMRAM] int 
  2494 ;; Registers used:
  2495 ;;		wreg, fsr2l, fsr2h, status,2, status,0, tblptrl, tblptrh, tblptru
  2496 ;; Tracked objects:
  2497 ;;		On entry : 0/0
  2498 ;;		On exit  : 0/0
  2499 ;;		Unchanged: 0/0
  2500 ;; Data sizes:     COMRAM   BANK0   BANK1   BANK2   BANK3   BANK4   BANK5   BANK6   BANK7   BANK8   BANK9  BANK10  BANK1
      +1  BANK12  BANK13  BANK14  BANK15  BANK16  BANK17  BANK18  BANK19  BANK20  BANK21  BANK22  BANK23  BANK24  BANK25  BANK2
      +6  BANK27  BANK28  BANK29  BANK30  BANK31
  2501 ;;      Params:         6       0       0       0       0       0       0       0       0       0       0       0       
      +0       0       0       0       0       0       0       0       0       0       0       0       0       0       0       
      +0       0       0       0       0       0
  2502 ;;      Locals:         4       0       0       0       0       0       0       0       0       0       0       0       
      +0       0       0       0       0       0       0       0       0       0       0       0       0       0       0       
      +0       0       0       0       0       0
  2503 ;;      Temps:          1       0       0       0       0       0       0       0       0       0       0       0       
      +0       0       0       0       0       0       0       0       0       0       0       0       0       0       0       
      +0       0       0       0       0       0
  2504 ;;      Totals:        11       0       0       0       0       0       0       0       0       0       0       0       
      +0       0       0       0       0       0       0       0       0       0       0       0       0       0       0       
      +0       0       0       0       0       0
  2505 ;;Total ram usage:       11 bytes
  2506 ;; Hardware stack levels used:    1
  2507 ;; Hardware stack levels required when called:    2
  2508 ;; This function calls:
  2509 ;;		Nothing
  2510 ;; This function is called by:
  2511 ;;		_vfpfcnvrt
  2512 ;; This function uses a non-reentrant model
  2513 ;;
  2514                           
  2515                           	psect	text6
  2516  004264                     __ptext6:
  2517                           	opt callstack 0
  2518  004264                     _strncmp:
  2519                           	opt callstack 24
  2520                           
  2521                           ;incstack = 0
  2522  004264  0060  F050  F01B   	movff	strncmp@_l,strncmp@l
  2523  00426A  0060  F054  F01C   	movff	strncmp@_l+1,strncmp@l+1
  2524  004270  0060  F058  F01D   	movff	strncmp@_r,strncmp@r
  2525  004276  0060  F05C  F01E   	movff	strncmp@_r+1,strncmp@r+1
  2526  00427C  0618               	decf	strncmp@n,f,c
  2527  00427E  A0D8               	btfss	status,0,c
  2528  004280  0619               	decf	strncmp@n+1,f,c
  2529  004282  2818               	incf	strncmp@n,w,c
  2530  004284  E10F               	bnz	l6053
  2531  004286  2819               	incf	strncmp@n+1,w,c
  2532  004288  A4D8               	btfss	status,2,c
  2533  00428A  D00C               	goto	l6053
  2534  00428C  0E00               	movlw	0
  2535  00428E  6E15               	movwf	?_strncmp+1,c
  2536  004290  0E00               	movlw	0
  2537  004292  6E14               	movwf	?_strncmp,c
  2538  004294  0012               	return	
  2539  004296                     l6051:
  2540  004296  4A1B               	infsnz	strncmp@l,f,c
  2541  004298  2A1C               	incf	strncmp@l+1,f,c
  2542  00429A  4A1D               	infsnz	strncmp@r,f,c
  2543  00429C  2A1E               	incf	strncmp@r+1,f,c
  2544  00429E  0618               	decf	strncmp@n,f,c
  2545  0042A0  A0D8               	btfss	status,0,c
  2546  0042A2  0619               	decf	strncmp@n+1,f,c
  2547  0042A4                     l6053:
  2548  0042A4  0060  F06F  FFD9   	movff	strncmp@l,fsr2l
  2549  0042AA  0060  F073  FFDA   	movff	strncmp@l+1,fsr2h
  2550  0042B0  50DF               	movf	indf2,w,c
  2551  0042B2  B4D8               	btfsc	status,2,c
  2552  0042B4  D026               	goto	u8000
  2553  0042B6  0060  F077  FFF6   	movff	strncmp@r,tblptrl
  2554  0042BC  0060  F07B  FFF7   	movff	strncmp@r+1,tblptrh
  2555  0042C2                     	if	0	;tblptru may be non-zero
  2556  0042C2                     	endif
  2557  0042C2                     	if	1	;Program memory is > 0xFFFF, there are 3 active tblptr bytes
  2558  0042C2  0E00               	movlw	low (__mediumconst shr (0+16))
  2559  0042C4  6EF8               	movwf	tblptru,c
  2560  0042C6                     	endif
  2561  0042C6  0008               	tblrd		*
  2562  0042C8  50F5               	movf	tablat,w,c
  2563  0042CA  0900               	iorlw	0
  2564  0042CC  B4D8               	btfsc	status,2,c
  2565  0042CE  D019               	goto	u8000
  2566  0042D0  5018               	movf	strncmp@n,w,c
  2567  0042D2  1019               	iorwf	strncmp@n+1,w,c
  2568  0042D4  B4D8               	btfsc	status,2,c
  2569  0042D6  D015               	goto	u8000
  2570  0042D8  0060  F06F  FFD9   	movff	strncmp@l,fsr2l
  2571  0042DE  0060  F073  FFDA   	movff	strncmp@l+1,fsr2h
  2572  0042E4  50DF               	movf	indf2,w,c
  2573  0042E6  6E1A               	movwf	??_strncmp& (0+255),c
  2574  0042E8  0060  F077  FFF6   	movff	strncmp@r,tblptrl
  2575  0042EE  0060  F07B  FFF7   	movff	strncmp@r+1,tblptrh
  2576  0042F4                     	if	0	;tblptru may be non-zero
  2577  0042F4                     	endif
  2578  0042F4                     	if	1	;Program memory is > 0xFFFF, there are 3 active tblptr bytes
  2579  0042F4  0E00               	movlw	low (__mediumconst shr (0+16))
  2580  0042F6  6EF8               	movwf	tblptru,c
  2581  0042F8                     	endif
  2582  0042F8  0008               	tblrd		*
  2583  0042FA  50F5               	movf	tablat,w,c
  2584  0042FC  181A               	xorwf	??_strncmp,w,c
  2585  0042FE  B4D8               	btfsc	status,2,c
  2586  004300  D7CA               	goto	l6051
  2587  004302                     u8000:
  2588  004302  0060  F06F  FFD9   	movff	strncmp@l,fsr2l
  2589  004308  0060  F073  FFDA   	movff	strncmp@l+1,fsr2h
  2590  00430E  50DF               	movf	indf2,w,c
  2591  004310  6E1A               	movwf	??_strncmp& (0+255),c
  2592  004312  0060  F077  FFF6   	movff	strncmp@r,tblptrl
  2593  004318  0060  F07B  FFF7   	movff	strncmp@r+1,tblptrh
  2594  00431E                     	if	0	;tblptru may be non-zero
  2595  00431E                     	endif
  2596  00431E                     	if	1	;Program memory is > 0xFFFF, there are 3 active tblptr bytes
  2597  00431E  0E00               	movlw	low (__mediumconst shr (0+16))
  2598  004320  6EF8               	movwf	tblptru,c
  2599  004322                     	endif
  2600  004322  0008               	tblrd		*
  2601  004324  50F5               	movf	tablat,w,c
  2602  004326  5C1A               	subwf	??_strncmp,w,c
  2603  004328  6E14               	movwf	?_strncmp,c
  2604  00432A  6A15               	clrf	?_strncmp+1,c
  2605  00432C  A0D8               	btfss	status,0,c
  2606  00432E  0615               	decf	?_strncmp+1,f,c
  2607  004330  0012               	return		;funcret
  2608  004332                     __end_of_strncmp:
  2609                           	opt callstack 0
  2610                           
  2611 ;; *************** function _efgtoa *****************
  2612 ;; Defined at:
  2613 ;;		line 319 in file "/opt/microchip/xc8/v2.05/pic/sources/c99/common/doprnt.c"
  2614 ;; Parameters:    Size  Location     Type
  2615 ;;  fp              2   10[BANK0 ] PTR struct _IO_FILE
  2616 ;;		 -> sprintf@f(6), 
  2617 ;;  f               4   12[BANK0 ] PTR struct _IO_FILE
  2618 ;;  c               1   16[BANK0 ] unsigned char 
  2619 ;; Auto vars:     Size  Location     Type
  2620 ;;  u               4   74[BANK0 ] unsigned char 
  2621 ;;  g               4   66[BANK0 ] unsigned char 
  2622 ;;  l               4   60[BANK0 ] unsigned char 
  2623 ;;  h               4   56[BANK0 ] unsigned char 
  2624 ;;  ou              4   22[BANK0 ] unsigned char 
  2625 ;;  n               2   72[BANK0 ] int 
  2626 ;;  e               2   70[BANK0 ] int 
  2627 ;;  i               2   64[BANK0 ] int 
  2628 ;;  w               2   53[BANK0 ] int 
  2629 ;;  p               2   50[BANK0 ] int 
  2630 ;;  sign            2   48[BANK0 ] int 
  2631 ;;  d               2   46[BANK0 ] int 
  2632 ;;  ne              2   44[BANK0 ] int 
  2633 ;;  m               2   42[BANK0 ] int 
  2634 ;;  pp              2   40[BANK0 ] int 
  2635 ;;  t               2   38[BANK0 ] int 
  2636 ;;  mode            1   55[BANK0 ] unsigned char 
  2637 ;;  nmode           1   52[BANK0 ] unsigned char 
  2638 ;; Return value:  Size  Location     Type
  2639 ;;                  2   10[BANK0 ] int 
  2640 ;; Registers used:
  2641 ;;		wreg, fsr1l, fsr1h, fsr2l, fsr2h, status,2, status,0, tblptrl, tblptrh, tblptru, prodl, prodh, cstack
  2642 ;; Tracked objects:
  2643 ;;		On entry : 0/0
  2644 ;;		On exit  : 0/0
  2645 ;;		Unchanged: 0/0
  2646 ;; Data sizes:     COMRAM   BANK0   BANK1   BANK2   BANK3   BANK4   BANK5   BANK6   BANK7   BANK8   BANK9  BANK10  BANK1
      +1  BANK12  BANK13  BANK14  BANK15  BANK16  BANK17  BANK18  BANK19  BANK20  BANK21  BANK22  BANK23  BANK24  BANK25  BANK2
      +6  BANK27  BANK28  BANK29  BANK30  BANK31
  2647 ;;      Params:         0       7       0       0       0       0       0       0       0       0       0       0       
      +0       0       0       0       0       0       0       0       0       0       0       0       0       0       0       
      +0       0       0       0       0       0
  2648 ;;      Locals:         0      56       0       0       0       0       0       0       0       0       0       0       
      +0       0       0       0       0       0       0       0       0       0       0       0       0       0       0       
      +0       0       0       0       0       0
  2649 ;;      Temps:          0       5       0       0       0       0       0       0       0       0       0       0       
      +0       0       0       0       0       0       0       0       0       0       0       0       0       0       0       
      +0       0       0       0       0       0
  2650 ;;      Totals:         0      68       0       0       0       0       0       0       0       0       0       0       
      +0       0       0       0       0       0       0       0       0       0       0       0       0       0       0       
      +0       0       0       0       0       0
  2651 ;;Total ram usage:       68 bytes
  2652 ;; Hardware stack levels used:    1
  2653 ;; Hardware stack levels required when called:    6
  2654 ;; This function calls:
  2655 ;;		___awdiv
  2656 ;;		___awmod
  2657 ;;		___fladd
  2658 ;;		___fldiv
  2659 ;;		___fleq
  2660 ;;		___flge
  2661 ;;		___flmul
  2662 ;;		___flneg
  2663 ;;		___flsub
  2664 ;;		___fltol
  2665 ;;		___fpclassifyf
  2666 ;;		_floorf
  2667 ;;		_isupper
  2668 ;;		_pad
  2669 ;;		_strcpy
  2670 ;;		_tolower
  2671 ;; This function is called by:
  2672 ;;		_vfpfcnvrt
  2673 ;; This function uses a non-reentrant model
  2674 ;;
  2675                           
  2676                           	psect	text7
  2677  0020AC                     __ptext7:
  2678                           	opt callstack 0
  2679  0020AC                     _efgtoa:
  2680                           	opt callstack 20
  2681                           
  2682                           ;/opt/microchip/xc8/v2.05/pic/sources/c99/common/doprnt.c: 319: static int efgtoa(FILE *
      +                          fp, long double f, char c);/opt/microchip/xc8/v2.05/pic/sources/c99/common/doprnt.c: 320
      +                          : {;/opt/microchip/xc8/v2.05/pic/sources/c99/common/doprnt.c: 321:     char mode, nmode;
      +                          ;/opt/microchip/xc8/v2.05/pic/sources/c99/common/doprnt.c: 322:     int d, e, i, m, n, n
      +                          e, p, pp, sign, t, w;;/opt/microchip/xc8/v2.05/pic/sources/c99/common/doprnt.c: 323:    
      +                           long double g, h, l, ou, u;;/opt/microchip/xc8/v2.05/pic/sources/c99/common/doprnt.c: 3
      +                          26:     sign = 0;
  2683                           
  2684                           ;incstack = 0
  2685  0020AC  0E00               	movlw	0
  2686  0020AE  0100               	movlb	0	; () banked
  2687  0020B0  6F91               	movwf	(efgtoa@sign+1)& (0+255),b
  2688  0020B2  0E00               	movlw	0
  2689  0020B4  6F90               	movwf	efgtoa@sign& (0+255),b
  2690                           
  2691                           ; BSR set to: 0
  2692                           ;/opt/microchip/xc8/v2.05/pic/sources/c99/common/doprnt.c: 327:     g = f;
  2693  0020B6  0060  F1B0  F0A2   	movff	efgtoa@f,efgtoa@g
  2694  0020BC  0060  F1B4  F0A3   	movff	efgtoa@f+1,efgtoa@g+1
  2695  0020C2  0060  F1B8  F0A4   	movff	efgtoa@f+2,efgtoa@g+2
  2696  0020C8  0060  F1BC  F0A5   	movff	efgtoa@f+3,efgtoa@g+3
  2697                           
  2698                           ; BSR set to: 0
  2699                           ;/opt/microchip/xc8/v2.05/pic/sources/c99/common/doprnt.c: 328:     if (g < 0.0) {
  2700  0020CE  AFA5               	btfss	(efgtoa@g+3)& (0+255),7,b
  2701  0020D0  D01E               	goto	l5757
  2702                           
  2703                           ; BSR set to: 0
  2704                           ;/opt/microchip/xc8/v2.05/pic/sources/c99/common/doprnt.c: 329:         sign = 1;
  2705  0020D2  0E00               	movlw	0
  2706  0020D4  6F91               	movwf	(efgtoa@sign+1)& (0+255),b
  2707  0020D6  0E01               	movlw	1
  2708  0020D8  6F90               	movwf	efgtoa@sign& (0+255),b
  2709                           
  2710                           ; BSR set to: 0
  2711                           ;/opt/microchip/xc8/v2.05/pic/sources/c99/common/doprnt.c: 330:         g = -g;
  2712  0020DA  0060  F288  F014   	movff	efgtoa@g,___flneg@f1
  2713  0020E0  0060  F28C  F015   	movff	efgtoa@g+1,___flneg@f1+1
  2714  0020E6  0060  F290  F016   	movff	efgtoa@g+2,___flneg@f1+2
  2715  0020EC  0060  F294  F017   	movff	efgtoa@g+3,___flneg@f1+3
  2716  0020F2  ECB8  F026         	call	___flneg	;wreg free
  2717  0020F6  0060  F050  F0A2   	movff	?___flneg,efgtoa@g
  2718  0020FC  0060  F054  F0A3   	movff	?___flneg+1,efgtoa@g+1
  2719  002102  0060  F058  F0A4   	movff	?___flneg+2,efgtoa@g+2
  2720  002108  0060  F05C  F0A5   	movff	?___flneg+3,efgtoa@g+3
  2721  00210E                     l5757:
  2722                           
  2723                           ;/opt/microchip/xc8/v2.05/pic/sources/c99/common/doprnt.c: 334:     n = 0;
  2724  00210E  0E00               	movlw	0
  2725  002110  0100               	movlb	0	; () banked
  2726  002112  6FA9               	movwf	(efgtoa@n+1)& (0+255),b
  2727  002114  0E00               	movlw	0
  2728  002116  6FA8               	movwf	efgtoa@n& (0+255),b
  2729                           
  2730                           ; BSR set to: 0
  2731                           ;/opt/microchip/xc8/v2.05/pic/sources/c99/common/doprnt.c: 335:     w = width;
  2732  002118  0060  F104  F095   	movff	_width,efgtoa@w
  2733  00211E  0060  F108  F096   	movff	_width+1,efgtoa@w+1
  2734                           
  2735                           ; BSR set to: 0
  2736                           ;/opt/microchip/xc8/v2.05/pic/sources/c99/common/doprnt.c: 336:     if (sign || (flags &
      +                           (1 << 2))) {
  2737  002124  5190               	movf	efgtoa@sign& (0+255),w,b
  2738  002126  1191               	iorwf	(efgtoa@sign+1)& (0+255),w,b
  2739  002128  A4D8               	btfss	status,2,c
  2740  00212A  D002               	goto	u7460
  2741                           
  2742                           ; BSR set to: 0
  2743  00212C  A445               	btfss	_flags,2,c
  2744  00212E  D014               	goto	l5777
  2745  002130                     u7460:
  2746                           
  2747                           ; BSR set to: 0
  2748                           ;/opt/microchip/xc8/v2.05/pic/sources/c99/common/doprnt.c: 337:         dbuf[n] = sign ?
      +                           '-' : '+';
  2749  002130  5190               	movf	efgtoa@sign& (0+255),w,b
  2750  002132  1191               	iorwf	(efgtoa@sign+1)& (0+255),w,b
  2751  002134  A4D8               	btfss	status,2,c
  2752  002136  D004               	goto	l5769
  2753                           
  2754                           ; BSR set to: 0
  2755  002138  0E00               	movlw	0
  2756  00213A  6F7B               	movwf	(_efgtoa$1655+1)& (0+255),b
  2757  00213C  0E2B               	movlw	43
  2758  00213E  D003               	goto	L1
  2759  002140                     l5769:
  2760                           
  2761                           ; BSR set to: 0
  2762  002140  0E00               	movlw	0
  2763  002142  6F7B               	movwf	(_efgtoa$1655+1)& (0+255),b
  2764  002144  0E2D               	movlw	45
  2765  002146                     L1:
  2766  002146  6F7A               	movwf	_efgtoa$1655& (0+255),b
  2767                           
  2768                           ; BSR set to: 0
  2769  002148  0060  F1E8  F120   	movff	_efgtoa$1655,_dbuf
  2770                           
  2771                           ; BSR set to: 0
  2772                           ;/opt/microchip/xc8/v2.05/pic/sources/c99/common/doprnt.c: 338:         ++n;
  2773  00214E  4BA8               	infsnz	efgtoa@n& (0+255),f,b
  2774  002150  2BA9               	incf	(efgtoa@n+1)& (0+255),f,b
  2775                           
  2776                           ; BSR set to: 0
  2777                           ;/opt/microchip/xc8/v2.05/pic/sources/c99/common/doprnt.c: 339:         --w;
  2778  002152  0795               	decf	efgtoa@w& (0+255),f,b
  2779  002154  A0D8               	btfss	status,0,c
  2780  002156  0796               	decf	(efgtoa@w+1)& (0+255),f,b
  2781  002158                     l5777:
  2782                           
  2783                           ; BSR set to: 0
  2784                           ;/opt/microchip/xc8/v2.05/pic/sources/c99/common/doprnt.c: 344:         if ((0 ? isupper
      +                          ((int)c) : ((unsigned)((int)c)-'A') < 26)) {
  2785  002158  0060  F288  F014   	movff	efgtoa@g,___fpclassifyf@x
  2786  00215E  0060  F28C  F015   	movff	efgtoa@g+1,___fpclassifyf@x+1
  2787  002164  0060  F290  F016   	movff	efgtoa@g+2,___fpclassifyf@x+2
  2788  00216A  0060  F294  F017   	movff	efgtoa@g+3,___fpclassifyf@x+3
  2789  002170  EC54  F020         	call	___fpclassifyf	;wreg free
  2790  002174  0414               	decf	?___fpclassifyf,w,c
  2791  002176  1015               	iorwf	?___fpclassifyf+1,w,c
  2792  002178  A4D8               	btfss	status,2,c
  2793  00217A  D052               	goto	l5795
  2794  00217C  0EBF               	movlw	191
  2795  00217E  0100               	movlb	0	; () banked
  2796  002180  6F71               	movwf	??_efgtoa& (0+255),b
  2797  002182  0EFF               	movlw	255
  2798  002184  6F72               	movwf	(??_efgtoa+1)& (0+255),b
  2799  002186  5170               	movf	efgtoa@c& (0+255),w,b
  2800  002188  6F73               	movwf	(??_efgtoa+2)& (0+255),b
  2801  00218A  6B74               	clrf	(??_efgtoa+3)& (0+255),b
  2802  00218C  5171               	movf	??_efgtoa& (0+255),w,b
  2803  00218E  2773               	addwf	(??_efgtoa+2)& (0+255),f,b
  2804  002190  5172               	movf	(??_efgtoa+1)& (0+255),w,b
  2805  002192  2374               	addwfc	(??_efgtoa+3)& (0+255),f,b
  2806  002194  5174               	movf	(??_efgtoa+3)& (0+255),w,b
  2807  002196  E106               	bnz	u7490
  2808  002198  0E1A               	movlw	26
  2809  00219A  5D73               	subwf	(??_efgtoa+2)& (0+255),w,b
  2810  00219C  B0D8               	btfsc	status,0,c
  2811  00219E  D002               	goto	u7490
  2812  0021A0  0E01               	movlw	1
  2813  0021A2  D001               	goto	u7500
  2814  0021A4                     u7490:
  2815  0021A4  0E00               	movlw	0
  2816  0021A6                     u7500:
  2817  0021A6  6F7C               	movwf	_efgtoa$1656& (0+255),b
  2818  0021A8  6B7D               	clrf	(_efgtoa$1656+1)& (0+255),b
  2819                           
  2820                           ; BSR set to: 0
  2821  0021AA  517C               	movf	_efgtoa$1656& (0+255),w,b
  2822  0021AC  117D               	iorwf	(_efgtoa$1656+1)& (0+255),w,b
  2823  0021AE  B4D8               	btfsc	status,2,c
  2824  0021B0  D00D               	goto	l5787
  2825                           
  2826                           ; BSR set to: 0
  2827                           ;/opt/microchip/xc8/v2.05/pic/sources/c99/common/doprnt.c: 345:             strcpy(&dbuf
      +                          [n], "INF");
  2828  0021B2  0E20               	movlw	low _dbuf
  2829  0021B4  25A8               	addwf	efgtoa@n& (0+255),w,b
  2830  0021B6  6E14               	movwf	strcpy@dest,c
  2831  0021B8  0E01               	movlw	high _dbuf
  2832  0021BA  21A9               	addwfc	(efgtoa@n+1)& (0+255),w,b
  2833  0021BC  6E15               	movwf	strcpy@dest+1,c
  2834  0021BE  0E95               	movlw	low STR_10
  2835  0021C0  6E16               	movwf	strcpy@src,c
  2836  0021C2  0E20               	movlw	high STR_10
  2837  0021C4  6E17               	movwf	strcpy@src+1,c
  2838  0021C6  EC63  F025         	call	_strcpy	;wreg free
  2839                           
  2840                           ;/opt/microchip/xc8/v2.05/pic/sources/c99/common/doprnt.c: 346:         } else {
  2841  0021CA  D00C               	goto	l5789
  2842  0021CC                     l5787:
  2843                           
  2844                           ; BSR set to: 0
  2845                           ;/opt/microchip/xc8/v2.05/pic/sources/c99/common/doprnt.c: 347:             strcpy(&dbuf
      +                          [n], "inf");
  2846  0021CC  0E20               	movlw	low _dbuf
  2847  0021CE  25A8               	addwf	efgtoa@n& (0+255),w,b
  2848  0021D0  6E14               	movwf	strcpy@dest,c
  2849  0021D2  0E01               	movlw	high _dbuf
  2850  0021D4  21A9               	addwfc	(efgtoa@n+1)& (0+255),w,b
  2851  0021D6  6E15               	movwf	strcpy@dest+1,c
  2852  0021D8  0E9D               	movlw	low STR_11
  2853  0021DA  6E16               	movwf	strcpy@src,c
  2854  0021DC  0E20               	movlw	high STR_11
  2855  0021DE  6E17               	movwf	strcpy@src+1,c
  2856  0021E0  EC63  F025         	call	_strcpy	;wreg free
  2857  0021E4                     l5789:
  2858                           
  2859                           ;/opt/microchip/xc8/v2.05/pic/sources/c99/common/doprnt.c: 349:         w -= ((sizeof("i
      +                          nf")/sizeof("inf"[0]))-1);
  2860  0021E4  0100               	movlb	0	; () banked
  2861  0021E6  0EFD               	movlw	253
  2862  0021E8  2795               	addwf	efgtoa@w& (0+255),f,b
  2863  0021EA  0EFF               	movlw	255
  2864  0021EC  2396               	addwfc	(efgtoa@w+1)& (0+255),f,b
  2865  0021EE                     l5791:
  2866                           
  2867                           ;/opt/microchip/xc8/v2.05/pic/sources/c99/common/doprnt.c: 350:         return pad(fp, &
      +                          dbuf[0], w);
  2868  0021EE  0060  F1A8  F024   	movff	efgtoa@fp,pad@fp
  2869  0021F4  0060  F1AC  F025   	movff	efgtoa@fp+1,pad@fp+1
  2870  0021FA  0E20               	movlw	low _dbuf
  2871  0021FC  6E26               	movwf	pad@buf,c
  2872  0021FE  0E01               	movlw	high _dbuf
  2873  002200  6E27               	movwf	pad@buf+1,c
  2874  002202  0060  F254  F028   	movff	efgtoa@w,pad@p
  2875  002208  0060  F258  F029   	movff	efgtoa@w+1,pad@p+1
  2876  00220E  EC57  F022         	call	_pad	;wreg free
  2877  002212  0060  F090  F06A   	movff	?_pad,?_efgtoa
  2878  002218  0060  F094  F06B   	movff	?_pad+1,?_efgtoa+1
  2879  00221E  0012               	return	
  2880  002220                     l5795:
  2881                           
  2882                           ;/opt/microchip/xc8/v2.05/pic/sources/c99/common/doprnt.c: 353:         if ((0 ? isupper
      +                          ((int)c) : ((unsigned)((int)c)-'A') < 26)) {
  2883  002220  0060  F288  F014   	movff	efgtoa@g,___fpclassifyf@x
  2884  002226  0060  F28C  F015   	movff	efgtoa@g+1,___fpclassifyf@x+1
  2885  00222C  0060  F290  F016   	movff	efgtoa@g+2,___fpclassifyf@x+2
  2886  002232  0060  F294  F017   	movff	efgtoa@g+3,___fpclassifyf@x+3
  2887  002238  EC54  F020         	call	___fpclassifyf	;wreg free
  2888  00223C  5014               	movf	?___fpclassifyf,w,c
  2889  00223E  1015               	iorwf	?___fpclassifyf+1,w,c
  2890  002240  A4D8               	btfss	status,2,c
  2891  002242  D035               	goto	l5813
  2892  002244  0EBF               	movlw	191
  2893  002246  0100               	movlb	0	; () banked
  2894  002248  6F71               	movwf	??_efgtoa& (0+255),b
  2895  00224A  0EFF               	movlw	255
  2896  00224C  6F72               	movwf	(??_efgtoa+1)& (0+255),b
  2897  00224E  5170               	movf	efgtoa@c& (0+255),w,b
  2898  002250  6F73               	movwf	(??_efgtoa+2)& (0+255),b
  2899  002252  6B74               	clrf	(??_efgtoa+3)& (0+255),b
  2900  002254  5171               	movf	??_efgtoa& (0+255),w,b
  2901  002256  2773               	addwf	(??_efgtoa+2)& (0+255),f,b
  2902  002258  5172               	movf	(??_efgtoa+1)& (0+255),w,b
  2903  00225A  2374               	addwfc	(??_efgtoa+3)& (0+255),f,b
  2904  00225C  5174               	movf	(??_efgtoa+3)& (0+255),w,b
  2905  00225E  E106               	bnz	u7530
  2906  002260  0E1A               	movlw	26
  2907  002262  5D73               	subwf	(??_efgtoa+2)& (0+255),w,b
  2908  002264  B0D8               	btfsc	status,0,c
  2909  002266  D002               	goto	u7530
  2910  002268  0E01               	movlw	1
  2911  00226A  D001               	goto	u7540
  2912  00226C                     u7530:
  2913  00226C  0E00               	movlw	0
  2914  00226E                     u7540:
  2915  00226E  6F7E               	movwf	_efgtoa$1661& (0+255),b
  2916  002270  6B7F               	clrf	(_efgtoa$1661+1)& (0+255),b
  2917                           
  2918                           ; BSR set to: 0
  2919  002272  517E               	movf	_efgtoa$1661& (0+255),w,b
  2920  002274  117F               	iorwf	(_efgtoa$1661+1)& (0+255),w,b
  2921  002276  B4D8               	btfsc	status,2,c
  2922  002278  D00D               	goto	l5805
  2923                           
  2924                           ; BSR set to: 0
  2925                           ;/opt/microchip/xc8/v2.05/pic/sources/c99/common/doprnt.c: 354:             strcpy(&dbuf
      +                          [n], "NAN");
  2926  00227A  0E20               	movlw	low _dbuf
  2927  00227C  25A8               	addwf	efgtoa@n& (0+255),w,b
  2928  00227E  6E14               	movwf	strcpy@dest,c
  2929  002280  0E01               	movlw	high _dbuf
  2930  002282  21A9               	addwfc	(efgtoa@n+1)& (0+255),w,b
  2931  002284  6E15               	movwf	strcpy@dest+1,c
  2932  002286  0E99               	movlw	low STR_14
  2933  002288  6E16               	movwf	strcpy@src,c
  2934  00228A  0E20               	movlw	high STR_14
  2935  00228C  6E17               	movwf	strcpy@src+1,c
  2936  00228E  EC63  F025         	call	_strcpy	;wreg free
  2937                           
  2938                           ;/opt/microchip/xc8/v2.05/pic/sources/c99/common/doprnt.c: 355:         } else {
  2939  002292  D7A8               	goto	l5789
  2940  002294                     l5805:
  2941                           
  2942                           ; BSR set to: 0
  2943                           ;/opt/microchip/xc8/v2.05/pic/sources/c99/common/doprnt.c: 356:             strcpy(&dbuf
      +                          [n], "nan");
  2944  002294  0E20               	movlw	low _dbuf
  2945  002296  25A8               	addwf	efgtoa@n& (0+255),w,b
  2946  002298  6E14               	movwf	strcpy@dest,c
  2947  00229A  0E01               	movlw	high _dbuf
  2948  00229C  21A9               	addwfc	(efgtoa@n+1)& (0+255),w,b
  2949  00229E  6E15               	movwf	strcpy@dest+1,c
  2950  0022A0  0EA1               	movlw	low STR_15
  2951  0022A2  6E16               	movwf	strcpy@src,c
  2952  0022A4  0E20               	movlw	high STR_15
  2953  0022A6  6E17               	movwf	strcpy@src+1,c
  2954  0022A8  EC63  F025         	call	_strcpy	;wreg free
  2955  0022AC  D79B               	goto	l5789
  2956  0022AE                     l5813:
  2957                           
  2958                           ;/opt/microchip/xc8/v2.05/pic/sources/c99/common/doprnt.c: 363:     u = 1.0;
  2959  0022AE  0E00               	movlw	0
  2960  0022B0  0100               	movlb	0	; () banked
  2961  0022B2  6FAA               	movwf	efgtoa@u& (0+255),b
  2962  0022B4  0E00               	movlw	0
  2963  0022B6  6FAB               	movwf	(efgtoa@u+1)& (0+255),b
  2964  0022B8  0E80               	movlw	128
  2965  0022BA  6FAC               	movwf	(efgtoa@u+2)& (0+255),b
  2966  0022BC  0E3F               	movlw	63
  2967  0022BE  6FAD               	movwf	(efgtoa@u+3)& (0+255),b
  2968                           
  2969                           ;/opt/microchip/xc8/v2.05/pic/sources/c99/common/doprnt.c: 364:     e = 0;
  2970  0022C0  0E00               	movlw	0
  2971  0022C2  6FA7               	movwf	(efgtoa@e+1)& (0+255),b
  2972  0022C4  0E00               	movlw	0
  2973  0022C6  6FA6               	movwf	efgtoa@e& (0+255),b
  2974                           
  2975                           ; BSR set to: 0
  2976                           ;/opt/microchip/xc8/v2.05/pic/sources/c99/common/doprnt.c: 365:     if (!(g == 0.0)) {
  2977  0022C8  0060  F288  F014   	movff	efgtoa@g,___fleq@ff1
  2978  0022CE  0060  F28C  F015   	movff	efgtoa@g+1,___fleq@ff1+1
  2979  0022D4  0060  F290  F016   	movff	efgtoa@g+2,___fleq@ff1+2
  2980  0022DA  0060  F294  F017   	movff	efgtoa@g+3,___fleq@ff1+3
  2981  0022E0  0E00               	movlw	0
  2982  0022E2  6E18               	movwf	___fleq@ff2,c
  2983  0022E4  0E00               	movlw	0
  2984  0022E6  6E19               	movwf	___fleq@ff2+1,c
  2985  0022E8  0E00               	movlw	0
  2986  0022EA  6E1A               	movwf	___fleq@ff2+2,c
  2987  0022EC  0E00               	movlw	0
  2988  0022EE  6E1B               	movwf	___fleq@ff2+3,c
  2989  0022F0  ECF2  F023         	call	___fleq	;wreg free
  2990  0022F4  A0D8               	btfss	status,0,c
  2991  0022F6  D026               	goto	l5823
  2992  0022F8  D09A               	goto	u7580
  2993  0022FA                     l5819:
  2994                           
  2995                           ;/opt/microchip/xc8/v2.05/pic/sources/c99/common/doprnt.c: 367:             u = u*10.0;
  2996  0022FA  0060  F2A8  F014   	movff	efgtoa@u,___flmul@b
  2997  002300  0060  F2AC  F015   	movff	efgtoa@u+1,___flmul@b+1
  2998  002306  0060  F2B0  F016   	movff	efgtoa@u+2,___flmul@b+2
  2999  00230C  0060  F2B4  F017   	movff	efgtoa@u+3,___flmul@b+3
  3000  002312  0E00               	movlw	0
  3001  002314  6E18               	movwf	___flmul@a,c
  3002  002316  0E00               	movlw	0
  3003  002318  6E19               	movwf	___flmul@a+1,c
  3004  00231A  0E20               	movlw	32
  3005  00231C  6E1A               	movwf	___flmul@a+2,c
  3006  00231E  0E41               	movlw	65
  3007  002320  6E1B               	movwf	___flmul@a+3,c
  3008  002322  EC01  F016         	call	___flmul	;wreg free
  3009  002326  0060  F050  F0AA   	movff	?___flmul,efgtoa@u
  3010  00232C  0060  F054  F0AB   	movff	?___flmul+1,efgtoa@u+1
  3011  002332  0060  F058  F0AC   	movff	?___flmul+2,efgtoa@u+2
  3012  002338  0060  F05C  F0AD   	movff	?___flmul+3,efgtoa@u+3
  3013                           
  3014                           ;/opt/microchip/xc8/v2.05/pic/sources/c99/common/doprnt.c: 368:             ++e;
  3015  00233E  0100               	movlb	0	; () banked
  3016  002340  4BA6               	infsnz	efgtoa@e& (0+255),f,b
  3017  002342  2BA7               	incf	(efgtoa@e+1)& (0+255),f,b
  3018  002344                     l5823:
  3019                           
  3020                           ;/opt/microchip/xc8/v2.05/pic/sources/c99/common/doprnt.c: 366:         while (!(g < (u*
      +                          10.0))) {
  3021  002344  0060  F288  F02D   	movff	efgtoa@g,___flge@ff1
  3022  00234A  0060  F28C  F02E   	movff	efgtoa@g+1,___flge@ff1+1
  3023  002350  0060  F290  F02F   	movff	efgtoa@g+2,___flge@ff1+2
  3024  002356  0060  F294  F030   	movff	efgtoa@g+3,___flge@ff1+3
  3025  00235C  0E00               	movlw	0
  3026  00235E  6E18               	movwf	___flmul@a,c
  3027  002360  0E00               	movlw	0
  3028  002362  6E19               	movwf	___flmul@a+1,c
  3029  002364  0E20               	movlw	32
  3030  002366  6E1A               	movwf	___flmul@a+2,c
  3031  002368  0E41               	movlw	65
  3032  00236A  6E1B               	movwf	___flmul@a+3,c
  3033  00236C  0060  F2A8  F014   	movff	efgtoa@u,___flmul@b
  3034  002372  0060  F2AC  F015   	movff	efgtoa@u+1,___flmul@b+1
  3035  002378  0060  F2B0  F016   	movff	efgtoa@u+2,___flmul@b+2
  3036  00237E  0060  F2B4  F017   	movff	efgtoa@u+3,___flmul@b+3
  3037  002384  EC01  F016         	call	___flmul	;wreg free
  3038  002388  0060  F050  F031   	movff	?___flmul,___flge@ff2
  3039  00238E  0060  F054  F032   	movff	?___flmul+1,___flge@ff2+1
  3040  002394  0060  F058  F033   	movff	?___flmul+2,___flge@ff2+2
  3041  00239A  0060  F05C  F034   	movff	?___flmul+3,___flge@ff2+3
  3042  0023A0  ECCA  F020         	call	___flge	;wreg free
  3043  0023A4  A0D8               	btfss	status,0,c
  3044  0023A6  D027               	goto	l5829
  3045  0023A8  D7A8               	goto	l5819
  3046  0023AA                     l5825:
  3047                           
  3048                           ;/opt/microchip/xc8/v2.05/pic/sources/c99/common/doprnt.c: 371:             u = u/10.0;
  3049  0023AA  0060  F2A8  F014   	movff	efgtoa@u,___fldiv@b
  3050  0023B0  0060  F2AC  F015   	movff	efgtoa@u+1,___fldiv@b+1
  3051  0023B6  0060  F2B0  F016   	movff	efgtoa@u+2,___fldiv@b+2
  3052  0023BC  0060  F2B4  F017   	movff	efgtoa@u+3,___fldiv@b+3
  3053  0023C2  0E00               	movlw	0
  3054  0023C4  6E18               	movwf	___fldiv@a,c
  3055  0023C6  0E00               	movlw	0
  3056  0023C8  6E19               	movwf	___fldiv@a+1,c
  3057  0023CA  0E20               	movlw	32
  3058  0023CC  6E1A               	movwf	___fldiv@a+2,c
  3059  0023CE  0E41               	movlw	65
  3060  0023D0  6E1B               	movwf	___fldiv@a+3,c
  3061  0023D2  EC48  F01B         	call	___fldiv	;wreg free
  3062  0023D6  0060  F050  F0AA   	movff	?___fldiv,efgtoa@u
  3063  0023DC  0060  F054  F0AB   	movff	?___fldiv+1,efgtoa@u+1
  3064  0023E2  0060  F058  F0AC   	movff	?___fldiv+2,efgtoa@u+2
  3065  0023E8  0060  F05C  F0AD   	movff	?___fldiv+3,efgtoa@u+3
  3066                           
  3067                           ;/opt/microchip/xc8/v2.05/pic/sources/c99/common/doprnt.c: 372:             --e;
  3068  0023EE  0100               	movlb	0	; () banked
  3069  0023F0  07A6               	decf	efgtoa@e& (0+255),f,b
  3070  0023F2  A0D8               	btfss	status,0,c
  3071  0023F4  07A7               	decf	(efgtoa@e+1)& (0+255),f,b
  3072  0023F6                     l5829:
  3073                           
  3074                           ;/opt/microchip/xc8/v2.05/pic/sources/c99/common/doprnt.c: 370:         while (g < u) {
  3075  0023F6  0060  F288  F02D   	movff	efgtoa@g,___flge@ff1
  3076  0023FC  0060  F28C  F02E   	movff	efgtoa@g+1,___flge@ff1+1
  3077  002402  0060  F290  F02F   	movff	efgtoa@g+2,___flge@ff1+2
  3078  002408  0060  F294  F030   	movff	efgtoa@g+3,___flge@ff1+3
  3079  00240E  0060  F2A8  F031   	movff	efgtoa@u,___flge@ff2
  3080  002414  0060  F2AC  F032   	movff	efgtoa@u+1,___flge@ff2+1
  3081  00241A  0060  F2B0  F033   	movff	efgtoa@u+2,___flge@ff2+2
  3082  002420  0060  F2B4  F034   	movff	efgtoa@u+3,___flge@ff2+3
  3083  002426  ECCA  F020         	call	___flge	;wreg free
  3084  00242A  A0D8               	btfss	status,0,c
  3085  00242C  D7BE               	goto	l5825
  3086  00242E                     u7580:
  3087                           
  3088                           ;/opt/microchip/xc8/v2.05/pic/sources/c99/common/doprnt.c: 377:     mode = tolower((int)
      +                          c);
  3089  00242E  0060  F1C0  F01A   	movff	efgtoa@c,tolower@c
  3090  002434  6A1B               	clrf	tolower@c+1,c
  3091  002436  EC51  F026         	call	_tolower	;wreg free
  3092  00243A  501A               	movf	?_tolower,w,c
  3093  00243C  0100               	movlb	0	; () banked
  3094  00243E  6F97               	movwf	efgtoa@mode& (0+255),b
  3095                           
  3096                           ; BSR set to: 0
  3097                           ;/opt/microchip/xc8/v2.05/pic/sources/c99/common/doprnt.c: 378:     nmode = mode;
  3098  002440  0060  F25C  F094   	movff	efgtoa@mode,efgtoa@nmode
  3099                           
  3100                           ; BSR set to: 0
  3101                           ;/opt/microchip/xc8/v2.05/pic/sources/c99/common/doprnt.c: 379:     if (mode == 'g') {
  3102  002446  0E67               	movlw	103
  3103  002448  1997               	xorwf	efgtoa@mode& (0+255),w,b
  3104  00244A  A4D8               	btfss	status,2,c
  3105  00244C  D01B               	goto	l5845
  3106                           
  3107                           ; BSR set to: 0
  3108                           ;/opt/microchip/xc8/v2.05/pic/sources/c99/common/doprnt.c: 380:   if (prec == 0) {
  3109  00244E  5043               	movf	_prec,w,c
  3110  002450  1044               	iorwf	_prec+1,w,c
  3111  002452  A4D8               	btfss	status,2,c
  3112  002454  D004               	goto	l5841
  3113                           
  3114                           ; BSR set to: 0
  3115                           ;/opt/microchip/xc8/v2.05/pic/sources/c99/common/doprnt.c: 381:    prec = 1;
  3116  002456  0E00               	movlw	0
  3117  002458  6E44               	movwf	_prec+1,c
  3118  00245A  0E01               	movlw	1
  3119  00245C  6E43               	movwf	_prec,c
  3120  00245E                     l5841:
  3121                           
  3122                           ; BSR set to: 0
  3123                           ;/opt/microchip/xc8/v2.05/pic/sources/c99/common/doprnt.c: 383:         p = (0 < prec) ?
      +                           prec : 6;
  3124  00245E  BE44               	btfsc	_prec+1,7,c
  3125  002460  D005               	goto	u7610
  3126  002462  5044               	movf	_prec+1,w,c
  3127  002464  E108               	bnz	l539
  3128  002466  0443               	decf	_prec,w,c
  3129  002468  B0D8               	btfsc	status,0,c
  3130  00246A  D005               	goto	l539
  3131  00246C                     u7610:
  3132                           
  3133                           ; BSR set to: 0
  3134  00246C  0E00               	movlw	0
  3135  00246E  6F93               	movwf	(efgtoa@p+1)& (0+255),b
  3136  002470  0E06               	movlw	6
  3137  002472  6F92               	movwf	efgtoa@p& (0+255),b
  3138  002474  D00A               	goto	l5851
  3139  002476                     l539:
  3140                           
  3141                           ; BSR set to: 0
  3142  002476  0060  F10C  F092   	movff	_prec,efgtoa@p
  3143  00247C  0060  F110  F093   	movff	_prec+1,efgtoa@p+1
  3144  002482  D003               	goto	l5851
  3145  002484                     l5845:
  3146                           
  3147                           ; BSR set to: 0
  3148                           ;/opt/microchip/xc8/v2.05/pic/sources/c99/common/doprnt.c: 385:         p = (prec < 0) ?
      +                           6 : prec;
  3149  002484  AE44               	btfss	_prec+1,7,c
  3150  002486  D7F7               	goto	l539
  3151  002488  D7F1               	goto	u7610
  3152  00248A                     l5851:
  3153                           
  3154                           ; BSR set to: 0
  3155                           ;/opt/microchip/xc8/v2.05/pic/sources/c99/common/doprnt.c: 389:     if (mode == 'g') {
  3156  00248A  0E67               	movlw	103
  3157  00248C  1997               	xorwf	efgtoa@mode& (0+255),w,b
  3158  00248E  A4D8               	btfss	status,2,c
  3159  002490  D024               	goto	l5861
  3160                           
  3161                           ; BSR set to: 0
  3162                           ;/opt/microchip/xc8/v2.05/pic/sources/c99/common/doprnt.c: 390:         if (!(e < -4) &&
      +                           !((p - 1) < e)) {
  3163  002492  AFA7               	btfss	(efgtoa@e+1)& (0+255),7,b
  3164  002494  D006               	goto	u7640
  3165  002496  0EFC               	movlw	252
  3166  002498  5DA6               	subwf	efgtoa@e& (0+255),w,b
  3167  00249A  0EFF               	movlw	255
  3168  00249C  59A7               	subwfb	(efgtoa@e+1)& (0+255),w,b
  3169  00249E  A0D8               	btfss	status,0,c
  3170  0024A0  D01A               	goto	l5859
  3171  0024A2                     u7640:
  3172                           
  3173                           ; BSR set to: 0
  3174  0024A2  0EFF               	movlw	255
  3175  0024A4  6F71               	movwf	??_efgtoa& (0+255),b
  3176  0024A6  0EFF               	movlw	255
  3177  0024A8  6F72               	movwf	(??_efgtoa+1)& (0+255),b
  3178  0024AA  0060  F248  F073   	movff	efgtoa@p,??_efgtoa+2
  3179  0024B0  0060  F24C  F074   	movff	efgtoa@p+1,??_efgtoa+3
  3180  0024B6  5171               	movf	??_efgtoa& (0+255),w,b
  3181  0024B8  2773               	addwf	(??_efgtoa+2)& (0+255),f,b
  3182  0024BA  5172               	movf	(??_efgtoa+1)& (0+255),w,b
  3183  0024BC  2374               	addwfc	(??_efgtoa+3)& (0+255),f,b
  3184  0024BE  51A6               	movf	efgtoa@e& (0+255),w,b
  3185  0024C0  5D73               	subwf	(??_efgtoa+2)& (0+255),w,b
  3186  0024C2  5174               	movf	(??_efgtoa+3)& (0+255),w,b
  3187  0024C4  0A80               	xorlw	128
  3188  0024C6  6F75               	movwf	(??_efgtoa+4)& (0+255),b
  3189  0024C8  51A7               	movf	(efgtoa@e+1)& (0+255),w,b
  3190  0024CA  0A80               	xorlw	128
  3191  0024CC  5975               	subwfb	(??_efgtoa+4)& (0+255),w,b
  3192  0024CE  A0D8               	btfss	status,0,c
  3193  0024D0  D002               	goto	l5859
  3194                           
  3195                           ; BSR set to: 0
  3196                           ;/opt/microchip/xc8/v2.05/pic/sources/c99/common/doprnt.c: 391:             nmode = 'f';
  3197  0024D2  0E66               	movlw	102
  3198  0024D4  D001               	goto	L2
  3199  0024D6                     l5859:
  3200                           
  3201                           ; BSR set to: 0
  3202                           ;/opt/microchip/xc8/v2.05/pic/sources/c99/common/doprnt.c: 393:             nmode = 'e';
  3203  0024D6  0E65               	movlw	101
  3204  0024D8                     L2:
  3205  0024D8  6F94               	movwf	efgtoa@nmode& (0+255),b
  3206  0024DA                     l5861:
  3207                           
  3208                           ; BSR set to: 0
  3209                           ;/opt/microchip/xc8/v2.05/pic/sources/c99/common/doprnt.c: 398:     m = p;
  3210  0024DA  0060  F248  F08A   	movff	efgtoa@p,efgtoa@m
  3211  0024E0  0060  F24C  F08B   	movff	efgtoa@p+1,efgtoa@m+1
  3212                           
  3213                           ; BSR set to: 0
  3214                           ;/opt/microchip/xc8/v2.05/pic/sources/c99/common/doprnt.c: 399:     if (!(mode == 'g') |
      +                          | ((nmode == 'f') && (e < 0))) {
  3215  0024E6  0E67               	movlw	103
  3216  0024E8  1997               	xorwf	efgtoa@mode& (0+255),w,b
  3217  0024EA  A4D8               	btfss	status,2,c
  3218  0024EC  D005               	goto	u7680
  3219                           
  3220                           ; BSR set to: 0
  3221  0024EE  0E66               	movlw	102
  3222  0024F0  1994               	xorwf	efgtoa@nmode& (0+255),w,b
  3223  0024F2  B4D8               	btfsc	status,2,c
  3224                           
  3225                           ; BSR set to: 0
  3226  0024F4  AFA7               	btfss	(efgtoa@e+1)& (0+255),7,b
  3227  0024F6  D002               	goto	l5871
  3228  0024F8                     u7680:
  3229                           
  3230                           ; BSR set to: 0
  3231                           ;/opt/microchip/xc8/v2.05/pic/sources/c99/common/doprnt.c: 400:         ++m;
  3232  0024F8  4B8A               	infsnz	efgtoa@m& (0+255),f,b
  3233  0024FA  2B8B               	incf	(efgtoa@m+1)& (0+255),f,b
  3234  0024FC                     l5871:
  3235                           
  3236                           ; BSR set to: 0
  3237                           ;/opt/microchip/xc8/v2.05/pic/sources/c99/common/doprnt.c: 404:     if (nmode == 'f') {
  3238  0024FC  0E66               	movlw	102
  3239  0024FE  1994               	xorwf	efgtoa@nmode& (0+255),w,b
  3240  002500  A4D8               	btfss	status,2,c
  3241  002502  D016               	goto	l5881
  3242                           
  3243                           ; BSR set to: 0
  3244                           ;/opt/microchip/xc8/v2.05/pic/sources/c99/common/doprnt.c: 405:         if (e < 0) {
  3245  002504  AFA7               	btfss	(efgtoa@e+1)& (0+255),7,b
  3246  002506  D00C               	goto	l5877
  3247                           
  3248                           ; BSR set to: 0
  3249                           ;/opt/microchip/xc8/v2.05/pic/sources/c99/common/doprnt.c: 406:             u = 1.0;
  3250  002508  0E00               	movlw	0
  3251  00250A  6FAA               	movwf	efgtoa@u& (0+255),b
  3252  00250C  0E00               	movlw	0
  3253  00250E  6FAB               	movwf	(efgtoa@u+1)& (0+255),b
  3254  002510  0E80               	movlw	128
  3255  002512  6FAC               	movwf	(efgtoa@u+2)& (0+255),b
  3256  002514  0E3F               	movlw	63
  3257  002516  6FAD               	movwf	(efgtoa@u+3)& (0+255),b
  3258                           
  3259                           ;/opt/microchip/xc8/v2.05/pic/sources/c99/common/doprnt.c: 407:             e = 0;
  3260  002518  0E00               	movlw	0
  3261  00251A  6FA7               	movwf	(efgtoa@e+1)& (0+255),b
  3262  00251C  0E00               	movlw	0
  3263  00251E  6FA6               	movwf	efgtoa@e& (0+255),b
  3264  002520                     l5877:
  3265                           
  3266                           ; BSR set to: 0
  3267                           ;/opt/microchip/xc8/v2.05/pic/sources/c99/common/doprnt.c: 409:         if (!(mode == 'g
      +                          ')) {
  3268  002520  0E67               	movlw	103
  3269  002522  1997               	xorwf	efgtoa@mode& (0+255),w,b
  3270  002524  B4D8               	btfsc	status,2,c
  3271  002526  D004               	goto	l5881
  3272                           
  3273                           ; BSR set to: 0
  3274                           ;/opt/microchip/xc8/v2.05/pic/sources/c99/common/doprnt.c: 410:             m += e;
  3275  002528  51A6               	movf	efgtoa@e& (0+255),w,b
  3276  00252A  278A               	addwf	efgtoa@m& (0+255),f,b
  3277  00252C  51A7               	movf	(efgtoa@e+1)& (0+255),w,b
  3278  00252E  238B               	addwfc	(efgtoa@m+1)& (0+255),f,b
  3279  002530                     l5881:
  3280                           
  3281                           ; BSR set to: 0
  3282                           ;/opt/microchip/xc8/v2.05/pic/sources/c99/common/doprnt.c: 415:     i = 0;
  3283  002530  0E00               	movlw	0
  3284  002532  6FA1               	movwf	(efgtoa@i+1)& (0+255),b
  3285  002534  0E00               	movlw	0
  3286  002536  6FA0               	movwf	efgtoa@i& (0+255),b
  3287                           
  3288                           ; BSR set to: 0
  3289                           ;/opt/microchip/xc8/v2.05/pic/sources/c99/common/doprnt.c: 416:     h = g;
  3290  002538  0060  F288  F098   	movff	efgtoa@g,efgtoa@h
  3291  00253E  0060  F28C  F099   	movff	efgtoa@g+1,efgtoa@h+1
  3292  002544  0060  F290  F09A   	movff	efgtoa@g+2,efgtoa@h+2
  3293  00254A  0060  F294  F09B   	movff	efgtoa@g+3,efgtoa@h+3
  3294                           
  3295                           ; BSR set to: 0
  3296                           ;/opt/microchip/xc8/v2.05/pic/sources/c99/common/doprnt.c: 417:     ou = u;
  3297  002550  0060  F2A8  F076   	movff	efgtoa@u,efgtoa@ou
  3298  002556  0060  F2AC  F077   	movff	efgtoa@u+1,efgtoa@ou+1
  3299  00255C  0060  F2B0  F078   	movff	efgtoa@u+2,efgtoa@ou+2
  3300  002562  0060  F2B4  F079   	movff	efgtoa@u+3,efgtoa@ou+3
  3301                           
  3302                           ;/opt/microchip/xc8/v2.05/pic/sources/c99/common/doprnt.c: 418:     while (i < m) {
  3303  002568  D0AD               	goto	l5895
  3304  00256A                     l5887:
  3305                           
  3306                           ; BSR set to: 0
  3307                           ;/opt/microchip/xc8/v2.05/pic/sources/c99/common/doprnt.c: 419:         l = floorf(h/u);
  3308  00256A  0060  F260  F014   	movff	efgtoa@h,___fldiv@b
  3309  002570  0060  F264  F015   	movff	efgtoa@h+1,___fldiv@b+1
  3310  002576  0060  F268  F016   	movff	efgtoa@h+2,___fldiv@b+2
  3311  00257C  0060  F26C  F017   	movff	efgtoa@h+3,___fldiv@b+3
  3312  002582  0060  F2A8  F018   	movff	efgtoa@u,___fldiv@a
  3313  002588  0060  F2AC  F019   	movff	efgtoa@u+1,___fldiv@a+1
  3314  00258E  0060  F2B0  F01A   	movff	efgtoa@u+2,___fldiv@a+2
  3315  002594  0060  F2B4  F01B   	movff	efgtoa@u+3,___fldiv@a+3
  3316  00259A  EC48  F01B         	call	___fldiv	;wreg free
  3317  00259E  0060  F050  F02D   	movff	?___fldiv,floorf@x
  3318  0025A4  0060  F054  F02E   	movff	?___fldiv+1,floorf@x+1
  3319  0025AA  0060  F058  F02F   	movff	?___fldiv+2,floorf@x+2
  3320  0025B0  0060  F05C  F030   	movff	?___fldiv+3,floorf@x+3
  3321  0025B6  ECB4  F01D         	call	_floorf	;wreg free
  3322  0025BA  0060  F0B4  F09C   	movff	?_floorf,efgtoa@l
  3323  0025C0  0060  F0B8  F09D   	movff	?_floorf+1,efgtoa@l+1
  3324  0025C6  0060  F0BC  F09E   	movff	?_floorf+2,efgtoa@l+2
  3325  0025CC  0060  F0C0  F09F   	movff	?_floorf+3,efgtoa@l+3
  3326                           
  3327                           ;/opt/microchip/xc8/v2.05/pic/sources/c99/common/doprnt.c: 420:         d = (int)l;
  3328  0025D2  0060  F270  F014   	movff	efgtoa@l,___fltol@f1
  3329  0025D8  0060  F274  F015   	movff	efgtoa@l+1,___fltol@f1+1
  3330  0025DE  0060  F278  F016   	movff	efgtoa@l+2,___fltol@f1+2
  3331  0025E4  0060  F27C  F017   	movff	efgtoa@l+3,___fltol@f1+3
  3332  0025EA  EC99  F021         	call	___fltol	;wreg free
  3333  0025EE  0060  F050  F08E   	movff	?___fltol,efgtoa@d
  3334  0025F4  0060  F054  F08F   	movff	?___fltol+1,efgtoa@d+1
  3335                           
  3336                           ;/opt/microchip/xc8/v2.05/pic/sources/c99/common/doprnt.c: 421:         h -= l*u;
  3337  0025FA  0060  F260  F02D   	movff	efgtoa@h,___flsub@b
  3338  002600  0060  F264  F02E   	movff	efgtoa@h+1,___flsub@b+1
  3339  002606  0060  F268  F02F   	movff	efgtoa@h+2,___flsub@b+2
  3340  00260C  0060  F26C  F030   	movff	efgtoa@h+3,___flsub@b+3
  3341  002612  0060  F2A8  F018   	movff	efgtoa@u,___flmul@a
  3342  002618  0060  F2AC  F019   	movff	efgtoa@u+1,___flmul@a+1
  3343  00261E  0060  F2B0  F01A   	movff	efgtoa@u+2,___flmul@a+2
  3344  002624  0060  F2B4  F01B   	movff	efgtoa@u+3,___flmul@a+3
  3345  00262A  0060  F270  F014   	movff	efgtoa@l,___flmul@b
  3346  002630  0060  F274  F015   	movff	efgtoa@l+1,___flmul@b+1
  3347  002636  0060  F278  F016   	movff	efgtoa@l+2,___flmul@b+2
  3348  00263C  0060  F27C  F017   	movff	efgtoa@l+3,___flmul@b+3
  3349  002642  EC01  F016         	call	___flmul	;wreg free
  3350  002646  0060  F050  F031   	movff	?___flmul,___flsub@a
  3351  00264C  0060  F054  F032   	movff	?___flmul+1,___flsub@a+1
  3352  002652  0060  F058  F033   	movff	?___flmul+2,___flsub@a+2
  3353  002658  0060  F05C  F034   	movff	?___flmul+3,___flsub@a+3
  3354  00265E  ECF7  F025         	call	___flsub	;wreg free
  3355  002662  0060  F0B4  F098   	movff	?___flsub,efgtoa@h
  3356  002668  0060  F0B8  F099   	movff	?___flsub+1,efgtoa@h+1
  3357  00266E  0060  F0BC  F09A   	movff	?___flsub+2,efgtoa@h+2
  3358  002674  0060  F0C0  F09B   	movff	?___flsub+3,efgtoa@h+3
  3359                           
  3360                           ;/opt/microchip/xc8/v2.05/pic/sources/c99/common/doprnt.c: 422:         u = u/10.0;
  3361  00267A  0060  F2A8  F014   	movff	efgtoa@u,___fldiv@b
  3362  002680  0060  F2AC  F015   	movff	efgtoa@u+1,___fldiv@b+1
  3363  002686  0060  F2B0  F016   	movff	efgtoa@u+2,___fldiv@b+2
  3364  00268C  0060  F2B4  F017   	movff	efgtoa@u+3,___fldiv@b+3
  3365  002692  0E00               	movlw	0
  3366  002694  6E18               	movwf	___fldiv@a,c
  3367  002696  0E00               	movlw	0
  3368  002698  6E19               	movwf	___fldiv@a+1,c
  3369  00269A  0E20               	movlw	32
  3370  00269C  6E1A               	movwf	___fldiv@a+2,c
  3371  00269E  0E41               	movlw	65
  3372  0026A0  6E1B               	movwf	___fldiv@a+3,c
  3373  0026A2  EC48  F01B         	call	___fldiv	;wreg free
  3374  0026A6  0060  F050  F0AA   	movff	?___fldiv,efgtoa@u
  3375  0026AC  0060  F054  F0AB   	movff	?___fldiv+1,efgtoa@u+1
  3376  0026B2  0060  F058  F0AC   	movff	?___fldiv+2,efgtoa@u+2
  3377  0026B8  0060  F05C  F0AD   	movff	?___fldiv+3,efgtoa@u+3
  3378                           
  3379                           ;/opt/microchip/xc8/v2.05/pic/sources/c99/common/doprnt.c: 423:         ++i;
  3380  0026BE  0100               	movlb	0	; () banked
  3381  0026C0  4BA0               	infsnz	efgtoa@i& (0+255),f,b
  3382  0026C2  2BA1               	incf	(efgtoa@i+1)& (0+255),f,b
  3383  0026C4                     l5895:
  3384                           
  3385                           ; BSR set to: 0
  3386                           ;/opt/microchip/xc8/v2.05/pic/sources/c99/common/doprnt.c: 418:     while (i < m) {
  3387  0026C4  518A               	movf	efgtoa@m& (0+255),w,b
  3388  0026C6  5DA0               	subwf	efgtoa@i& (0+255),w,b
  3389  0026C8  51A1               	movf	(efgtoa@i+1)& (0+255),w,b
  3390  0026CA  0A80               	xorlw	128
  3391  0026CC  6F71               	movwf	??_efgtoa& (0+255),b
  3392  0026CE  518B               	movf	(efgtoa@m+1)& (0+255),w,b
  3393  0026D0  0A80               	xorlw	128
  3394  0026D2  5971               	subwfb	??_efgtoa& (0+255),w,b
  3395  0026D4  A0D8               	btfss	status,0,c
  3396  0026D6  D749               	goto	l5887
  3397                           
  3398                           ; BSR set to: 0
  3399                           ;/opt/microchip/xc8/v2.05/pic/sources/c99/common/doprnt.c: 427:     l = u*5.0;
  3400  0026D8  0060  F2A8  F014   	movff	efgtoa@u,___flmul@b
  3401  0026DE  0060  F2AC  F015   	movff	efgtoa@u+1,___flmul@b+1
  3402  0026E4  0060  F2B0  F016   	movff	efgtoa@u+2,___flmul@b+2
  3403  0026EA  0060  F2B4  F017   	movff	efgtoa@u+3,___flmul@b+3
  3404  0026F0  0E00               	movlw	0
  3405  0026F2  6E18               	movwf	___flmul@a,c
  3406  0026F4  0E00               	movlw	0
  3407  0026F6  6E19               	movwf	___flmul@a+1,c
  3408  0026F8  0EA0               	movlw	160
  3409  0026FA  6E1A               	movwf	___flmul@a+2,c
  3410  0026FC  0E40               	movlw	64
  3411  0026FE  6E1B               	movwf	___flmul@a+3,c
  3412  002700  EC01  F016         	call	___flmul	;wreg free
  3413  002704  0060  F050  F09C   	movff	?___flmul,efgtoa@l
  3414  00270A  0060  F054  F09D   	movff	?___flmul+1,efgtoa@l+1
  3415  002710  0060  F058  F09E   	movff	?___flmul+2,efgtoa@l+2
  3416  002716  0060  F05C  F09F   	movff	?___flmul+3,efgtoa@l+3
  3417                           
  3418                           ;/opt/microchip/xc8/v2.05/pic/sources/c99/common/doprnt.c: 428:     if (h < l) {
  3419  00271C  0060  F260  F02D   	movff	efgtoa@h,___flge@ff1
  3420  002722  0060  F264  F02E   	movff	efgtoa@h+1,___flge@ff1+1
  3421  002728  0060  F268  F02F   	movff	efgtoa@h+2,___flge@ff1+2
  3422  00272E  0060  F26C  F030   	movff	efgtoa@h+3,___flge@ff1+3
  3423  002734  0060  F270  F031   	movff	efgtoa@l,___flge@ff2
  3424  00273A  0060  F274  F032   	movff	efgtoa@l+1,___flge@ff2+1
  3425  002740  0060  F278  F033   	movff	efgtoa@l+2,___flge@ff2+2
  3426  002746  0060  F27C  F034   	movff	efgtoa@l+3,___flge@ff2+3
  3427  00274C  ECCA  F020         	call	___flge	;wreg free
  3428  002750  B0D8               	btfsc	status,0,c
  3429  002752  D003               	goto	l5903
  3430                           
  3431                           ;/opt/microchip/xc8/v2.05/pic/sources/c99/common/doprnt.c: 429:         l = 0.0;
  3432  002754  0E00               	movlw	0
  3433  002756  0100               	movlb	0	; () banked
  3434  002758  D020               	goto	L3
  3435  00275A                     l5903:
  3436                           
  3437                           ;/opt/microchip/xc8/v2.05/pic/sources/c99/common/doprnt.c: 432:         if ((h == l) && 
      +                          !(d % 2)) {
  3438  00275A  0060  F260  F014   	movff	efgtoa@h,___fleq@ff1
  3439  002760  0060  F264  F015   	movff	efgtoa@h+1,___fleq@ff1+1
  3440  002766  0060  F268  F016   	movff	efgtoa@h+2,___fleq@ff1+2
  3441  00276C  0060  F26C  F017   	movff	efgtoa@h+3,___fleq@ff1+3
  3442  002772  0060  F270  F018   	movff	efgtoa@l,___fleq@ff2
  3443  002778  0060  F274  F019   	movff	efgtoa@l+1,___fleq@ff2+1
  3444  00277E  0060  F278  F01A   	movff	efgtoa@l+2,___fleq@ff2+2
  3445  002784  0060  F27C  F01B   	movff	efgtoa@l+3,___fleq@ff2+3
  3446  00278A  ECF2  F023         	call	___fleq	;wreg free
  3447  00278E  A0D8               	btfss	status,0,c
  3448  002790  D00B               	goto	l5909
  3449  002792  0100               	movlb	0	; () banked
  3450  002794  B18E               	btfsc	efgtoa@d& (0+255),0,b
  3451  002796  D008               	goto	l5909
  3452                           
  3453                           ; BSR set to: 0
  3454                           ;/opt/microchip/xc8/v2.05/pic/sources/c99/common/doprnt.c: 433:             l = 0.0;
  3455  002798  0E00               	movlw	0
  3456  00279A                     L3:
  3457  00279A  6F9C               	movwf	efgtoa@l& (0+255),b
  3458  00279C  0E00               	movlw	0
  3459  00279E  6F9D               	movwf	(efgtoa@l+1)& (0+255),b
  3460  0027A0  0E00               	movlw	0
  3461  0027A2  6F9E               	movwf	(efgtoa@l+2)& (0+255),b
  3462  0027A4  0E00               	movlw	0
  3463  0027A6  6F9F               	movwf	(efgtoa@l+3)& (0+255),b
  3464  0027A8                     l5909:
  3465                           
  3466                           ;/opt/microchip/xc8/v2.05/pic/sources/c99/common/doprnt.c: 438:     h = g + l;
  3467  0027A8  0060  F288  F014   	movff	efgtoa@g,___fladd@b
  3468  0027AE  0060  F28C  F015   	movff	efgtoa@g+1,___fladd@b+1
  3469  0027B4  0060  F290  F016   	movff	efgtoa@g+2,___fladd@b+2
  3470  0027BA  0060  F294  F017   	movff	efgtoa@g+3,___fladd@b+3
  3471  0027C0  0060  F270  F018   	movff	efgtoa@l,___fladd@a
  3472  0027C6  0060  F274  F019   	movff	efgtoa@l+1,___fladd@a+1
  3473  0027CC  0060  F278  F01A   	movff	efgtoa@l+2,___fladd@a+2
  3474  0027D2  0060  F27C  F01B   	movff	efgtoa@l+3,___fladd@a+3
  3475  0027D8  ECA4  F019         	call	___fladd	;wreg free
  3476  0027DC  0060  F050  F098   	movff	?___fladd,efgtoa@h
  3477  0027E2  0060  F054  F099   	movff	?___fladd+1,efgtoa@h+1
  3478  0027E8  0060  F058  F09A   	movff	?___fladd+2,efgtoa@h+2
  3479  0027EE  0060  F05C  F09B   	movff	?___fladd+3,efgtoa@h+3
  3480                           
  3481                           ;/opt/microchip/xc8/v2.05/pic/sources/c99/common/doprnt.c: 441:     u = ou;
  3482  0027F4  0060  F1D8  F0AA   	movff	efgtoa@ou,efgtoa@u
  3483  0027FA  0060  F1DC  F0AB   	movff	efgtoa@ou+1,efgtoa@u+1
  3484  002800  0060  F1E0  F0AC   	movff	efgtoa@ou+2,efgtoa@u+2
  3485  002806  0060  F1E4  F0AD   	movff	efgtoa@ou+3,efgtoa@u+3
  3486                           
  3487                           ;/opt/microchip/xc8/v2.05/pic/sources/c99/common/doprnt.c: 442:     ne = (nmode == 'e') 
      +                          ? 0 : e;
  3488  00280C  0E65               	movlw	101
  3489  00280E  0100               	movlb	0	; () banked
  3490  002810  1994               	xorwf	efgtoa@nmode& (0+255),w,b
  3491  002812  B4D8               	btfsc	status,2,c
  3492  002814  D007               	goto	l5917
  3493                           
  3494                           ; BSR set to: 0
  3495  002816  0060  F298  F08C   	movff	efgtoa@e,efgtoa@ne
  3496  00281C  0060  F29C  F08D   	movff	efgtoa@e+1,efgtoa@ne+1
  3497  002822  D004               	goto	l565
  3498  002824                     l5917:
  3499                           
  3500                           ; BSR set to: 0
  3501  002824  0E00               	movlw	0
  3502  002826  6F8D               	movwf	(efgtoa@ne+1)& (0+255),b
  3503  002828  0E00               	movlw	0
  3504  00282A  6F8C               	movwf	efgtoa@ne& (0+255),b
  3505  00282C                     l565:
  3506                           
  3507                           ; BSR set to: 0
  3508                           ;/opt/microchip/xc8/v2.05/pic/sources/c99/common/doprnt.c: 443:     pp = 0;
  3509  00282C  0E00               	movlw	0
  3510  00282E  6F89               	movwf	(efgtoa@pp+1)& (0+255),b
  3511  002830  0E00               	movlw	0
  3512  002832  6F88               	movwf	efgtoa@pp& (0+255),b
  3513                           
  3514                           ;/opt/microchip/xc8/v2.05/pic/sources/c99/common/doprnt.c: 444:     t = 0;
  3515  002834  0E00               	movlw	0
  3516  002836  6F87               	movwf	(efgtoa@t+1)& (0+255),b
  3517  002838  0E00               	movlw	0
  3518  00283A  6F86               	movwf	efgtoa@t& (0+255),b
  3519                           
  3520                           ;/opt/microchip/xc8/v2.05/pic/sources/c99/common/doprnt.c: 445:     i = 0;
  3521  00283C  0E00               	movlw	0
  3522  00283E  6FA1               	movwf	(efgtoa@i+1)& (0+255),b
  3523  002840  0E00               	movlw	0
  3524  002842  6FA0               	movwf	efgtoa@i& (0+255),b
  3525                           
  3526                           ;/opt/microchip/xc8/v2.05/pic/sources/c99/common/doprnt.c: 446:     while ((i < m) && (n
      +                           < (80 - 5))) {
  3527  002844  D0F9               	goto	l5967
  3528  002846                     l5919:
  3529                           
  3530                           ; BSR set to: 0
  3531                           ;/opt/microchip/xc8/v2.05/pic/sources/c99/common/doprnt.c: 447:         l = floorf(h/u);
  3532  002846  0060  F260  F014   	movff	efgtoa@h,___fldiv@b
  3533  00284C  0060  F264  F015   	movff	efgtoa@h+1,___fldiv@b+1
  3534  002852  0060  F268  F016   	movff	efgtoa@h+2,___fldiv@b+2
  3535  002858  0060  F26C  F017   	movff	efgtoa@h+3,___fldiv@b+3
  3536  00285E  0060  F2A8  F018   	movff	efgtoa@u,___fldiv@a
  3537  002864  0060  F2AC  F019   	movff	efgtoa@u+1,___fldiv@a+1
  3538  00286A  0060  F2B0  F01A   	movff	efgtoa@u+2,___fldiv@a+2
  3539  002870  0060  F2B4  F01B   	movff	efgtoa@u+3,___fldiv@a+3
  3540  002876  EC48  F01B         	call	___fldiv	;wreg free
  3541  00287A  0060  F050  F02D   	movff	?___fldiv,floorf@x
  3542  002880  0060  F054  F02E   	movff	?___fldiv+1,floorf@x+1
  3543  002886  0060  F058  F02F   	movff	?___fldiv+2,floorf@x+2
  3544  00288C  0060  F05C  F030   	movff	?___fldiv+3,floorf@x+3
  3545  002892  ECB4  F01D         	call	_floorf	;wreg free
  3546  002896  0060  F0B4  F09C   	movff	?_floorf,efgtoa@l
  3547  00289C  0060  F0B8  F09D   	movff	?_floorf+1,efgtoa@l+1
  3548  0028A2  0060  F0BC  F09E   	movff	?_floorf+2,efgtoa@l+2
  3549  0028A8  0060  F0C0  F09F   	movff	?_floorf+3,efgtoa@l+3
  3550                           
  3551                           ;/opt/microchip/xc8/v2.05/pic/sources/c99/common/doprnt.c: 448:         d = (int)l;
  3552  0028AE  0060  F270  F014   	movff	efgtoa@l,___fltol@f1
  3553  0028B4  0060  F274  F015   	movff	efgtoa@l+1,___fltol@f1+1
  3554  0028BA  0060  F278  F016   	movff	efgtoa@l+2,___fltol@f1+2
  3555  0028C0  0060  F27C  F017   	movff	efgtoa@l+3,___fltol@f1+3
  3556  0028C6  EC99  F021         	call	___fltol	;wreg free
  3557  0028CA  0060  F050  F08E   	movff	?___fltol,efgtoa@d
  3558  0028D0  0060  F054  F08F   	movff	?___fltol+1,efgtoa@d+1
  3559                           
  3560                           ;/opt/microchip/xc8/v2.05/pic/sources/c99/common/doprnt.c: 449:         if (!(flags & (1
      +                           << 4)) && !d && (mode == 'g') && (ne < 0)) {
  3561  0028D6  B845               	btfsc	_flags,4,c
  3562  0028D8  D00D               	goto	l5931
  3563  0028DA  0100               	movlb	0	; () banked
  3564  0028DC  518E               	movf	efgtoa@d& (0+255),w,b
  3565  0028DE  118F               	iorwf	(efgtoa@d+1)& (0+255),w,b
  3566  0028E0  A4D8               	btfss	status,2,c
  3567  0028E2  D008               	goto	l5931
  3568                           
  3569                           ; BSR set to: 0
  3570  0028E4  0E67               	movlw	103
  3571  0028E6  1997               	xorwf	efgtoa@mode& (0+255),w,b
  3572  0028E8  B4D8               	btfsc	status,2,c
  3573                           
  3574                           ; BSR set to: 0
  3575  0028EA  AF8D               	btfss	(efgtoa@ne+1)& (0+255),7,b
  3576  0028EC  D003               	goto	l5931
  3577                           
  3578                           ; BSR set to: 0
  3579                           ;/opt/microchip/xc8/v2.05/pic/sources/c99/common/doprnt.c: 450:             ++t;
  3580  0028EE  4B86               	infsnz	efgtoa@t& (0+255),f,b
  3581  0028F0  2B87               	incf	(efgtoa@t+1)& (0+255),f,b
  3582                           
  3583                           ;/opt/microchip/xc8/v2.05/pic/sources/c99/common/doprnt.c: 451:         } else {
  3584  0028F2  D03A               	goto	l5959
  3585  0028F4                     l5931:
  3586                           
  3587                           ;/opt/microchip/xc8/v2.05/pic/sources/c99/common/doprnt.c: 452:             if (!pp && (
      +                          ne < 0)) {
  3588  0028F4  0100               	movlb	0	; () banked
  3589  0028F6  5188               	movf	efgtoa@pp& (0+255),w,b
  3590  0028F8  1189               	iorwf	(efgtoa@pp+1)& (0+255),w,b
  3591  0028FA  B4D8               	btfsc	status,2,c
  3592                           
  3593                           ; BSR set to: 0
  3594  0028FC  AF8D               	btfss	(efgtoa@ne+1)& (0+255),7,b
  3595  0028FE  D022               	goto	l5951
  3596                           
  3597                           ; BSR set to: 0
  3598                           ;/opt/microchip/xc8/v2.05/pic/sources/c99/common/doprnt.c: 453:                 dbuf[n++
      +                          ] = '.';
  3599  002900  0E20               	movlw	low _dbuf
  3600  002902  25A8               	addwf	efgtoa@n& (0+255),w,b
  3601  002904  6ED9               	movwf	fsr2l,c
  3602  002906  0E01               	movlw	high _dbuf
  3603  002908  21A9               	addwfc	(efgtoa@n+1)& (0+255),w,b
  3604  00290A  6EDA               	movwf	fsr2h,c
  3605  00290C  0E2E               	movlw	46
  3606  00290E  6EDF               	movwf	indf2,c
  3607                           
  3608                           ; BSR set to: 0
  3609  002910  4BA8               	infsnz	efgtoa@n& (0+255),f,b
  3610  002912  2BA9               	incf	(efgtoa@n+1)& (0+255),f,b
  3611                           
  3612                           ; BSR set to: 0
  3613                           ;/opt/microchip/xc8/v2.05/pic/sources/c99/common/doprnt.c: 454:                 --w;
  3614  002914  0795               	decf	efgtoa@w& (0+255),f,b
  3615  002916  A0D8               	btfss	status,0,c
  3616  002918  0796               	decf	(efgtoa@w+1)& (0+255),f,b
  3617                           
  3618                           ; BSR set to: 0
  3619                           ;/opt/microchip/xc8/v2.05/pic/sources/c99/common/doprnt.c: 455:                 pp = 1;
  3620  00291A  0E00               	movlw	0
  3621  00291C  6F89               	movwf	(efgtoa@pp+1)& (0+255),b
  3622  00291E  0E01               	movlw	1
  3623  002920  6F88               	movwf	efgtoa@pp& (0+255),b
  3624  002922  D010               	goto	l5951
  3625  002924                     l5943:
  3626                           
  3627                           ; BSR set to: 0
  3628                           ;/opt/microchip/xc8/v2.05/pic/sources/c99/common/doprnt.c: 458:                 dbuf[n++
      +                          ] = '0';
  3629  002924  0E20               	movlw	low _dbuf
  3630  002926  25A8               	addwf	efgtoa@n& (0+255),w,b
  3631  002928  6ED9               	movwf	fsr2l,c
  3632  00292A  0E01               	movlw	high _dbuf
  3633  00292C  21A9               	addwfc	(efgtoa@n+1)& (0+255),w,b
  3634  00292E  6EDA               	movwf	fsr2h,c
  3635  002930  0E30               	movlw	48
  3636  002932  6EDF               	movwf	indf2,c
  3637                           
  3638                           ; BSR set to: 0
  3639  002934  4BA8               	infsnz	efgtoa@n& (0+255),f,b
  3640  002936  2BA9               	incf	(efgtoa@n+1)& (0+255),f,b
  3641                           
  3642                           ; BSR set to: 0
  3643                           ;/opt/microchip/xc8/v2.05/pic/sources/c99/common/doprnt.c: 459:                 --w;
  3644  002938  0795               	decf	efgtoa@w& (0+255),f,b
  3645  00293A  A0D8               	btfss	status,0,c
  3646  00293C  0796               	decf	(efgtoa@w+1)& (0+255),f,b
  3647                           
  3648                           ; BSR set to: 0
  3649                           ;/opt/microchip/xc8/v2.05/pic/sources/c99/common/doprnt.c: 460:                 --t;
  3650  00293E  0786               	decf	efgtoa@t& (0+255),f,b
  3651  002940  A0D8               	btfss	status,0,c
  3652  002942  0787               	decf	(efgtoa@t+1)& (0+255),f,b
  3653  002944                     l5951:
  3654                           
  3655                           ; BSR set to: 0
  3656                           ;/opt/microchip/xc8/v2.05/pic/sources/c99/common/doprnt.c: 457:             while (t) {
  3657  002944  5186               	movf	efgtoa@t& (0+255),w,b
  3658  002946  1187               	iorwf	(efgtoa@t+1)& (0+255),w,b
  3659  002948  A4D8               	btfss	status,2,c
  3660  00294A  D7EC               	goto	l5943
  3661                           
  3662                           ; BSR set to: 0
  3663                           ;/opt/microchip/xc8/v2.05/pic/sources/c99/common/doprnt.c: 462:             dbuf[n++] = 
      +                          '0' + d;
  3664  00294C  0E20               	movlw	low _dbuf
  3665  00294E  25A8               	addwf	efgtoa@n& (0+255),w,b
  3666  002950  6ED9               	movwf	fsr2l,c
  3667  002952  0E01               	movlw	high _dbuf
  3668  002954  21A9               	addwfc	(efgtoa@n+1)& (0+255),w,b
  3669  002956  6EDA               	movwf	fsr2h,c
  3670  002958  518E               	movf	efgtoa@d& (0+255),w,b
  3671  00295A  0F30               	addlw	48
  3672  00295C  6EDF               	movwf	indf2,c
  3673                           
  3674                           ; BSR set to: 0
  3675  00295E  4BA8               	infsnz	efgtoa@n& (0+255),f,b
  3676  002960  2BA9               	incf	(efgtoa@n+1)& (0+255),f,b
  3677                           
  3678                           ; BSR set to: 0
  3679                           ;/opt/microchip/xc8/v2.05/pic/sources/c99/common/doprnt.c: 463:             --w;
  3680  002962  0795               	decf	efgtoa@w& (0+255),f,b
  3681  002964  A0D8               	btfss	status,0,c
  3682  002966  0796               	decf	(efgtoa@w+1)& (0+255),f,b
  3683  002968                     l5959:
  3684                           
  3685                           ; BSR set to: 0
  3686                           ;/opt/microchip/xc8/v2.05/pic/sources/c99/common/doprnt.c: 465:         h -= l*u;
  3687  002968  0060  F260  F02D   	movff	efgtoa@h,___flsub@b
  3688  00296E  0060  F264  F02E   	movff	efgtoa@h+1,___flsub@b+1
  3689  002974  0060  F268  F02F   	movff	efgtoa@h+2,___flsub@b+2
  3690  00297A  0060  F26C  F030   	movff	efgtoa@h+3,___flsub@b+3
  3691  002980  0060  F2A8  F018   	movff	efgtoa@u,___flmul@a
  3692  002986  0060  F2AC  F019   	movff	efgtoa@u+1,___flmul@a+1
  3693  00298C  0060  F2B0  F01A   	movff	efgtoa@u+2,___flmul@a+2
  3694  002992  0060  F2B4  F01B   	movff	efgtoa@u+3,___flmul@a+3
  3695  002998  0060  F270  F014   	movff	efgtoa@l,___flmul@b
  3696  00299E  0060  F274  F015   	movff	efgtoa@l+1,___flmul@b+1
  3697  0029A4  0060  F278  F016   	movff	efgtoa@l+2,___flmul@b+2
  3698  0029AA  0060  F27C  F017   	movff	efgtoa@l+3,___flmul@b+3
  3699  0029B0  EC01  F016         	call	___flmul	;wreg free
  3700  0029B4  0060  F050  F031   	movff	?___flmul,___flsub@a
  3701  0029BA  0060  F054  F032   	movff	?___flmul+1,___flsub@a+1
  3702  0029C0  0060  F058  F033   	movff	?___flmul+2,___flsub@a+2
  3703  0029C6  0060  F05C  F034   	movff	?___flmul+3,___flsub@a+3
  3704  0029CC  ECF7  F025         	call	___flsub	;wreg free
  3705  0029D0  0060  F0B4  F098   	movff	?___flsub,efgtoa@h
  3706  0029D6  0060  F0B8  F099   	movff	?___flsub+1,efgtoa@h+1
  3707  0029DC  0060  F0BC  F09A   	movff	?___flsub+2,efgtoa@h+2
  3708  0029E2  0060  F0C0  F09B   	movff	?___flsub+3,efgtoa@h+3
  3709                           
  3710                           ;/opt/microchip/xc8/v2.05/pic/sources/c99/common/doprnt.c: 466:         u = u/10.0;
  3711  0029E8  0060  F2A8  F014   	movff	efgtoa@u,___fldiv@b
  3712  0029EE  0060  F2AC  F015   	movff	efgtoa@u+1,___fldiv@b+1
  3713  0029F4  0060  F2B0  F016   	movff	efgtoa@u+2,___fldiv@b+2
  3714  0029FA  0060  F2B4  F017   	movff	efgtoa@u+3,___fldiv@b+3
  3715  002A00  0E00               	movlw	0
  3716  002A02  6E18               	movwf	___fldiv@a,c
  3717  002A04  0E00               	movlw	0
  3718  002A06  6E19               	movwf	___fldiv@a+1,c
  3719  002A08  0E20               	movlw	32
  3720  002A0A  6E1A               	movwf	___fldiv@a+2,c
  3721  002A0C  0E41               	movlw	65
  3722  002A0E  6E1B               	movwf	___fldiv@a+3,c
  3723  002A10  EC48  F01B         	call	___fldiv	;wreg free
  3724  002A14  0060  F050  F0AA   	movff	?___fldiv,efgtoa@u
  3725  002A1A  0060  F054  F0AB   	movff	?___fldiv+1,efgtoa@u+1
  3726  002A20  0060  F058  F0AC   	movff	?___fldiv+2,efgtoa@u+2
  3727  002A26  0060  F05C  F0AD   	movff	?___fldiv+3,efgtoa@u+3
  3728                           
  3729                           ;/opt/microchip/xc8/v2.05/pic/sources/c99/common/doprnt.c: 467:         --ne;
  3730  002A2C  0100               	movlb	0	; () banked
  3731  002A2E  078C               	decf	efgtoa@ne& (0+255),f,b
  3732  002A30  A0D8               	btfss	status,0,c
  3733  002A32  078D               	decf	(efgtoa@ne+1)& (0+255),f,b
  3734                           
  3735                           ; BSR set to: 0
  3736                           ;/opt/microchip/xc8/v2.05/pic/sources/c99/common/doprnt.c: 468:         ++i;
  3737  002A34  4BA0               	infsnz	efgtoa@i& (0+255),f,b
  3738  002A36  2BA1               	incf	(efgtoa@i+1)& (0+255),f,b
  3739  002A38                     l5967:
  3740                           
  3741                           ; BSR set to: 0
  3742                           ;/opt/microchip/xc8/v2.05/pic/sources/c99/common/doprnt.c: 446:     while ((i < m) && (n
      +                           < (80 - 5))) {
  3743  002A38  518A               	movf	efgtoa@m& (0+255),w,b
  3744  002A3A  5DA0               	subwf	efgtoa@i& (0+255),w,b
  3745  002A3C  51A1               	movf	(efgtoa@i+1)& (0+255),w,b
  3746  002A3E  0A80               	xorlw	128
  3747  002A40  6F71               	movwf	??_efgtoa& (0+255),b
  3748  002A42  518B               	movf	(efgtoa@m+1)& (0+255),w,b
  3749  002A44  0A80               	xorlw	128
  3750  002A46  5971               	subwfb	??_efgtoa& (0+255),w,b
  3751  002A48  B0D8               	btfsc	status,0,c
  3752  002A4A  D008               	goto	u7850
  3753                           
  3754                           ; BSR set to: 0
  3755  002A4C  BFA9               	btfsc	(efgtoa@n+1)& (0+255),7,b
  3756  002A4E  D6FB               	goto	l5919
  3757  002A50  51A9               	movf	(efgtoa@n+1)& (0+255),w,b
  3758  002A52  E104               	bnz	u7850
  3759  002A54  0E4B               	movlw	75
  3760  002A56  5DA8               	subwf	efgtoa@n& (0+255),w,b
  3761  002A58  A0D8               	btfss	status,0,c
  3762  002A5A  D6F5               	goto	l5919
  3763  002A5C                     u7850:
  3764                           
  3765                           ; BSR set to: 0
  3766                           ;/opt/microchip/xc8/v2.05/pic/sources/c99/common/doprnt.c: 470:     if (!pp && (flags & 
      +                          (1 << 4))) {
  3767  002A5C  5188               	movf	efgtoa@pp& (0+255),w,b
  3768  002A5E  1189               	iorwf	(efgtoa@pp+1)& (0+255),w,b
  3769  002A60  B4D8               	btfsc	status,2,c
  3770                           
  3771                           ; BSR set to: 0
  3772  002A62  A845               	btfss	_flags,4,c
  3773  002A64  D00A               	goto	l5979
  3774                           
  3775                           ; BSR set to: 0
  3776                           ;/opt/microchip/xc8/v2.05/pic/sources/c99/common/doprnt.c: 471:         dbuf[n++] = '.';
  3777  002A66  0E20               	movlw	low _dbuf
  3778  002A68  25A8               	addwf	efgtoa@n& (0+255),w,b
  3779  002A6A  6ED9               	movwf	fsr2l,c
  3780  002A6C  0E01               	movlw	high _dbuf
  3781  002A6E  21A9               	addwfc	(efgtoa@n+1)& (0+255),w,b
  3782  002A70  6EDA               	movwf	fsr2h,c
  3783  002A72  0E2E               	movlw	46
  3784  002A74  6EDF               	movwf	indf2,c
  3785                           
  3786                           ; BSR set to: 0
  3787  002A76  4BA8               	infsnz	efgtoa@n& (0+255),f,b
  3788  002A78  2BA9               	incf	(efgtoa@n+1)& (0+255),f,b
  3789  002A7A                     l5979:
  3790                           
  3791                           ; BSR set to: 0
  3792                           ;/opt/microchip/xc8/v2.05/pic/sources/c99/common/doprnt.c: 473:     dbuf[n] = '\0';
  3793  002A7A  0E20               	movlw	low _dbuf
  3794  002A7C  25A8               	addwf	efgtoa@n& (0+255),w,b
  3795  002A7E  6ED9               	movwf	fsr2l,c
  3796  002A80  0E01               	movlw	high _dbuf
  3797  002A82  21A9               	addwfc	(efgtoa@n+1)& (0+255),w,b
  3798  002A84  6EDA               	movwf	fsr2h,c
  3799  002A86  0E00               	movlw	0
  3800  002A88  6EDF               	movwf	indf2,c
  3801                           
  3802                           ; BSR set to: 0
  3803                           ;/opt/microchip/xc8/v2.05/pic/sources/c99/common/doprnt.c: 476:     if (nmode == 'e') {
  3804  002A8A  0E65               	movlw	101
  3805  002A8C  1994               	xorwf	efgtoa@nmode& (0+255),w,b
  3806  002A8E  A4D8               	btfss	status,2,c
  3807  002A90  EFF7  F010         	goto	l5791
  3808                           
  3809                           ; BSR set to: 0
  3810                           ;/opt/microchip/xc8/v2.05/pic/sources/c99/common/doprnt.c: 477:         i = sizeof(dbuf)
      +                           - 1;
  3811  002A94  0E00               	movlw	0
  3812  002A96  6FA1               	movwf	(efgtoa@i+1)& (0+255),b
  3813  002A98  0E4F               	movlw	79
  3814  002A9A  6FA0               	movwf	efgtoa@i& (0+255),b
  3815                           
  3816                           ; BSR set to: 0
  3817                           ;/opt/microchip/xc8/v2.05/pic/sources/c99/common/doprnt.c: 478:         dbuf[i] = '\0';
  3818  002A9C  0E20               	movlw	low _dbuf
  3819  002A9E  25A0               	addwf	efgtoa@i& (0+255),w,b
  3820  002AA0  6ED9               	movwf	fsr2l,c
  3821  002AA2  0E01               	movlw	high _dbuf
  3822  002AA4  21A1               	addwfc	(efgtoa@i+1)& (0+255),w,b
  3823  002AA6  6EDA               	movwf	fsr2h,c
  3824  002AA8  0E00               	movlw	0
  3825  002AAA  6EDF               	movwf	indf2,c
  3826                           
  3827                           ; BSR set to: 0
  3828                           ;/opt/microchip/xc8/v2.05/pic/sources/c99/common/doprnt.c: 479:         sign = 0;
  3829  002AAC  0E00               	movlw	0
  3830  002AAE  6F91               	movwf	(efgtoa@sign+1)& (0+255),b
  3831  002AB0  0E00               	movlw	0
  3832  002AB2  6F90               	movwf	efgtoa@sign& (0+255),b
  3833                           
  3834                           ; BSR set to: 0
  3835                           ;/opt/microchip/xc8/v2.05/pic/sources/c99/common/doprnt.c: 480:         if (e < 0) {
  3836  002AB4  AFA7               	btfss	(efgtoa@e+1)& (0+255),7,b
  3837  002AB6  D008               	goto	l5995
  3838                           
  3839                           ; BSR set to: 0
  3840                           ;/opt/microchip/xc8/v2.05/pic/sources/c99/common/doprnt.c: 481:             sign = 1;
  3841  002AB8  0E00               	movlw	0
  3842  002ABA  6F91               	movwf	(efgtoa@sign+1)& (0+255),b
  3843  002ABC  0E01               	movlw	1
  3844  002ABE  6F90               	movwf	efgtoa@sign& (0+255),b
  3845                           
  3846                           ; BSR set to: 0
  3847                           ;/opt/microchip/xc8/v2.05/pic/sources/c99/common/doprnt.c: 482:             e = -e;
  3848  002AC0  6DA6               	negf	efgtoa@e& (0+255),b
  3849  002AC2  1FA7               	comf	(efgtoa@e+1)& (0+255),f,b
  3850  002AC4  B0D8               	btfsc	status,0,c
  3851  002AC6  2BA7               	incf	(efgtoa@e+1)& (0+255),f,b
  3852  002AC8                     l5995:
  3853                           
  3854                           ; BSR set to: 0
  3855                           ;/opt/microchip/xc8/v2.05/pic/sources/c99/common/doprnt.c: 484:         p = 2;
  3856  002AC8  0E00               	movlw	0
  3857  002ACA  6F93               	movwf	(efgtoa@p+1)& (0+255),b
  3858  002ACC  0E02               	movlw	2
  3859  002ACE  6F92               	movwf	efgtoa@p& (0+255),b
  3860                           
  3861                           ;/opt/microchip/xc8/v2.05/pic/sources/c99/common/doprnt.c: 485:         while (e || (0 <
      +                           p)) {
  3862  002AD0  D031               	goto	l6007
  3863  002AD2                     l5997:
  3864                           
  3865                           ; BSR set to: 0
  3866                           ;/opt/microchip/xc8/v2.05/pic/sources/c99/common/doprnt.c: 486:             --i;
  3867  002AD2  07A0               	decf	efgtoa@i& (0+255),f,b
  3868  002AD4  A0D8               	btfss	status,0,c
  3869  002AD6  07A1               	decf	(efgtoa@i+1)& (0+255),f,b
  3870                           
  3871                           ; BSR set to: 0
  3872                           ;/opt/microchip/xc8/v2.05/pic/sources/c99/common/doprnt.c: 487:             dbuf[i] = '0
      +                          ' + (e % 10);
  3873  002AD8  0E20               	movlw	low _dbuf
  3874  002ADA  25A0               	addwf	efgtoa@i& (0+255),w,b
  3875  002ADC  6ED9               	movwf	fsr2l,c
  3876  002ADE  0E01               	movlw	high _dbuf
  3877  002AE0  21A1               	addwfc	(efgtoa@i+1)& (0+255),w,b
  3878  002AE2  6EDA               	movwf	fsr2h,c
  3879  002AE4  0060  F298  F014   	movff	efgtoa@e,___awmod@dividend
  3880  002AEA  0060  F29C  F015   	movff	efgtoa@e+1,___awmod@dividend+1
  3881  002AF0  0E00               	movlw	0
  3882  002AF2  6E17               	movwf	___awmod@divisor+1,c
  3883  002AF4  0E0A               	movlw	10
  3884  002AF6  6E16               	movwf	___awmod@divisor,c
  3885  002AF8  ECBC  F024         	call	___awmod	;wreg free
  3886  002AFC  5014               	movf	?___awmod,w,c
  3887  002AFE  0F30               	addlw	48
  3888  002B00  6EDF               	movwf	indf2,c
  3889                           
  3890                           ;/opt/microchip/xc8/v2.05/pic/sources/c99/common/doprnt.c: 488:             e = e / 10;
  3891  002B02  0060  F298  F014   	movff	efgtoa@e,___awdiv@dividend
  3892  002B08  0060  F29C  F015   	movff	efgtoa@e+1,___awdiv@dividend+1
  3893  002B0E  0E00               	movlw	0
  3894  002B10  6E17               	movwf	___awdiv@divisor+1,c
  3895  002B12  0E0A               	movlw	10
  3896  002B14  6E16               	movwf	___awdiv@divisor,c
  3897  002B16  EC37  F024         	call	___awdiv	;wreg free
  3898  002B1A  0060  F050  F0A6   	movff	?___awdiv,efgtoa@e
  3899  002B20  0060  F054  F0A7   	movff	?___awdiv+1,efgtoa@e+1
  3900                           
  3901                           ;/opt/microchip/xc8/v2.05/pic/sources/c99/common/doprnt.c: 489:             --p;
  3902  002B26  0100               	movlb	0	; () banked
  3903  002B28  0792               	decf	efgtoa@p& (0+255),f,b
  3904  002B2A  A0D8               	btfss	status,0,c
  3905  002B2C  0793               	decf	(efgtoa@p+1)& (0+255),f,b
  3906                           
  3907                           ; BSR set to: 0
  3908                           ;/opt/microchip/xc8/v2.05/pic/sources/c99/common/doprnt.c: 490:             --w;
  3909  002B2E  0795               	decf	efgtoa@w& (0+255),f,b
  3910  002B30  A0D8               	btfss	status,0,c
  3911  002B32  0796               	decf	(efgtoa@w+1)& (0+255),f,b
  3912  002B34                     l6007:
  3913                           
  3914                           ; BSR set to: 0
  3915                           ;/opt/microchip/xc8/v2.05/pic/sources/c99/common/doprnt.c: 485:         while (e || (0 <
      +                           p)) {
  3916  002B34  51A6               	movf	efgtoa@e& (0+255),w,b
  3917  002B36  11A7               	iorwf	(efgtoa@e+1)& (0+255),w,b
  3918  002B38  A4D8               	btfss	status,2,c
  3919  002B3A  D7CB               	goto	l5997
  3920                           
  3921                           ; BSR set to: 0
  3922  002B3C  BF93               	btfsc	(efgtoa@p+1)& (0+255),7,b
  3923  002B3E  D005               	goto	u7910
  3924  002B40  5193               	movf	(efgtoa@p+1)& (0+255),w,b
  3925  002B42  E1C7               	bnz	l5997
  3926  002B44  0592               	decf	efgtoa@p& (0+255),w,b
  3927  002B46  B0D8               	btfsc	status,0,c
  3928  002B48  D7C4               	goto	l5997
  3929  002B4A                     u7910:
  3930                           
  3931                           ; BSR set to: 0
  3932                           ;/opt/microchip/xc8/v2.05/pic/sources/c99/common/doprnt.c: 492:         --i;
  3933  002B4A  07A0               	decf	efgtoa@i& (0+255),f,b
  3934  002B4C  A0D8               	btfss	status,0,c
  3935  002B4E  07A1               	decf	(efgtoa@i+1)& (0+255),f,b
  3936                           
  3937                           ; BSR set to: 0
  3938                           ;/opt/microchip/xc8/v2.05/pic/sources/c99/common/doprnt.c: 493:         dbuf[i] = sign ?
      +                           '-' : '+';
  3939  002B50  5190               	movf	efgtoa@sign& (0+255),w,b
  3940  002B52  1191               	iorwf	(efgtoa@sign+1)& (0+255),w,b
  3941  002B54  A4D8               	btfss	status,2,c
  3942  002B56  D004               	goto	l6017
  3943                           
  3944                           ; BSR set to: 0
  3945  002B58  0E00               	movlw	0
  3946  002B5A  6F81               	movwf	(_efgtoa$1665+1)& (0+255),b
  3947  002B5C  0E2B               	movlw	43
  3948  002B5E  D003               	goto	L4
  3949  002B60                     l6017:
  3950                           
  3951                           ; BSR set to: 0
  3952  002B60  0E00               	movlw	0
  3953  002B62  6F81               	movwf	(_efgtoa$1665+1)& (0+255),b
  3954  002B64  0E2D               	movlw	45
  3955  002B66                     L4:
  3956  002B66  6F80               	movwf	_efgtoa$1665& (0+255),b
  3957                           
  3958                           ; BSR set to: 0
  3959  002B68  0E20               	movlw	low _dbuf
  3960  002B6A  25A0               	addwf	efgtoa@i& (0+255),w,b
  3961  002B6C  6ED9               	movwf	fsr2l,c
  3962  002B6E  0E01               	movlw	high _dbuf
  3963  002B70  21A1               	addwfc	(efgtoa@i+1)& (0+255),w,b
  3964  002B72  6EDA               	movwf	fsr2h,c
  3965  002B74  0060  F203  FFDF   	movff	_efgtoa$1665,indf2
  3966                           
  3967                           ; BSR set to: 0
  3968                           ;/opt/microchip/xc8/v2.05/pic/sources/c99/common/doprnt.c: 494:         --w;
  3969  002B7A  0795               	decf	efgtoa@w& (0+255),f,b
  3970  002B7C  A0D8               	btfss	status,0,c
  3971  002B7E  0796               	decf	(efgtoa@w+1)& (0+255),f,b
  3972                           
  3973                           ; BSR set to: 0
  3974                           ;/opt/microchip/xc8/v2.05/pic/sources/c99/common/doprnt.c: 496:         dbuf[i] = (0 ? i
      +                          supper((int)c) : ((unsigned)((int)c)-'A') < 26) ? 'E' : 'e';
  3975  002B80  07A0               	decf	efgtoa@i& (0+255),f,b
  3976  002B82  A0D8               	btfss	status,0,c
  3977  002B84  07A1               	decf	(efgtoa@i+1)& (0+255),f,b
  3978                           
  3979                           ; BSR set to: 0
  3980  002B86  0EBF               	movlw	191
  3981  002B88  6F71               	movwf	??_efgtoa& (0+255),b
  3982  002B8A  0EFF               	movlw	255
  3983  002B8C  6F72               	movwf	(??_efgtoa+1)& (0+255),b
  3984  002B8E  5170               	movf	efgtoa@c& (0+255),w,b
  3985  002B90  6F73               	movwf	(??_efgtoa+2)& (0+255),b
  3986  002B92  6B74               	clrf	(??_efgtoa+3)& (0+255),b
  3987  002B94  5171               	movf	??_efgtoa& (0+255),w,b
  3988  002B96  2773               	addwf	(??_efgtoa+2)& (0+255),f,b
  3989  002B98  5172               	movf	(??_efgtoa+1)& (0+255),w,b
  3990  002B9A  2374               	addwfc	(??_efgtoa+3)& (0+255),f,b
  3991  002B9C  5174               	movf	(??_efgtoa+3)& (0+255),w,b
  3992  002B9E  E106               	bnz	u7930
  3993  002BA0  0E1A               	movlw	26
  3994  002BA2  5D73               	subwf	(??_efgtoa+2)& (0+255),w,b
  3995  002BA4  B0D8               	btfsc	status,0,c
  3996  002BA6  D002               	goto	u7930
  3997  002BA8  0E01               	movlw	1
  3998  002BAA  D001               	goto	u7940
  3999  002BAC                     u7930:
  4000  002BAC  0E00               	movlw	0
  4001  002BAE                     u7940:
  4002  002BAE  6F84               	movwf	_efgtoa$1667& (0+255),b
  4003  002BB0  6B85               	clrf	(_efgtoa$1667+1)& (0+255),b
  4004                           
  4005                           ; BSR set to: 0
  4006  002BB2  5184               	movf	_efgtoa$1667& (0+255),w,b
  4007  002BB4  1185               	iorwf	(_efgtoa$1667+1)& (0+255),w,b
  4008  002BB6  A4D8               	btfss	status,2,c
  4009  002BB8  D004               	goto	l6033
  4010                           
  4011                           ; BSR set to: 0
  4012  002BBA  0E00               	movlw	0
  4013  002BBC  6F83               	movwf	(_efgtoa$1666+1)& (0+255),b
  4014  002BBE  0E65               	movlw	101
  4015  002BC0  D003               	goto	L5
  4016  002BC2                     l6033:
  4017                           
  4018                           ; BSR set to: 0
  4019  002BC2  0E00               	movlw	0
  4020  002BC4  6F83               	movwf	(_efgtoa$1666+1)& (0+255),b
  4021  002BC6  0E45               	movlw	69
  4022  002BC8                     L5:
  4023  002BC8  6F82               	movwf	_efgtoa$1666& (0+255),b
  4024                           
  4025                           ; BSR set to: 0
  4026  002BCA  0E20               	movlw	low _dbuf
  4027  002BCC  25A0               	addwf	efgtoa@i& (0+255),w,b
  4028  002BCE  6ED9               	movwf	fsr2l,c
  4029  002BD0  0E01               	movlw	high _dbuf
  4030  002BD2  21A1               	addwfc	(efgtoa@i+1)& (0+255),w,b
  4031  002BD4  6EDA               	movwf	fsr2h,c
  4032  002BD6  0060  F20B  FFDF   	movff	_efgtoa$1666,indf2
  4033                           
  4034                           ; BSR set to: 0
  4035                           ;/opt/microchip/xc8/v2.05/pic/sources/c99/common/doprnt.c: 497:         --w;
  4036  002BDC  0795               	decf	efgtoa@w& (0+255),f,b
  4037  002BDE  A0D8               	btfss	status,0,c
  4038  002BE0  0796               	decf	(efgtoa@w+1)& (0+255),f,b
  4039                           
  4040                           ; BSR set to: 0
  4041                           ;/opt/microchip/xc8/v2.05/pic/sources/c99/common/doprnt.c: 498:         strcpy(&dbuf[n],
      +                           &dbuf[i]);
  4042  002BE2  0E20               	movlw	low _dbuf
  4043  002BE4  25A8               	addwf	efgtoa@n& (0+255),w,b
  4044  002BE6  6E14               	movwf	strcpy@dest,c
  4045  002BE8  0E01               	movlw	high _dbuf
  4046  002BEA  21A9               	addwfc	(efgtoa@n+1)& (0+255),w,b
  4047  002BEC  6E15               	movwf	strcpy@dest+1,c
  4048  002BEE  0E20               	movlw	low _dbuf
  4049  002BF0  25A0               	addwf	efgtoa@i& (0+255),w,b
  4050  002BF2  6E16               	movwf	strcpy@src,c
  4051  002BF4  0E01               	movlw	high _dbuf
  4052  002BF6  21A1               	addwfc	(efgtoa@i+1)& (0+255),w,b
  4053  002BF8  6E17               	movwf	strcpy@src+1,c
  4054  002BFA  EC63  F025         	call	_strcpy	;wreg free
  4055  002BFE  EFF7  F010         	goto	l5791
  4056  002C02                     __end_of_efgtoa:
  4057                           	opt callstack 0
  4058                           
  4059 ;; *************** function _tolower *****************
  4060 ;; Defined at:
  4061 ;;		line 4 in file "/opt/microchip/xc8/v2.05/pic/sources/c99/common/tolower.c"
  4062 ;; Parameters:    Size  Location     Type
  4063 ;;  c               2   25[COMRAM] int 
  4064 ;; Auto vars:     Size  Location     Type
  4065 ;;		None
  4066 ;; Return value:  Size  Location     Type
  4067 ;;                  2   25[COMRAM] int 
  4068 ;; Registers used:
  4069 ;;		wreg, status,2, status,0
  4070 ;; Tracked objects:
  4071 ;;		On entry : 0/0
  4072 ;;		On exit  : 0/0
  4073 ;;		Unchanged: 0/0
  4074 ;; Data sizes:     COMRAM   BANK0   BANK1   BANK2   BANK3   BANK4   BANK5   BANK6   BANK7   BANK8   BANK9  BANK10  BANK1
      +1  BANK12  BANK13  BANK14  BANK15  BANK16  BANK17  BANK18  BANK19  BANK20  BANK21  BANK22  BANK23  BANK24  BANK25  BANK2
      +6  BANK27  BANK28  BANK29  BANK30  BANK31
  4075 ;;      Params:         2       0       0       0       0       0       0       0       0       0       0       0       
      +0       0       0       0       0       0       0       0       0       0       0       0       0       0       0       
      +0       0       0       0       0       0
  4076 ;;      Locals:         2       0       0       0       0       0       0       0       0       0       0       0       
      +0       0       0       0       0       0       0       0       0       0       0       0       0       0       0       
      +0       0       0       0       0       0
  4077 ;;      Temps:          4       0       0       0       0       0       0       0       0       0       0       0       
      +0       0       0       0       0       0       0       0       0       0       0       0       0       0       0       
      +0       0       0       0       0       0
  4078 ;;      Totals:         8       0       0       0       0       0       0       0       0       0       0       0       
      +0       0       0       0       0       0       0       0       0       0       0       0       0       0       0       
      +0       0       0       0       0       0
  4079 ;;Total ram usage:        8 bytes
  4080 ;; Hardware stack levels used:    1
  4081 ;; Hardware stack levels required when called:    3
  4082 ;; This function calls:
  4083 ;;		_isupper
  4084 ;; This function is called by:
  4085 ;;		_efgtoa
  4086 ;;		_vfpfcnvrt
  4087 ;; This function uses a non-reentrant model
  4088 ;;
  4089                           
  4090                           	psect	text8
  4091  004CA2                     __ptext8:
  4092                           	opt callstack 0
  4093  004CA2                     _tolower:
  4094                           	opt callstack 23
  4095                           
  4096                           ;incstack = 0
  4097  004CA2  0EBF               	movlw	191
  4098  004CA4  6E1C               	movwf	??_tolower& (0+255),c
  4099  004CA6  0EFF               	movlw	255
  4100  004CA8  6E1D               	movwf	(??_tolower+1)& (0+255),c
  4101  004CAA  0060  F068  F01E   	movff	tolower@c,??_tolower+2
  4102  004CB0  0060  F06C  F01F   	movff	tolower@c+1,??_tolower+3
  4103  004CB6  501C               	movf	??_tolower,w,c
  4104  004CB8  261E               	addwf	??_tolower+2,f,c
  4105  004CBA  501D               	movf	??_tolower+1,w,c
  4106  004CBC  221F               	addwfc	??_tolower+3,f,c
  4107  004CBE  501F               	movf	??_tolower+3,w,c
  4108  004CC0  E106               	bnz	u6610
  4109  004CC2  0E1A               	movlw	26
  4110  004CC4  5C1E               	subwf	??_tolower+2,w,c
  4111  004CC6  B0D8               	btfsc	status,0,c
  4112  004CC8  D002               	goto	u6610
  4113  004CCA  0E01               	movlw	1
  4114  004CCC  D001               	goto	u6620
  4115  004CCE                     u6610:
  4116  004CCE  0E00               	movlw	0
  4117  004CD0                     u6620:
  4118  004CD0  6E20               	movwf	_tolower$2239,c
  4119  004CD2  6A21               	clrf	_tolower$2239+1,c
  4120  004CD4  5020               	movf	_tolower$2239,w,c
  4121  004CD6  1021               	iorwf	_tolower$2239+1,w,c
  4122  004CD8  B4D8               	btfsc	status,2,c
  4123  004CDA  D006               	goto	l1375
  4124  004CDC  0E20               	movlw	32
  4125  004CDE  101A               	iorwf	tolower@c,w,c
  4126  004CE0  6E1A               	movwf	?_tolower,c
  4127  004CE2  501B               	movf	tolower@c+1,w,c
  4128  004CE4  6E1B               	movwf	?_tolower+1,c
  4129  004CE6  0012               	return	
  4130  004CE8                     l1375:
  4131  004CE8  0060  F068  F01A   	movff	tolower@c,?_tolower
  4132  004CEE  0060  F06C  F01B   	movff	tolower@c+1,?_tolower+1
  4133  004CF4  0012               	return		;funcret
  4134  004CF6                     __end_of_tolower:
  4135                           	opt callstack 0
  4136                           
  4137 ;; *************** function _isupper *****************
  4138 ;; Defined at:
  4139 ;;		line 5 in file "/opt/microchip/xc8/v2.05/pic/sources/c99/common/isupper.c"
  4140 ;; Parameters:    Size  Location     Type
  4141 ;;  c               2   19[COMRAM] int 
  4142 ;; Auto vars:     Size  Location     Type
  4143 ;;		None
  4144 ;; Return value:  Size  Location     Type
  4145 ;;                  2   19[COMRAM] int 
  4146 ;; Registers used:
  4147 ;;		wreg, status,2, status,0
  4148 ;; Tracked objects:
  4149 ;;		On entry : 0/0
  4150 ;;		On exit  : 0/0
  4151 ;;		Unchanged: 0/0
  4152 ;; Data sizes:     COMRAM   BANK0   BANK1   BANK2   BANK3   BANK4   BANK5   BANK6   BANK7   BANK8   BANK9  BANK10  BANK1
      +1  BANK12  BANK13  BANK14  BANK15  BANK16  BANK17  BANK18  BANK19  BANK20  BANK21  BANK22  BANK23  BANK24  BANK25  BANK2
      +6  BANK27  BANK28  BANK29  BANK30  BANK31
  4153 ;;      Params:         2       0       0       0       0       0       0       0       0       0       0       0       
      +0       0       0       0       0       0       0       0       0       0       0       0       0       0       0       
      +0       0       0       0       0       0
  4154 ;;      Locals:         0       0       0       0       0       0       0       0       0       0       0       0       
      +0       0       0       0       0       0       0       0       0       0       0       0       0       0       0       
      +0       0       0       0       0       0
  4155 ;;      Temps:          4       0       0       0       0       0       0       0       0       0       0       0       
      +0       0       0       0       0       0       0       0       0       0       0       0       0       0       0       
      +0       0       0       0       0       0
  4156 ;;      Totals:         6       0       0       0       0       0       0       0       0       0       0       0       
      +0       0       0       0       0       0       0       0       0       0       0       0       0       0       0       
      +0       0       0       0       0       0
  4157 ;;Total ram usage:        6 bytes
  4158 ;; Hardware stack levels used:    1
  4159 ;; Hardware stack levels required when called:    2
  4160 ;; This function calls:
  4161 ;;		Nothing
  4162 ;; This function is called by:
  4163 ;;		_efgtoa
  4164 ;;		_vfpfcnvrt
  4165 ;;		_tolower
  4166 ;; This function uses a non-reentrant model
  4167 ;;
  4168                           
  4169                           	psect	text9
  4170  004DDC                     __ptext9:
  4171                           	opt callstack 0
  4172  004DDC                     _isupper:
  4173                           	opt callstack 23
  4174                           
  4175                           ;incstack = 0
  4176  004DDC  0EBF               	movlw	191
  4177  004DDE  6E16               	movwf	??_isupper& (0+255),c
  4178  004DE0  0EFF               	movlw	255
  4179  004DE2  6E17               	movwf	(??_isupper+1)& (0+255),c
  4180  004DE4  0060  F050  F018   	movff	isupper@c,??_isupper+2
  4181  004DEA  0060  F054  F019   	movff	isupper@c+1,??_isupper+3
  4182  004DF0  5016               	movf	??_isupper,w,c
  4183  004DF2  2618               	addwf	??_isupper+2,f,c
  4184  004DF4  5017               	movf	??_isupper+1,w,c
  4185  004DF6  2219               	addwfc	??_isupper+3,f,c
  4186  004DF8  5019               	movf	??_isupper+3,w,c
  4187  004DFA  E106               	bnz	u6070
  4188  004DFC  0E1A               	movlw	26
  4189  004DFE  5C18               	subwf	??_isupper+2,w,c
  4190  004E00  B0D8               	btfsc	status,0,c
  4191  004E02  D002               	goto	u6070
  4192  004E04  0E01               	movlw	1
  4193  004E06  D001               	goto	u6080
  4194  004E08                     u6070:
  4195  004E08  0E00               	movlw	0
  4196  004E0A                     u6080:
  4197  004E0A  6E14               	movwf	?_isupper,c
  4198  004E0C  6A15               	clrf	?_isupper+1,c
  4199  004E0E  0012               	return		;funcret
  4200  004E10                     __end_of_isupper:
  4201                           	opt callstack 0
  4202                           
  4203 ;; *************** function _strcpy *****************
  4204 ;; Defined at:
  4205 ;;		line 7 in file "/opt/microchip/xc8/v2.05/pic/sources/c99/common/strcpy.c"
  4206 ;; Parameters:    Size  Location     Type
  4207 ;;  dest            2   19[COMRAM] PTR unsigned char 
  4208 ;;		 -> dbuf(80), 
  4209 ;;  src             2   21[COMRAM] PTR const unsigned char 
  4210 ;;		 -> STR_15(4), STR_14(4), STR_11(4), STR_10(4), 
  4211 ;;		 -> dbuf(80), 
  4212 ;; Auto vars:     Size  Location     Type
  4213 ;;  d               2   27[COMRAM] PTR unsigned char 
  4214 ;;		 -> dbuf(80), 
  4215 ;;  s               2   25[COMRAM] PTR const unsigned char 
  4216 ;;		 -> STR_15(4), STR_14(4), STR_11(4), STR_10(4), 
  4217 ;;		 -> dbuf(80), 
  4218 ;; Return value:  Size  Location     Type
  4219 ;;                  2   19[COMRAM] PTR unsigned char 
  4220 ;; Registers used:
  4221 ;;		wreg, fsr1l, fsr1h, fsr2l, fsr2h, status,2, status,0, tblptrl, tblptrh, tblptru
  4222 ;; Tracked objects:
  4223 ;;		On entry : 0/0
  4224 ;;		On exit  : 0/0
  4225 ;;		Unchanged: 0/0
  4226 ;; Data sizes:     COMRAM   BANK0   BANK1   BANK2   BANK3   BANK4   BANK5   BANK6   BANK7   BANK8   BANK9  BANK10  BANK1
      +1  BANK12  BANK13  BANK14  BANK15  BANK16  BANK17  BANK18  BANK19  BANK20  BANK21  BANK22  BANK23  BANK24  BANK25  BANK2
      +6  BANK27  BANK28  BANK29  BANK30  BANK31
  4227 ;;      Params:         4       0       0       0       0       0       0       0       0       0       0       0       
      +0       0       0       0       0       0       0       0       0       0       0       0       0       0       0       
      +0       0       0       0       0       0
  4228 ;;      Locals:         4       0       0       0       0       0       0       0       0       0       0       0       
      +0       0       0       0       0       0       0       0       0       0       0       0       0       0       0       
      +0       0       0       0       0       0
  4229 ;;      Temps:          2       0       0       0       0       0       0       0       0       0       0       0       
      +0       0       0       0       0       0       0       0       0       0       0       0       0       0       0       
      +0       0       0       0       0       0
  4230 ;;      Totals:        10       0       0       0       0       0       0       0       0       0       0       0       
      +0       0       0       0       0       0       0       0       0       0       0       0       0       0       0       
      +0       0       0       0       0       0
  4231 ;;Total ram usage:       10 bytes
  4232 ;; Hardware stack levels used:    1
  4233 ;; Hardware stack levels required when called:    2
  4234 ;; This function calls:
  4235 ;;		Nothing
  4236 ;; This function is called by:
  4237 ;;		_efgtoa
  4238 ;; This function uses a non-reentrant model
  4239 ;;
  4240                           
  4241                           	psect	text10
  4242  004AC6                     __ptext10:
  4243                           	opt callstack 0
  4244  004AC6                     _strcpy:
  4245                           	opt callstack 23
  4246                           
  4247                           ;incstack = 0
  4248  004AC6  0060  F058  F01A   	movff	strcpy@src,strcpy@s
  4249  004ACC  0060  F05C  F01B   	movff	strcpy@src+1,strcpy@s+1
  4250  004AD2  0060  F050  F01C   	movff	strcpy@dest,strcpy@d
  4251  004AD8  0060  F054  F01D   	movff	strcpy@dest+1,strcpy@d+1
  4252  004ADE                     l5263:
  4253  004ADE  501A               	movf	strcpy@s,w,c
  4254  004AE0  6E18               	movwf	??_strcpy& (0+255),c
  4255  004AE2  501B               	movf	strcpy@s+1,w,c
  4256  004AE4  6E19               	movwf	(??_strcpy+1)& (0+255),c
  4257  004AE6  4A1A               	infsnz	strcpy@s,f,c
  4258  004AE8  2A1B               	incf	strcpy@s+1,f,c
  4259  004AEA  0060  F063  FFF6   	movff	??_strcpy,tblptrl
  4260  004AF0  0060  F067  FFF7   	movff	??_strcpy+1,tblptrh
  4261  004AF6  0E00               	movlw	low (__smallconst shr (0+16))
  4262  004AF8  6EF8               	movwf	tblptru,c
  4263  004AFA  0060  F073  FFD9   	movff	strcpy@d,fsr2l
  4264  004B00  0060  F077  FFDA   	movff	strcpy@d+1,fsr2h
  4265  004B06  4A1C               	infsnz	strcpy@d,f,c
  4266  004B08  2A1D               	incf	strcpy@d+1,f,c
  4267  004B0A  0E1F               	movlw	(high __ramtop+-1)
  4268  004B0C  64F7               	cpfsgt	tblptrh,c
  4269  004B0E  D003               	bra	u6597
  4270  004B10  0008               	tblrd		*
  4271  004B12  50F5               	movf	tablat,w,c
  4272  004B14  D007               	bra	u6590
  4273  004B16                     u6597:
  4274  004B16  006F FFDB FFE1     	movff	tblptrl,fsr1l
  4275  004B1C  006F FFDF FFE2     	movff	tblptrh,fsr1h
  4276  004B22  50E7               	movf	indf1,w,c
  4277  004B24                     u6590:
  4278  004B24  6EDF               	movwf	indf2,c
  4279  004B26  50DF               	movf	indf2,w,c
  4280  004B28  B4D8               	btfsc	status,2,c
  4281  004B2A  0012               	return	
  4282  004B2C  D7D8               	goto	l5263
  4283  004B2E                     __end_of_strcpy:
  4284                           	opt callstack 0
  4285                           
  4286 ;; *************** function _pad *****************
  4287 ;; Defined at:
  4288 ;;		line 72 in file "/opt/microchip/xc8/v2.05/pic/sources/c99/common/doprnt.c"
  4289 ;; Parameters:    Size  Location     Type
  4290 ;;  fp              2   35[COMRAM] PTR struct _IO_FILE
  4291 ;;		 -> sprintf@f(6), 
  4292 ;;  buf             2   37[COMRAM] PTR unsigned char 
  4293 ;;		 -> dbuf(80), 
  4294 ;;  p               2   39[COMRAM] int 
  4295 ;; Auto vars:     Size  Location     Type
  4296 ;;  w               2   44[COMRAM] int 
  4297 ;;  i               2   42[COMRAM] int 
  4298 ;; Return value:  Size  Location     Type
  4299 ;;                  2   35[COMRAM] int 
  4300 ;; Registers used:
  4301 ;;		wreg, fsr1l, fsr1h, fsr2l, fsr2h, status,2, status,0, cstack
  4302 ;; Tracked objects:
  4303 ;;		On entry : 0/0
  4304 ;;		On exit  : 0/0
  4305 ;;		Unchanged: 0/0
  4306 ;; Data sizes:     COMRAM   BANK0   BANK1   BANK2   BANK3   BANK4   BANK5   BANK6   BANK7   BANK8   BANK9  BANK10  BANK1
      +1  BANK12  BANK13  BANK14  BANK15  BANK16  BANK17  BANK18  BANK19  BANK20  BANK21  BANK22  BANK23  BANK24  BANK25  BANK2
      +6  BANK27  BANK28  BANK29  BANK30  BANK31
  4307 ;;      Params:         6       0       0       0       0       0       0       0       0       0       0       0       
      +0       0       0       0       0       0       0       0       0       0       0       0       0       0       0       
      +0       0       0       0       0       0
  4308 ;;      Locals:         4       0       0       0       0       0       0       0       0       0       0       0       
      +0       0       0       0       0       0       0       0       0       0       0       0       0       0       0       
      +0       0       0       0       0       0
  4309 ;;      Temps:          1       0       0       0       0       0       0       0       0       0       0       0       
      +0       0       0       0       0       0       0       0       0       0       0       0       0       0       0       
      +0       0       0       0       0       0
  4310 ;;      Totals:        11       0       0       0       0       0       0       0       0       0       0       0       
      +0       0       0       0       0       0       0       0       0       0       0       0       0       0       0       
      +0       0       0       0       0       0
  4311 ;;Total ram usage:       11 bytes
  4312 ;; Hardware stack levels used:    1
  4313 ;; Hardware stack levels required when called:    5
  4314 ;; This function calls:
  4315 ;;		_fputc
  4316 ;;		_fputs
  4317 ;;		_strlen
  4318 ;; This function is called by:
  4319 ;;		_efgtoa
  4320 ;; This function uses a non-reentrant model
  4321 ;;
  4322                           
  4323                           	psect	text11
  4324  0044AE                     __ptext11:
  4325                           	opt callstack 0
  4326  0044AE                     _pad:
  4327                           	opt callstack 20
  4328                           
  4329                           ;/opt/microchip/xc8/v2.05/pic/sources/c99/common/doprnt.c: 72: static int pad(FILE *fp, 
      +                          char *buf, int p);/opt/microchip/xc8/v2.05/pic/sources/c99/common/doprnt.c: 73: {;/opt/m
      +                          icrochip/xc8/v2.05/pic/sources/c99/common/doprnt.c: 74:     int i, w;;/opt/microchip/xc8
      +                          /v2.05/pic/sources/c99/common/doprnt.c: 77:     if (flags & (1 << 0)) {
  4330                           
  4331                           ;incstack = 0
  4332  0044AE  A045               	btfss	_flags,0,c
  4333  0044B0  D00E               	goto	l5221
  4334                           
  4335                           ;/opt/microchip/xc8/v2.05/pic/sources/c99/common/doprnt.c: 78:         fputs((const char
      +                           *)buf, fp);
  4336  0044B2  0060  F098  F01D   	movff	pad@buf,fputs@s
  4337  0044B8  0060  F09C  F01E   	movff	pad@buf+1,fputs@s+1
  4338  0044BE  0060  F090  F01F   	movff	pad@fp,fputs@fp
  4339  0044C4  0060  F094  F020   	movff	pad@fp+1,fputs@fp+1
  4340  0044CA  EC7B  F026         	call	_fputs	;wreg free
  4341  0044CE                     l5221:
  4342                           
  4343                           ;/opt/microchip/xc8/v2.05/pic/sources/c99/common/doprnt.c: 82:     w = (p < 0) ? 0 : p;
  4344  0044CE  BE29               	btfsc	pad@p+1,7,c
  4345  0044D0  D007               	goto	l5225
  4346  0044D2  0060  F0A0  F02D   	movff	pad@p,pad@w
  4347  0044D8  0060  F0A4  F02E   	movff	pad@p+1,pad@w+1
  4348  0044DE  D004               	goto	l498
  4349  0044E0                     l5225:
  4350  0044E0  0E00               	movlw	0
  4351  0044E2  6E2E               	movwf	pad@w+1,c
  4352  0044E4  0E00               	movlw	0
  4353  0044E6  6E2D               	movwf	pad@w,c
  4354  0044E8                     l498:
  4355                           
  4356                           ;/opt/microchip/xc8/v2.05/pic/sources/c99/common/doprnt.c: 83:     i = 0;
  4357  0044E8  0E00               	movlw	0
  4358  0044EA  6E2C               	movwf	pad@i+1,c
  4359  0044EC  0E00               	movlw	0
  4360  0044EE  6E2B               	movwf	pad@i,c
  4361                           
  4362                           ;/opt/microchip/xc8/v2.05/pic/sources/c99/common/doprnt.c: 84:     while (i < w) {
  4363  0044F0  D00E               	goto	l5231
  4364  0044F2                     l5227:
  4365                           
  4366                           ;/opt/microchip/xc8/v2.05/pic/sources/c99/common/doprnt.c: 85:         fputc(' ', fp);
  4367  0044F2  0E00               	movlw	0
  4368  0044F4  6E15               	movwf	fputc@c+1,c
  4369  0044F6  0E20               	movlw	32
  4370  0044F8  6E14               	movwf	fputc@c,c
  4371  0044FA  0060  F090  F016   	movff	pad@fp,fputc@fp
  4372  004500  0060  F094  F017   	movff	pad@fp+1,fputc@fp+1
  4373  004506  ECB0  F022         	call	_fputc	;wreg free
  4374                           
  4375                           ;/opt/microchip/xc8/v2.05/pic/sources/c99/common/doprnt.c: 86:         ++i;
  4376  00450A  4A2B               	infsnz	pad@i,f,c
  4377  00450C  2A2C               	incf	pad@i+1,f,c
  4378  00450E                     l5231:
  4379                           
  4380                           ;/opt/microchip/xc8/v2.05/pic/sources/c99/common/doprnt.c: 84:     while (i < w) {
  4381  00450E  502D               	movf	pad@w,w,c
  4382  004510  5C2B               	subwf	pad@i,w,c
  4383  004512  502C               	movf	pad@i+1,w,c
  4384  004514  0A80               	xorlw	128
  4385  004516  6E2A               	movwf	??_pad& (0+255),c
  4386  004518  502E               	movf	pad@w+1,w,c
  4387  00451A  0A80               	xorlw	128
  4388  00451C  582A               	subwfb	??_pad& (0+255),w,c
  4389  00451E  A0D8               	btfss	status,0,c
  4390  004520  D7E8               	goto	l5227
  4391                           
  4392                           ;/opt/microchip/xc8/v2.05/pic/sources/c99/common/doprnt.c: 90:     if (!(flags & (1 << 0
      +                          ))) {
  4393  004522  B045               	btfsc	_flags,0,c
  4394  004524  D00E               	goto	l5235
  4395                           
  4396                           ;/opt/microchip/xc8/v2.05/pic/sources/c99/common/doprnt.c: 91:         fputs((const char
      +                           *)buf, fp);
  4397  004526  0060  F098  F01D   	movff	pad@buf,fputs@s
  4398  00452C  0060  F09C  F01E   	movff	pad@buf+1,fputs@s+1
  4399  004532  0060  F090  F01F   	movff	pad@fp,fputs@fp
  4400  004538  0060  F094  F020   	movff	pad@fp+1,fputs@fp+1
  4401  00453E  EC7B  F026         	call	_fputs	;wreg free
  4402  004542                     l5235:
  4403                           
  4404                           ;/opt/microchip/xc8/v2.05/pic/sources/c99/common/doprnt.c: 94:     return strlen(buf) + 
      +                          w;
  4405  004542  0060  F098  F014   	movff	pad@buf,strlen@s
  4406  004548  0060  F09C  F015   	movff	pad@buf+1,strlen@s+1
  4407  00454E  EC08  F027         	call	_strlen	;wreg free
  4408  004552  502D               	movf	pad@w,w,c
  4409  004554  2414               	addwf	?_strlen,w,c
  4410  004556  6E24               	movwf	?_pad,c
  4411  004558  502E               	movf	pad@w+1,w,c
  4412  00455A  2015               	addwfc	?_strlen+1,w,c
  4413  00455C  6E25               	movwf	?_pad+1,c
  4414  00455E  0012               	return		;funcret
  4415  004560                     __end_of_pad:
  4416                           	opt callstack 0
  4417                           
  4418 ;; *************** function _strlen *****************
  4419 ;; Defined at:
  4420 ;;		line 12 in file "/opt/microchip/xc8/v2.05/pic/sources/c99/common/strlen.c"
  4421 ;; Parameters:    Size  Location     Type
  4422 ;;  s               2   19[COMRAM] PTR const unsigned char 
  4423 ;;		 -> dbuf(80), 
  4424 ;; Auto vars:     Size  Location     Type
  4425 ;;  a               2   21[COMRAM] PTR const unsigned char 
  4426 ;;		 -> dbuf(80), 
  4427 ;; Return value:  Size  Location     Type
  4428 ;;                  2   19[COMRAM] unsigned int 
  4429 ;; Registers used:
  4430 ;;		wreg, fsr2l, fsr2h, status,2, status,0
  4431 ;; Tracked objects:
  4432 ;;		On entry : 0/0
  4433 ;;		On exit  : 0/0
  4434 ;;		Unchanged: 0/0
  4435 ;; Data sizes:     COMRAM   BANK0   BANK1   BANK2   BANK3   BANK4   BANK5   BANK6   BANK7   BANK8   BANK9  BANK10  BANK1
      +1  BANK12  BANK13  BANK14  BANK15  BANK16  BANK17  BANK18  BANK19  BANK20  BANK21  BANK22  BANK23  BANK24  BANK25  BANK2
      +6  BANK27  BANK28  BANK29  BANK30  BANK31
  4436 ;;      Params:         2       0       0       0       0       0       0       0       0       0       0       0       
      +0       0       0       0       0       0       0       0       0       0       0       0       0       0       0       
      +0       0       0       0       0       0
  4437 ;;      Locals:         2       0       0       0       0       0       0       0       0       0       0       0       
      +0       0       0       0       0       0       0       0       0       0       0       0       0       0       0       
      +0       0       0       0       0       0
  4438 ;;      Temps:          0       0       0       0       0       0       0       0       0       0       0       0       
      +0       0       0       0       0       0       0       0       0       0       0       0       0       0       0       
      +0       0       0       0       0       0
  4439 ;;      Totals:         4       0       0       0       0       0       0       0       0       0       0       0       
      +0       0       0       0       0       0       0       0       0       0       0       0       0       0       0       
      +0       0       0       0       0       0
  4440 ;;Total ram usage:        4 bytes
  4441 ;; Hardware stack levels used:    1
  4442 ;; Hardware stack levels required when called:    2
  4443 ;; This function calls:
  4444 ;;		Nothing
  4445 ;; This function is called by:
  4446 ;;		_pad
  4447 ;; This function uses a non-reentrant model
  4448 ;;
  4449                           
  4450                           	psect	text12
  4451  004E10                     __ptext12:
  4452                           	opt callstack 0
  4453  004E10                     _strlen:
  4454                           	opt callstack 22
  4455                           
  4456                           ;incstack = 0
  4457  004E10  0060  F050  F016   	movff	strlen@s,strlen@a
  4458  004E16  0060  F054  F017   	movff	strlen@s+1,strlen@a+1
  4459  004E1C  D002               	goto	l5005
  4460  004E1E                     l5003:
  4461  004E1E  4A14               	infsnz	strlen@s,f,c
  4462  004E20  2A15               	incf	strlen@s+1,f,c
  4463  004E22                     l5005:
  4464  004E22  0060  F053  FFD9   	movff	strlen@s,fsr2l
  4465  004E28  0060  F057  FFDA   	movff	strlen@s+1,fsr2h
  4466  004E2E  50DF               	movf	indf2,w,c
  4467  004E30  A4D8               	btfss	status,2,c
  4468  004E32  D7F5               	goto	l5003
  4469  004E34  5016               	movf	strlen@a,w,c
  4470  004E36  5C14               	subwf	strlen@s,w,c
  4471  004E38  6E14               	movwf	?_strlen,c
  4472  004E3A  5017               	movf	strlen@a+1,w,c
  4473  004E3C  5815               	subwfb	strlen@s+1,w,c
  4474  004E3E  6E15               	movwf	?_strlen+1,c
  4475  004E40  0012               	return		;funcret
  4476  004E42                     __end_of_strlen:
  4477                           	opt callstack 0
  4478                           
  4479 ;; *************** function _fputs *****************
  4480 ;; Defined at:
  4481 ;;		line 8 in file "/opt/microchip/xc8/v2.05/pic/sources/c99/common/nf_fputs.c"
  4482 ;; Parameters:    Size  Location     Type
  4483 ;;  s               2   28[COMRAM] PTR const unsigned char 
  4484 ;;		 -> dbuf(80), 
  4485 ;;  fp              2   30[COMRAM] PTR struct _IO_FILE
  4486 ;;		 -> sprintf@f(6), 
  4487 ;; Auto vars:     Size  Location     Type
  4488 ;;  i               2   33[COMRAM] int 
  4489 ;;  c               1   32[COMRAM] unsigned char 
  4490 ;; Return value:  Size  Location     Type
  4491 ;;                  2   28[COMRAM] int 
  4492 ;; Registers used:
  4493 ;;		wreg, fsr1l, fsr1h, fsr2l, fsr2h, status,2, status,0, cstack
  4494 ;; Tracked objects:
  4495 ;;		On entry : 0/0
  4496 ;;		On exit  : 0/0
  4497 ;;		Unchanged: 0/0
  4498 ;; Data sizes:     COMRAM   BANK0   BANK1   BANK2   BANK3   BANK4   BANK5   BANK6   BANK7   BANK8   BANK9  BANK10  BANK1
      +1  BANK12  BANK13  BANK14  BANK15  BANK16  BANK17  BANK18  BANK19  BANK20  BANK21  BANK22  BANK23  BANK24  BANK25  BANK2
      +6  BANK27  BANK28  BANK29  BANK30  BANK31
  4499 ;;      Params:         4       0       0       0       0       0       0       0       0       0       0       0       
      +0       0       0       0       0       0       0       0       0       0       0       0       0       0       0       
      +0       0       0       0       0       0
  4500 ;;      Locals:         3       0       0       0       0       0       0       0       0       0       0       0       
      +0       0       0       0       0       0       0       0       0       0       0       0       0       0       0       
      +0       0       0       0       0       0
  4501 ;;      Temps:          0       0       0       0       0       0       0       0       0       0       0       0       
      +0       0       0       0       0       0       0       0       0       0       0       0       0       0       0       
      +0       0       0       0       0       0
  4502 ;;      Totals:         7       0       0       0       0       0       0       0       0       0       0       0       
      +0       0       0       0       0       0       0       0       0       0       0       0       0       0       0       
      +0       0       0       0       0       0
  4503 ;;Total ram usage:        7 bytes
  4504 ;; Hardware stack levels used:    1
  4505 ;; Hardware stack levels required when called:    4
  4506 ;; This function calls:
  4507 ;;		_fputc
  4508 ;; This function is called by:
  4509 ;;		_pad
  4510 ;; This function uses a non-reentrant model
  4511 ;;
  4512                           
  4513                           	psect	text13
  4514  004CF6                     __ptext13:
  4515                           	opt callstack 0
  4516  004CF6                     _fputs:
  4517                           	opt callstack 20
  4518                           
  4519                           ;incstack = 0
  4520  004CF6  0E00               	movlw	0
  4521  004CF8  6E23               	movwf	fputs@i+1,c
  4522  004CFA  0E00               	movlw	0
  4523  004CFC  6E22               	movwf	fputs@i,c
  4524  004CFE  D00E               	goto	l4999
  4525  004D00                     l4995:
  4526  004D00  0060  F084  F014   	movff	fputs@c,fputc@c
  4527  004D06  6A15               	clrf	fputc@c+1,c
  4528  004D08  0060  F07C  F016   	movff	fputs@fp,fputc@fp
  4529  004D0E  0060  F080  F017   	movff	fputs@fp+1,fputc@fp+1
  4530  004D14  ECB0  F022         	call	_fputc	;wreg free
  4531  004D18  4A22               	infsnz	fputs@i,f,c
  4532  004D1A  2A23               	incf	fputs@i+1,f,c
  4533  004D1C                     l4999:
  4534  004D1C  5022               	movf	fputs@i,w,c
  4535  004D1E  241D               	addwf	fputs@s,w,c
  4536  004D20  6ED9               	movwf	fsr2l,c
  4537  004D22  5023               	movf	fputs@i+1,w,c
  4538  004D24  201E               	addwfc	fputs@s+1,w,c
  4539  004D26  6EDA               	movwf	fsr2h,c
  4540  004D28  50DF               	movf	indf2,w,c
  4541  004D2A  6E21               	movwf	fputs@c,c
  4542  004D2C  5021               	movf	fputs@c,w,c
  4543  004D2E  B4D8               	btfsc	status,2,c
  4544  004D30  0012               	return	
  4545  004D32  D7E6               	goto	l4995
  4546  004D34                     __end_of_fputs:
  4547                           	opt callstack 0
  4548                           
  4549 ;; *************** function _fputc *****************
  4550 ;; Defined at:
  4551 ;;		line 8 in file "/opt/microchip/xc8/v2.05/pic/sources/c99/common/nf_fputc.c"
  4552 ;; Parameters:    Size  Location     Type
  4553 ;;  c               2   19[COMRAM] int 
  4554 ;;  fp              2   21[COMRAM] PTR struct _IO_FILE
  4555 ;;		 -> sprintf@f(6), 
  4556 ;; Auto vars:     Size  Location     Type
  4557 ;;		None
  4558 ;; Return value:  Size  Location     Type
  4559 ;;                  2   19[COMRAM] int 
  4560 ;; Registers used:
  4561 ;;		wreg, fsr1l, fsr1h, fsr2l, fsr2h, status,2, status,0, cstack
  4562 ;; Tracked objects:
  4563 ;;		On entry : 0/0
  4564 ;;		On exit  : 0/0
  4565 ;;		Unchanged: 0/0
  4566 ;; Data sizes:     COMRAM   BANK0   BANK1   BANK2   BANK3   BANK4   BANK5   BANK6   BANK7   BANK8   BANK9  BANK10  BANK1
      +1  BANK12  BANK13  BANK14  BANK15  BANK16  BANK17  BANK18  BANK19  BANK20  BANK21  BANK22  BANK23  BANK24  BANK25  BANK2
      +6  BANK27  BANK28  BANK29  BANK30  BANK31
  4567 ;;      Params:         4       0       0       0       0       0       0       0       0       0       0       0       
      +0       0       0       0       0       0       0       0       0       0       0       0       0       0       0       
      +0       0       0       0       0       0
  4568 ;;      Locals:         0       0       0       0       0       0       0       0       0       0       0       0       
      +0       0       0       0       0       0       0       0       0       0       0       0       0       0       0       
      +0       0       0       0       0       0
  4569 ;;      Temps:          5       0       0       0       0       0       0       0       0       0       0       0       
      +0       0       0       0       0       0       0       0       0       0       0       0       0       0       0       
      +0       0       0       0       0       0
  4570 ;;      Totals:         9       0       0       0       0       0       0       0       0       0       0       0       
      +0       0       0       0       0       0       0       0       0       0       0       0       0       0       0       
      +0       0       0       0       0       0
  4571 ;;Total ram usage:        9 bytes
  4572 ;; Hardware stack levels used:    1
  4573 ;; Hardware stack levels required when called:    3
  4574 ;; This function calls:
  4575 ;;		_putch
  4576 ;; This function is called by:
  4577 ;;		_pad
  4578 ;;		_vfpfcnvrt
  4579 ;;		_fputs
  4580 ;; This function uses a non-reentrant model
  4581 ;;
  4582                           
  4583                           	psect	text14
  4584  004560                     __ptext14:
  4585                           	opt callstack 0
  4586  004560                     _fputc:
  4587                           	opt callstack 23
  4588                           
  4589                           ;incstack = 0
  4590  004560  5016               	movf	fputc@fp,w,c
  4591  004562  1017               	iorwf	fputc@fp+1,w,c
  4592  004564  B4D8               	btfsc	status,2,c
  4593  004566  D004               	goto	u6020
  4594  004568  5016               	movf	fputc@fp,w,c
  4595  00456A  1017               	iorwf	fputc@fp+1,w,c
  4596  00456C  A4D8               	btfss	status,2,c
  4597  00456E  D004               	goto	l4985
  4598  004570                     u6020:
  4599  004570  5014               	movf	fputc@c,w,c
  4600  004572  ECBA  F027         	call	_putch
  4601  004576  0012               	return	
  4602  004578                     l4985:
  4603  004578  EE20 F004          	lfsr	2,4
  4604  00457C  5016               	movf	fputc@fp,w,c
  4605  00457E  26D9               	addwf	fsr2l,f,c
  4606  004580  5017               	movf	fputc@fp+1,w,c
  4607  004582  22DA               	addwfc	fsr2h,f,c
  4608  004584  50DE               	movf	postinc2,w,c
  4609  004586  10DE               	iorwf	postinc2,w,c
  4610  004588  B4D8               	btfsc	status,2,c
  4611  00458A  D016               	goto	u6040
  4612  00458C  EE20 F004          	lfsr	2,4
  4613  004590  5016               	movf	fputc@fp,w,c
  4614  004592  26D9               	addwf	fsr2l,f,c
  4615  004594  5017               	movf	fputc@fp+1,w,c
  4616  004596  22DA               	addwfc	fsr2h,f,c
  4617  004598  EE10 F002          	lfsr	1,2
  4618  00459C  5016               	movf	fputc@fp,w,c
  4619  00459E  26E1               	addwf	fsr1l,f,c
  4620  0045A0  5017               	movf	fputc@fp+1,w,c
  4621  0045A2  22E2               	addwfc	fsr1h,f,c
  4622  0045A4  50DE               	movf	postinc2,w,c
  4623  0045A6  5CE6               	subwf	postinc1,w,c
  4624  0045A8  50E6               	movf	postinc1,w,c
  4625  0045AA  0A80               	xorlw	128
  4626  0045AC  6E1C               	movwf	(??_fputc+4)& (0+255),c
  4627  0045AE  50DE               	movf	postinc2,w,c
  4628  0045B0  0A80               	xorlw	128
  4629  0045B2  581C               	subwfb	(??_fputc+4)& (0+255),w,c
  4630  0045B4  B0D8               	btfsc	status,0,c
  4631  0045B6  0012               	return	
  4632  0045B8                     u6040:
  4633  0045B8  EE20 F002          	lfsr	2,2
  4634  0045BC  5016               	movf	fputc@fp,w,c
  4635  0045BE  26D9               	addwf	fsr2l,f,c
  4636  0045C0  5017               	movf	fputc@fp+1,w,c
  4637  0045C2  22DA               	addwfc	fsr2h,f,c
  4638  0045C4  006F FF78  F018    	movff	postinc2,??_fputc
  4639  0045CA  006F FF74  F019    	movff	postdec2,??_fputc+1
  4640  0045D0  0060  F05B  FFD9   	movff	fputc@fp,fsr2l
  4641  0045D6  0060  F05F  FFDA   	movff	fputc@fp+1,fsr2h
  4642  0045DC  006F FF78  F01A    	movff	postinc2,??_fputc+2
  4643  0045E2  006F FF74  F01B    	movff	postdec2,??_fputc+3
  4644  0045E8  5018               	movf	??_fputc,w,c
  4645  0045EA  241A               	addwf	??_fputc+2,w,c
  4646  0045EC  6ED9               	movwf	fsr2l,c
  4647  0045EE  5019               	movf	??_fputc+1,w,c
  4648  0045F0  201B               	addwfc	??_fputc+3,w,c
  4649  0045F2  6EDA               	movwf	fsr2h,c
  4650  0045F4  0060  F053  FFDF   	movff	fputc@c,indf2
  4651  0045FA  EE20 F002          	lfsr	2,2
  4652  0045FE  5016               	movf	fputc@fp,w,c
  4653  004600  26D9               	addwf	fsr2l,f,c
  4654  004602  5017               	movf	fputc@fp+1,w,c
  4655  004604  22DA               	addwfc	fsr2h,f,c
  4656  004606  2ADE               	incf	postinc2,f,c
  4657  004608  0E00               	movlw	0
  4658  00460A  22DD               	addwfc	postdec2,f,c
  4659  00460C  0012               	return		;funcret
  4660  00460E                     __end_of_fputc:
  4661                           	opt callstack 0
  4662                           
  4663 ;; *************** function _putch *****************
  4664 ;; Defined at:
  4665 ;;		line 7 in file "/opt/microchip/xc8/v2.05/pic/sources/c99/common/putch.c"
  4666 ;; Parameters:    Size  Location     Type
  4667 ;;  c               1    wreg     unsigned char 
  4668 ;; Auto vars:     Size  Location     Type
  4669 ;;  c               1    0[COMRAM] unsigned char 
  4670 ;; Return value:  Size  Location     Type
  4671 ;;                  1    wreg      void 
  4672 ;; Registers used:
  4673 ;;		wreg
  4674 ;; Tracked objects:
  4675 ;;		On entry : 0/0
  4676 ;;		On exit  : 0/0
  4677 ;;		Unchanged: 0/0
  4678 ;; Data sizes:     COMRAM   BANK0   BANK1   BANK2   BANK3   BANK4   BANK5   BANK6   BANK7   BANK8   BANK9  BANK10  BANK1
      +1  BANK12  BANK13  BANK14  BANK15  BANK16  BANK17  BANK18  BANK19  BANK20  BANK21  BANK22  BANK23  BANK24  BANK25  BANK2
      +6  BANK27  BANK28  BANK29  BANK30  BANK31
  4679 ;;      Params:         0       0       0       0       0       0       0       0       0       0       0       0       
      +0       0       0       0       0       0       0       0       0       0       0       0       0       0       0       
      +0       0       0       0       0       0
  4680 ;;      Locals:         0       0       0       0       0       0       0       0       0       0       0       0       
      +0       0       0       0       0       0       0       0       0       0       0       0       0       0       0       
      +0       0       0       0       0       0
  4681 ;;      Temps:          0       0       0       0       0       0       0       0       0       0       0       0       
      +0       0       0       0       0       0       0       0       0       0       0       0       0       0       0       
      +0       0       0       0       0       0
  4682 ;;      Totals:         0       0       0       0       0       0       0       0       0       0       0       0       
      +0       0       0       0       0       0       0       0       0       0       0       0       0       0       0       
      +0       0       0       0       0       0
  4683 ;;Total ram usage:        0 bytes
  4684 ;; Hardware stack levels used:    1
  4685 ;; Hardware stack levels required when called:    2
  4686 ;; This function calls:
  4687 ;;		Nothing
  4688 ;; This function is called by:
  4689 ;;		_fputc
  4690 ;; This function uses a non-reentrant model
  4691 ;;
  4692                           
  4693                           	psect	text15
  4694  004F74                     __ptext15:
  4695                           	opt callstack 0
  4696  004F74                     _putch:
  4697                           	opt callstack 23
  4698                           
  4699                           ;incstack = 0
  4700  004F74  0012               	return		;funcret
  4701  004F76                     __end_of_putch:
  4702                           	opt callstack 0
  4703                           
  4704 ;; *************** function _floorf *****************
  4705 ;; Defined at:
  4706 ;;		line 3 in file "/opt/microchip/xc8/v2.05/pic/sources/c99/common/floorf.c"
  4707 ;; Parameters:    Size  Location     Type
  4708 ;;  x               4   44[COMRAM] float 
  4709 ;; Auto vars:     Size  Location     Type
  4710 ;;  u               4    6[BANK0 ] struct .
  4711 ;;  m               4    0[BANK0 ] unsigned long 
  4712 ;;  e               2    4[BANK0 ] int 
  4713 ;; Return value:  Size  Location     Type
  4714 ;;                  4   44[COMRAM] float 
  4715 ;; Registers used:
  4716 ;;		wreg, status,2, status,0
  4717 ;; Tracked objects:
  4718 ;;		On entry : 0/0
  4719 ;;		On exit  : 0/0
  4720 ;;		Unchanged: 0/0
  4721 ;; Data sizes:     COMRAM   BANK0   BANK1   BANK2   BANK3   BANK4   BANK5   BANK6   BANK7   BANK8   BANK9  BANK10  BANK1
      +1  BANK12  BANK13  BANK14  BANK15  BANK16  BANK17  BANK18  BANK19  BANK20  BANK21  BANK22  BANK23  BANK24  BANK25  BANK2
      +6  BANK27  BANK28  BANK29  BANK30  BANK31
  4722 ;;      Params:         4       0       0       0       0       0       0       0       0       0       0       0       
      +0       0       0       0       0       0       0       0       0       0       0       0       0       0       0       
      +0       0       0       0       0       0
  4723 ;;      Locals:         0      10       0       0       0       0       0       0       0       0       0       0       
      +0       0       0       0       0       0       0       0       0       0       0       0       0       0       0       
      +0       0       0       0       0       0
  4724 ;;      Temps:          6       0       0       0       0       0       0       0       0       0       0       0       
      +0       0       0       0       0       0       0       0       0       0       0       0       0       0       0       
      +0       0       0       0       0       0
  4725 ;;      Totals:        10      10       0       0       0       0       0       0       0       0       0       0       
      +0       0       0       0       0       0       0       0       0       0       0       0       0       0       0       
      +0       0       0       0       0       0
  4726 ;;Total ram usage:       20 bytes
  4727 ;; Hardware stack levels used:    1
  4728 ;; Hardware stack levels required when called:    2
  4729 ;; This function calls:
  4730 ;;		Nothing
  4731 ;; This function is called by:
  4732 ;;		_efgtoa
  4733 ;; This function uses a non-reentrant model
  4734 ;;
  4735                           
  4736                           	psect	text16
  4737  003B68                     __ptext16:
  4738                           	opt callstack 0
  4739  003B68                     _floorf:
  4740                           	opt callstack 23
  4741                           
  4742                           ;incstack = 0
  4743  003B68  0060  F39C  F066   	movff	floorf@F524,floorf@u
  4744  003B6E  0060  F3A0  F067   	movff	floorf@F524+1,floorf@u+1
  4745  003B74  0060  F3A4  F068   	movff	floorf@F524+2,floorf@u+2
  4746  003B7A  0060  F3A8  F069   	movff	floorf@F524+3,floorf@u+3
  4747  003B80  0060  F0B4  F066   	movff	floorf@x,floorf@u
  4748  003B86  0060  F0B8  F067   	movff	floorf@x+1,floorf@u+1
  4749  003B8C  0060  F0BC  F068   	movff	floorf@x+2,floorf@u+2
  4750  003B92  0060  F0C0  F069   	movff	floorf@x+3,floorf@u+3
  4751  003B98  0E81               	movlw	129
  4752  003B9A  6E31               	movwf	??_floorf& (0+255),c
  4753  003B9C  0EFF               	movlw	255
  4754  003B9E  6E32               	movwf	(??_floorf+1)& (0+255),c
  4755  003BA0  0060  F198  F033   	movff	floorf@u,??_floorf+2
  4756  003BA6  0060  F19C  F034   	movff	floorf@u+1,??_floorf+3
  4757  003BAC  0060  F1A0  F035   	movff	floorf@u+2,??_floorf+4
  4758  003BB2  0060  F1A4  F036   	movff	floorf@u+3,??_floorf+5
  4759  003BB8  0E18               	movlw	24
  4760  003BBA  D005               	goto	u6640
  4761  003BBC                     u6645:
  4762  003BBC  90D8               	bcf	status,0,c
  4763  003BBE  3236               	rrcf	??_floorf+5,f,c
  4764  003BC0  3235               	rrcf	??_floorf+4,f,c
  4765  003BC2  3234               	rrcf	??_floorf+3,f,c
  4766  003BC4  3233               	rrcf	??_floorf+2,f,c
  4767  003BC6                     u6640:
  4768  003BC6  2EE8               	decfsz	wreg,f,c
  4769  003BC8  D7F9               	goto	u6645
  4770  003BCA  5033               	movf	??_floorf+2,w,c
  4771  003BCC  2431               	addwf	??_floorf,w,c
  4772  003BCE  0100               	movlb	0	; () banked
  4773  003BD0  6F64               	movwf	floorf@e& (0+255),b
  4774  003BD2  0E00               	movlw	0
  4775  003BD4  2032               	addwfc	??_floorf+1,w,c
  4776  003BD6  6F65               	movwf	(floorf@e+1)& (0+255),b
  4777  003BD8  BF65               	btfsc	(floorf@e+1)& (0+255),7,b
  4778  003BDA  D013               	goto	l5281
  4779  003BDC  5165               	movf	(floorf@e+1)& (0+255),w,b
  4780  003BDE  E104               	bnz	u6650
  4781  003BE0  0E17               	movlw	23
  4782  003BE2  5D64               	subwf	floorf@e& (0+255),w,b
  4783  003BE4  A0D8               	btfss	status,0,c
  4784  003BE6  D00D               	goto	l5281
  4785  003BE8                     u6650:
  4786                           
  4787                           ; BSR set to: 0
  4788  003BE8  0060  F0B4  F02D   	movff	floorf@x,?_floorf
  4789  003BEE  0060  F0B8  F02E   	movff	floorf@x+1,?_floorf+1
  4790  003BF4  0060  F0BC  F02F   	movff	floorf@x+2,?_floorf+2
  4791  003BFA  0060  F0C0  F030   	movff	floorf@x+3,?_floorf+3
  4792  003C00  0012               	return	
  4793  003C02                     l5281:
  4794                           
  4795                           ; BSR set to: 0
  4796  003C02  BF65               	btfsc	(floorf@e+1)& (0+255),7,b
  4797  003C04  D068               	goto	l5291
  4798                           
  4799                           ; BSR set to: 0
  4800  003C06  0060  F190  F031   	movff	floorf@e,??_floorf
  4801  003C0C  0EFF               	movlw	255
  4802  003C0E  6E32               	movwf	(??_floorf+1)& (0+255),c
  4803  003C10  0EFF               	movlw	255
  4804  003C12  6E33               	movwf	(??_floorf+2)& (0+255),c
  4805  003C14  0E7F               	movlw	127
  4806  003C16  6E34               	movwf	(??_floorf+3)& (0+255),c
  4807  003C18  0E00               	movlw	0
  4808  003C1A  6E35               	movwf	(??_floorf+4)& (0+255),c
  4809  003C1C                     u6675:
  4810  003C1C  6631               	tstfsz	??_floorf,c
  4811  003C1E  D001               	goto	u6676
  4812  003C20  D007               	goto	u6677
  4813  003C22                     u6676:
  4814  003C22  3435               	rlcf	??_floorf+4,w,c
  4815  003C24  3235               	rrcf	??_floorf+4,f,c
  4816  003C26  3234               	rrcf	??_floorf+3,f,c
  4817  003C28  3233               	rrcf	??_floorf+2,f,c
  4818  003C2A  3232               	rrcf	??_floorf+1,f,c
  4819  003C2C  2E31               	decfsz	??_floorf,f,c
  4820  003C2E  D7F6               	goto	u6675
  4821  003C30                     u6677:
  4822  003C30  0060  F0C8  F060   	movff	??_floorf+1,floorf@m
  4823  003C36  0060  F0CC  F061   	movff	??_floorf+2,floorf@m+1
  4824  003C3C  0060  F0D0  F062   	movff	??_floorf+3,floorf@m+2
  4825  003C42  0060  F0D4  F063   	movff	??_floorf+4,floorf@m+3
  4826  003C48  0100               	movlb	0	; () banked
  4827  003C4A  5160               	movf	floorf@m& (0+255),w,b
  4828  003C4C  1566               	andwf	floorf@u& (0+255),w,b
  4829  003C4E  6E31               	movwf	??_floorf& (0+255),c
  4830  003C50  5161               	movf	(floorf@m+1)& (0+255),w,b
  4831  003C52  1567               	andwf	(floorf@u+1)& (0+255),w,b
  4832  003C54  6E32               	movwf	(??_floorf+1)& (0+255),c
  4833  003C56  5162               	movf	(floorf@m+2)& (0+255),w,b
  4834  003C58  1568               	andwf	(floorf@u+2)& (0+255),w,b
  4835  003C5A  6E33               	movwf	(??_floorf+2)& (0+255),c
  4836  003C5C  5163               	movf	(floorf@m+3)& (0+255),w,b
  4837  003C5E  1569               	andwf	(floorf@u+3)& (0+255),w,b
  4838  003C60  6E34               	movwf	(??_floorf+3)& (0+255),c
  4839  003C62  5031               	movf	??_floorf,w,c
  4840  003C64  1032               	iorwf	??_floorf+1,w,c
  4841  003C66  1033               	iorwf	??_floorf+2,w,c
  4842  003C68  1034               	iorwf	??_floorf+3,w,c
  4843  003C6A  B4D8               	btfsc	status,2,c
  4844  003C6C  D7BD               	goto	u6650
  4845                           
  4846                           ; BSR set to: 0
  4847  003C6E  0060  F198  F031   	movff	floorf@u,??_floorf
  4848  003C74  0060  F19C  F032   	movff	floorf@u+1,??_floorf+1
  4849  003C7A  0060  F1A0  F033   	movff	floorf@u+2,??_floorf+2
  4850  003C80  0060  F1A4  F034   	movff	floorf@u+3,??_floorf+3
  4851  003C86  0E20               	movlw	32
  4852  003C88  D005               	goto	u6690
  4853  003C8A                     u6695:
  4854  003C8A  90D8               	bcf	status,0,c
  4855  003C8C  3234               	rrcf	??_floorf+3,f,c
  4856  003C8E  3233               	rrcf	??_floorf+2,f,c
  4857  003C90  3232               	rrcf	??_floorf+1,f,c
  4858  003C92  3231               	rrcf	??_floorf,f,c
  4859  003C94                     u6690:
  4860  003C94  2EE8               	decfsz	wreg,f,c
  4861  003C96  D7F9               	goto	u6695
  4862  003C98  5031               	movf	??_floorf,w,c
  4863  003C9A  1032               	iorwf	??_floorf+1,w,c
  4864  003C9C  1033               	iorwf	??_floorf+2,w,c
  4865  003C9E  1034               	iorwf	??_floorf+3,w,c
  4866  003CA0  B4D8               	btfsc	status,2,c
  4867  003CA2  D008               	goto	l1309
  4868                           
  4869                           ; BSR set to: 0
  4870  003CA4  5160               	movf	floorf@m& (0+255),w,b
  4871  003CA6  2766               	addwf	floorf@u& (0+255),f,b
  4872  003CA8  5161               	movf	(floorf@m+1)& (0+255),w,b
  4873  003CAA  2367               	addwfc	(floorf@u+1)& (0+255),f,b
  4874  003CAC  5162               	movf	(floorf@m+2)& (0+255),w,b
  4875  003CAE  2368               	addwfc	(floorf@u+2)& (0+255),f,b
  4876  003CB0  5163               	movf	(floorf@m+3)& (0+255),w,b
  4877  003CB2  2369               	addwfc	(floorf@u+3)& (0+255),f,b
  4878  003CB4                     l1309:
  4879                           
  4880                           ; BSR set to: 0
  4881  003CB4  1D60               	comf	floorf@m& (0+255),w,b
  4882  003CB6  6E31               	movwf	??_floorf& (0+255),c
  4883  003CB8  1D61               	comf	(floorf@m+1)& (0+255),w,b
  4884  003CBA  6E32               	movwf	(??_floorf+1)& (0+255),c
  4885  003CBC  1D62               	comf	(floorf@m+2)& (0+255),w,b
  4886  003CBE  6E33               	movwf	(??_floorf+2)& (0+255),c
  4887  003CC0  1D63               	comf	(floorf@m+3)& (0+255),w,b
  4888  003CC2  6E34               	movwf	(??_floorf+3)& (0+255),c
  4889  003CC4  5031               	movf	??_floorf,w,c
  4890  003CC6  1766               	andwf	floorf@u& (0+255),f,b
  4891  003CC8  5032               	movf	??_floorf+1,w,c
  4892  003CCA  1767               	andwf	(floorf@u+1)& (0+255),f,b
  4893  003CCC  5033               	movf	??_floorf+2,w,c
  4894  003CCE  1768               	andwf	(floorf@u+2)& (0+255),f,b
  4895  003CD0  5034               	movf	??_floorf+3,w,c
  4896  003CD2  1769               	andwf	(floorf@u+3)& (0+255),f,b
  4897  003CD4  D03A               	goto	l5299
  4898  003CD6                     l5291:
  4899                           
  4900                           ; BSR set to: 0
  4901  003CD6  0060  F198  F031   	movff	floorf@u,??_floorf
  4902  003CDC  0060  F19C  F032   	movff	floorf@u+1,??_floorf+1
  4903  003CE2  0060  F1A0  F033   	movff	floorf@u+2,??_floorf+2
  4904  003CE8  0060  F1A4  F034   	movff	floorf@u+3,??_floorf+3
  4905  003CEE  0E20               	movlw	32
  4906  003CF0  D005               	goto	u6710
  4907  003CF2                     u6715:
  4908  003CF2  90D8               	bcf	status,0,c
  4909  003CF4  3234               	rrcf	??_floorf+3,f,c
  4910  003CF6  3233               	rrcf	??_floorf+2,f,c
  4911  003CF8  3232               	rrcf	??_floorf+1,f,c
  4912  003CFA  3231               	rrcf	??_floorf,f,c
  4913  003CFC                     u6710:
  4914  003CFC  2EE8               	decfsz	wreg,f,c
  4915  003CFE  D7F9               	goto	u6715
  4916  003D00  5031               	movf	??_floorf,w,c
  4917  003D02  1032               	iorwf	??_floorf+1,w,c
  4918  003D04  1033               	iorwf	??_floorf+2,w,c
  4919  003D06  1034               	iorwf	??_floorf+3,w,c
  4920  003D08  A4D8               	btfss	status,2,c
  4921  003D0A  D008               	goto	l5295
  4922                           
  4923                           ; BSR set to: 0
  4924  003D0C  0E00               	movlw	0
  4925  003D0E  6F66               	movwf	floorf@u& (0+255),b
  4926  003D10  0E00               	movlw	0
  4927  003D12  6F67               	movwf	(floorf@u+1)& (0+255),b
  4928  003D14  0E00               	movlw	0
  4929  003D16  6F68               	movwf	(floorf@u+2)& (0+255),b
  4930  003D18  0E00               	movlw	0
  4931  003D1A  D016               	goto	L6
  4932  003D1C                     l5295:
  4933                           
  4934                           ; BSR set to: 0
  4935  003D1C  90D8               	bcf	status,0,c
  4936  003D1E  3566               	rlcf	floorf@u& (0+255),w,b
  4937  003D20  6E31               	movwf	??_floorf& (0+255),c
  4938  003D22  3567               	rlcf	(floorf@u+1)& (0+255),w,b
  4939  003D24  6E32               	movwf	(??_floorf+1)& (0+255),c
  4940  003D26  3568               	rlcf	(floorf@u+2)& (0+255),w,b
  4941  003D28  6E33               	movwf	(??_floorf+2)& (0+255),c
  4942  003D2A  3569               	rlcf	(floorf@u+3)& (0+255),w,b
  4943  003D2C  6E34               	movwf	(??_floorf+3)& (0+255),c
  4944  003D2E  5031               	movf	??_floorf,w,c
  4945  003D30  1032               	iorwf	??_floorf+1,w,c
  4946  003D32  1033               	iorwf	??_floorf+2,w,c
  4947  003D34  1034               	iorwf	??_floorf+3,w,c
  4948  003D36  B4D8               	btfsc	status,2,c
  4949  003D38  D008               	goto	l5299
  4950                           
  4951                           ; BSR set to: 0
  4952  003D3A  0E00               	movlw	0
  4953  003D3C  6F66               	movwf	floorf@u& (0+255),b
  4954  003D3E  0E00               	movlw	0
  4955  003D40  6F67               	movwf	(floorf@u+1)& (0+255),b
  4956  003D42  0E80               	movlw	128
  4957  003D44  6F68               	movwf	(floorf@u+2)& (0+255),b
  4958  003D46  0EBF               	movlw	191
  4959  003D48                     L6:
  4960  003D48  6F69               	movwf	(floorf@u+3)& (0+255),b
  4961  003D4A                     l5299:
  4962                           
  4963                           ; BSR set to: 0
  4964  003D4A  0060  F198  F02D   	movff	floorf@u,?_floorf
  4965  003D50  0060  F19C  F02E   	movff	floorf@u+1,?_floorf+1
  4966  003D56  0060  F1A0  F02F   	movff	floorf@u+2,?_floorf+2
  4967  003D5C  0060  F1A4  F030   	movff	floorf@u+3,?_floorf+3
  4968                           
  4969                           ; BSR set to: 0
  4970  003D62  0012               	return		;funcret
  4971  003D64                     __end_of_floorf:
  4972                           	opt callstack 0
  4973                           
  4974 ;; *************** function ___fpclassifyf *****************
  4975 ;; Defined at:
  4976 ;;		line 4 in file "/opt/microchip/xc8/v2.05/pic/sources/c99/common/__fpclassifyf.c"
  4977 ;; Parameters:    Size  Location     Type
  4978 ;;  x               4   19[COMRAM] float 
  4979 ;; Auto vars:     Size  Location     Type
  4980 ;;  u               4   29[COMRAM] struct .
  4981 ;;  e               2   27[COMRAM] int 
  4982 ;; Return value:  Size  Location     Type
  4983 ;;                  2   19[COMRAM] int 
  4984 ;; Registers used:
  4985 ;;		wreg, status,2, status,0
  4986 ;; Tracked objects:
  4987 ;;		On entry : 0/0
  4988 ;;		On exit  : 0/0
  4989 ;;		Unchanged: 0/0
  4990 ;; Data sizes:     COMRAM   BANK0   BANK1   BANK2   BANK3   BANK4   BANK5   BANK6   BANK7   BANK8   BANK9  BANK10  BANK1
      +1  BANK12  BANK13  BANK14  BANK15  BANK16  BANK17  BANK18  BANK19  BANK20  BANK21  BANK22  BANK23  BANK24  BANK25  BANK2
      +6  BANK27  BANK28  BANK29  BANK30  BANK31
  4991 ;;      Params:         4       0       0       0       0       0       0       0       0       0       0       0       
      +0       0       0       0       0       0       0       0       0       0       0       0       0       0       0       
      +0       0       0       0       0       0
  4992 ;;      Locals:         6       0       0       0       0       0       0       0       0       0       0       0       
      +0       0       0       0       0       0       0       0       0       0       0       0       0       0       0       
      +0       0       0       0       0       0
  4993 ;;      Temps:          4       0       0       0       0       0       0       0       0       0       0       0       
      +0       0       0       0       0       0       0       0       0       0       0       0       0       0       0       
      +0       0       0       0       0       0
  4994 ;;      Totals:        14       0       0       0       0       0       0       0       0       0       0       0       
      +0       0       0       0       0       0       0       0       0       0       0       0       0       0       0       
      +0       0       0       0       0       0
  4995 ;;Total ram usage:       14 bytes
  4996 ;; Hardware stack levels used:    1
  4997 ;; Hardware stack levels required when called:    2
  4998 ;; This function calls:
  4999 ;;		Nothing
  5000 ;; This function is called by:
  5001 ;;		_efgtoa
  5002 ;; This function uses a non-reentrant model
  5003 ;;
  5004                           
  5005                           	psect	text17
  5006  0040A8                     __ptext17:
  5007                           	opt callstack 0
  5008  0040A8                     ___fpclassifyf:
  5009                           	opt callstack 23
  5010                           
  5011                           ; BSR set to: 0
  5012                           ;incstack = 0
  5013  0040A8  0060  F0F4  F01E   	movff	___fpclassifyf@F463,___fpclassifyf@u
  5014  0040AE  0060  F0F8  F01F   	movff	___fpclassifyf@F463+1,___fpclassifyf@u+1
  5015  0040B4  0060  F0FC  F020   	movff	___fpclassifyf@F463+2,___fpclassifyf@u+2
  5016  0040BA  0060  F100  F021   	movff	___fpclassifyf@F463+3,___fpclassifyf@u+3
  5017  0040C0  0060  F050  F01E   	movff	___fpclassifyf@x,___fpclassifyf@u
  5018  0040C6  0060  F054  F01F   	movff	___fpclassifyf@x+1,___fpclassifyf@u+1
  5019  0040CC  0060  F058  F020   	movff	___fpclassifyf@x+2,___fpclassifyf@u+2
  5020  0040D2  0060  F05C  F021   	movff	___fpclassifyf@x+3,___fpclassifyf@u+3
  5021  0040D8  0060  F078  F018   	movff	___fpclassifyf@u,??___fpclassifyf
  5022  0040DE  0060  F07C  F019   	movff	___fpclassifyf@u+1,??___fpclassifyf+1
  5023  0040E4  0060  F080  F01A   	movff	___fpclassifyf@u+2,??___fpclassifyf+2
  5024  0040EA  0060  F084  F01B   	movff	___fpclassifyf@u+3,??___fpclassifyf+3
  5025  0040F0  0E18               	movlw	24
  5026  0040F2  D005               	goto	u6520
  5027  0040F4                     u6525:
  5028  0040F4  90D8               	bcf	status,0,c
  5029  0040F6  321B               	rrcf	??___fpclassifyf+3,f,c
  5030  0040F8  321A               	rrcf	??___fpclassifyf+2,f,c
  5031  0040FA  3219               	rrcf	??___fpclassifyf+1,f,c
  5032  0040FC  3218               	rrcf	??___fpclassifyf,f,c
  5033  0040FE                     u6520:
  5034  0040FE  2EE8               	decfsz	wreg,f,c
  5035  004100  D7F9               	goto	u6525
  5036  004102  5018               	movf	??___fpclassifyf,w,c
  5037  004104  6E1C               	movwf	___fpclassifyf@e,c
  5038  004106  6A1D               	clrf	___fpclassifyf@e+1,c
  5039  004108  501C               	movf	___fpclassifyf@e,w,c
  5040  00410A  101D               	iorwf	___fpclassifyf@e+1,w,c
  5041  00410C  A4D8               	btfss	status,2,c
  5042  00410E  D019               	goto	l5251
  5043  004110  90D8               	bcf	status,0,c
  5044  004112  341E               	rlcf	___fpclassifyf@u,w,c
  5045  004114  6E18               	movwf	??___fpclassifyf& (0+255),c
  5046  004116  341F               	rlcf	___fpclassifyf@u+1,w,c
  5047  004118  6E19               	movwf	(??___fpclassifyf+1)& (0+255),c
  5048  00411A  3420               	rlcf	___fpclassifyf@u+2,w,c
  5049  00411C  6E1A               	movwf	(??___fpclassifyf+2)& (0+255),c
  5050  00411E  3421               	rlcf	___fpclassifyf@u+3,w,c
  5051  004120  6E1B               	movwf	(??___fpclassifyf+3)& (0+255),c
  5052  004122  5018               	movf	??___fpclassifyf,w,c
  5053  004124  1019               	iorwf	??___fpclassifyf+1,w,c
  5054  004126  101A               	iorwf	??___fpclassifyf+2,w,c
  5055  004128  101B               	iorwf	??___fpclassifyf+3,w,c
  5056  00412A  A4D8               	btfss	status,2,c
  5057  00412C  D005               	goto	l5247
  5058  00412E  0E00               	movlw	0
  5059  004130  6E15               	movwf	?___fpclassifyf+1,c
  5060  004132  0E02               	movlw	2
  5061  004134  6E14               	movwf	?___fpclassifyf,c
  5062  004136  0012               	return	
  5063  004138                     l5247:
  5064  004138  0E00               	movlw	0
  5065  00413A  6E15               	movwf	?___fpclassifyf+1,c
  5066  00413C  0E03               	movlw	3
  5067  00413E  6E14               	movwf	?___fpclassifyf,c
  5068  004140  0012               	return	
  5069  004142                     l5251:
  5070  004142  281C               	incf	___fpclassifyf@e,w,c
  5071  004144  101D               	iorwf	___fpclassifyf@e+1,w,c
  5072  004146  A4D8               	btfss	status,2,c
  5073  004148  D020               	goto	l5257
  5074  00414A  0060  F078  F018   	movff	___fpclassifyf@u,??___fpclassifyf
  5075  004150  0060  F07C  F019   	movff	___fpclassifyf@u+1,??___fpclassifyf+1
  5076  004156  0060  F080  F01A   	movff	___fpclassifyf@u+2,??___fpclassifyf+2
  5077  00415C  0060  F084  F01B   	movff	___fpclassifyf@u+3,??___fpclassifyf+3
  5078  004162  0E09               	movlw	9
  5079  004164                     u6565:
  5080  004164  90D8               	bcf	status,0,c
  5081  004166  3618               	rlcf	??___fpclassifyf,f,c
  5082  004168  3619               	rlcf	??___fpclassifyf+1,f,c
  5083  00416A  361A               	rlcf	??___fpclassifyf+2,f,c
  5084  00416C  361B               	rlcf	??___fpclassifyf+3,f,c
  5085  00416E  2EE8               	decfsz	wreg,f,c
  5086  004170  D7F9               	goto	u6565
  5087  004172  5018               	movf	??___fpclassifyf,w,c
  5088  004174  1019               	iorwf	??___fpclassifyf+1,w,c
  5089  004176  101A               	iorwf	??___fpclassifyf+2,w,c
  5090  004178  101B               	iorwf	??___fpclassifyf+3,w,c
  5091  00417A  A4D8               	btfss	status,2,c
  5092  00417C  D002               	goto	u6570
  5093  00417E  0E01               	movlw	1
  5094  004180  D001               	goto	u6580
  5095  004182                     u6570:
  5096  004182  0E00               	movlw	0
  5097  004184                     u6580:
  5098  004184  6E14               	movwf	?___fpclassifyf,c
  5099  004186  6A15               	clrf	?___fpclassifyf+1,c
  5100  004188  0012               	return	
  5101  00418A                     l5257:
  5102  00418A  0E00               	movlw	0
  5103  00418C  6E15               	movwf	?___fpclassifyf+1,c
  5104  00418E  0E04               	movlw	4
  5105  004190  6E14               	movwf	?___fpclassifyf,c
  5106  004192  0012               	return		;funcret
  5107  004194                     __end_of___fpclassifyf:
  5108                           	opt callstack 0
  5109                           
  5110 ;; *************** function ___fltol *****************
  5111 ;; Defined at:
  5112 ;;		line 43 in file "/opt/microchip/xc8/v2.05/pic/sources/c99/common/fltol.c"
  5113 ;; Parameters:    Size  Location     Type
  5114 ;;  f1              4   19[COMRAM] int 
  5115 ;; Auto vars:     Size  Location     Type
  5116 ;;  exp1            1   28[COMRAM] unsigned char 
  5117 ;;  sign1           1   27[COMRAM] unsigned char 
  5118 ;; Return value:  Size  Location     Type
  5119 ;;                  4   19[COMRAM] long 
  5120 ;; Registers used:
  5121 ;;		wreg, status,2, status,0
  5122 ;; Tracked objects:
  5123 ;;		On entry : 0/0
  5124 ;;		On exit  : 0/0
  5125 ;;		Unchanged: 0/0
  5126 ;; Data sizes:     COMRAM   BANK0   BANK1   BANK2   BANK3   BANK4   BANK5   BANK6   BANK7   BANK8   BANK9  BANK10  BANK1
      +1  BANK12  BANK13  BANK14  BANK15  BANK16  BANK17  BANK18  BANK19  BANK20  BANK21  BANK22  BANK23  BANK24  BANK25  BANK2
      +6  BANK27  BANK28  BANK29  BANK30  BANK31
  5127 ;;      Params:         4       0       0       0       0       0       0       0       0       0       0       0       
      +0       0       0       0       0       0       0       0       0       0       0       0       0       0       0       
      +0       0       0       0       0       0
  5128 ;;      Locals:         2       0       0       0       0       0       0       0       0       0       0       0       
      +0       0       0       0       0       0       0       0       0       0       0       0       0       0       0       
      +0       0       0       0       0       0
  5129 ;;      Temps:          4       0       0       0       0       0       0       0       0       0       0       0       
      +0       0       0       0       0       0       0       0       0       0       0       0       0       0       0       
      +0       0       0       0       0       0
  5130 ;;      Totals:        10       0       0       0       0       0       0       0       0       0       0       0       
      +0       0       0       0       0       0       0       0       0       0       0       0       0       0       0       
      +0       0       0       0       0       0
  5131 ;;Total ram usage:       10 bytes
  5132 ;; Hardware stack levels used:    1
  5133 ;; Hardware stack levels required when called:    2
  5134 ;; This function calls:
  5135 ;;		Nothing
  5136 ;; This function is called by:
  5137 ;;		_efgtoa
  5138 ;; This function uses a non-reentrant model
  5139 ;;
  5140                           
  5141                           	psect	text18
  5142  004332                     __ptext18:
  5143                           	opt callstack 0
  5144  004332                     ___fltol:
  5145                           	opt callstack 23
  5146                           
  5147                           ;incstack = 0
  5148  004332  3416               	rlcf	___fltol@f1+2,w,c
  5149  004334  3417               	rlcf	___fltol@f1+3,w,c
  5150  004336  6E1D               	movwf	___fltol@exp1,c
  5151  004338  501D               	movf	___fltol@exp1,w,c
  5152  00433A  A4D8               	btfss	status,2,c
  5153  00433C  D009               	goto	l5709
  5154  00433E                     u7370:
  5155  00433E  0E00               	movlw	0
  5156  004340  6E14               	movwf	?___fltol,c
  5157  004342  0E00               	movlw	0
  5158  004344  6E15               	movwf	?___fltol+1,c
  5159  004346  0E00               	movlw	0
  5160  004348  6E16               	movwf	?___fltol+2,c
  5161  00434A  0E00               	movlw	0
  5162  00434C  6E17               	movwf	?___fltol+3,c
  5163  00434E  0012               	return	
  5164  004350                     l5709:
  5165  004350  0060  F050  F018   	movff	___fltol@f1,??___fltol
  5166  004356  0060  F054  F019   	movff	___fltol@f1+1,??___fltol+1
  5167  00435C  0060  F058  F01A   	movff	___fltol@f1+2,??___fltol+2
  5168  004362  0060  F05C  F01B   	movff	___fltol@f1+3,??___fltol+3
  5169  004368  0E20               	movlw	32
  5170  00436A  D005               	goto	u7380
  5171  00436C                     u7385:
  5172  00436C  90D8               	bcf	status,0,c
  5173  00436E  321B               	rrcf	??___fltol+3,f,c
  5174  004370  321A               	rrcf	??___fltol+2,f,c
  5175  004372  3219               	rrcf	??___fltol+1,f,c
  5176  004374  3218               	rrcf	??___fltol,f,c
  5177  004376                     u7380:
  5178  004376  2EE8               	decfsz	wreg,f,c
  5179  004378  D7F9               	goto	u7385
  5180  00437A  5018               	movf	??___fltol,w,c
  5181  00437C  6E1C               	movwf	___fltol@sign1,c
  5182  00437E  8E16               	bsf	___fltol@f1+2,7,c
  5183  004380  0EFF               	movlw	255
  5184  004382  1614               	andwf	___fltol@f1,f,c
  5185  004384  0EFF               	movlw	255
  5186  004386  1615               	andwf	___fltol@f1+1,f,c
  5187  004388  0EFF               	movlw	255
  5188  00438A  1616               	andwf	___fltol@f1+2,f,c
  5189  00438C  0E00               	movlw	0
  5190  00438E  1617               	andwf	___fltol@f1+3,f,c
  5191  004390  0E96               	movlw	150
  5192  004392  5E1D               	subwf	___fltol@exp1,f,c
  5193  004394  AE1D               	btfss	___fltol@exp1,7,c
  5194  004396  D00D               	goto	l5729
  5195  004398  501D               	movf	___fltol@exp1,w,c
  5196  00439A  0A80               	xorlw	128
  5197  00439C  0F97               	addlw	151
  5198  00439E  A0D8               	btfss	status,0,c
  5199  0043A0  D7CE               	goto	u7370
  5200  0043A2                     l5725:
  5201  0043A2  90D8               	bcf	status,0,c
  5202  0043A4  3217               	rrcf	___fltol@f1+3,f,c
  5203  0043A6  3216               	rrcf	___fltol@f1+2,f,c
  5204  0043A8  3215               	rrcf	___fltol@f1+1,f,c
  5205  0043AA  3214               	rrcf	___fltol@f1,f,c
  5206  0043AC  3E1D               	incfsz	___fltol@exp1,f,c
  5207  0043AE  D7F9               	goto	l5725
  5208  0043B0  D00D               	goto	u7420
  5209  0043B2                     l5729:
  5210  0043B2  0E1F               	movlw	31
  5211  0043B4  641D               	cpfsgt	___fltol@exp1,c
  5212  0043B6  D007               	goto	l5737
  5213  0043B8  D7C2               	goto	u7370
  5214  0043BA                     l5735:
  5215  0043BA  90D8               	bcf	status,0,c
  5216  0043BC  3614               	rlcf	___fltol@f1,f,c
  5217  0043BE  3615               	rlcf	___fltol@f1+1,f,c
  5218  0043C0  3616               	rlcf	___fltol@f1+2,f,c
  5219  0043C2  3617               	rlcf	___fltol@f1+3,f,c
  5220  0043C4  061D               	decf	___fltol@exp1,f,c
  5221  0043C6                     l5737:
  5222  0043C6  501D               	movf	___fltol@exp1,w,c
  5223  0043C8  A4D8               	btfss	status,2,c
  5224  0043CA  D7F7               	goto	l5735
  5225  0043CC                     u7420:
  5226  0043CC  501C               	movf	___fltol@sign1,w,c
  5227  0043CE  B4D8               	btfsc	status,2,c
  5228  0043D0  D008               	goto	l5743
  5229  0043D2  1E17               	comf	___fltol@f1+3,f,c
  5230  0043D4  1E16               	comf	___fltol@f1+2,f,c
  5231  0043D6  1E15               	comf	___fltol@f1+1,f,c
  5232  0043D8  6C14               	negf	___fltol@f1,c
  5233  0043DA  0E00               	movlw	0
  5234  0043DC  2215               	addwfc	___fltol@f1+1,f,c
  5235  0043DE  2216               	addwfc	___fltol@f1+2,f,c
  5236  0043E0  2217               	addwfc	___fltol@f1+3,f,c
  5237  0043E2                     l5743:
  5238  0043E2  0060  F050  F014   	movff	___fltol@f1,?___fltol
  5239  0043E8  0060  F054  F015   	movff	___fltol@f1+1,?___fltol+1
  5240  0043EE  0060  F058  F016   	movff	___fltol@f1+2,?___fltol+2
  5241  0043F4  0060  F05C  F017   	movff	___fltol@f1+3,?___fltol+3
  5242  0043FA  0012               	return		;funcret
  5243  0043FC                     __end_of___fltol:
  5244                           	opt callstack 0
  5245                           
  5246 ;; *************** function ___flsub *****************
  5247 ;; Defined at:
  5248 ;;		line 245 in file "/opt/microchip/xc8/v2.05/pic/sources/c99/common/sprcadd.c"
  5249 ;; Parameters:    Size  Location     Type
  5250 ;;  b               4   44[COMRAM] long 
  5251 ;;  a               4   48[COMRAM] long 
  5252 ;; Auto vars:     Size  Location     Type
  5253 ;;		None
  5254 ;; Return value:  Size  Location     Type
  5255 ;;                  4   44[COMRAM] long 
  5256 ;; Registers used:
  5257 ;;		wreg, status,2, status,0, cstack
  5258 ;; Tracked objects:
  5259 ;;		On entry : 0/0
  5260 ;;		On exit  : 0/0
  5261 ;;		Unchanged: 0/0
  5262 ;; Data sizes:     COMRAM   BANK0   BANK1   BANK2   BANK3   BANK4   BANK5   BANK6   BANK7   BANK8   BANK9  BANK10  BANK1
      +1  BANK12  BANK13  BANK14  BANK15  BANK16  BANK17  BANK18  BANK19  BANK20  BANK21  BANK22  BANK23  BANK24  BANK25  BANK2
      +6  BANK27  BANK28  BANK29  BANK30  BANK31
  5263 ;;      Params:         8       0       0       0       0       0       0       0       0       0       0       0       
      +0       0       0       0       0       0       0       0       0       0       0       0       0       0       0       
      +0       0       0       0       0       0
  5264 ;;      Locals:         0       0       0       0       0       0       0       0       0       0       0       0       
      +0       0       0       0       0       0       0       0       0       0       0       0       0       0       0       
      +0       0       0       0       0       0
  5265 ;;      Temps:          0       0       0       0       0       0       0       0       0       0       0       0       
      +0       0       0       0       0       0       0       0       0       0       0       0       0       0       0       
      +0       0       0       0       0       0
  5266 ;;      Totals:         8       0       0       0       0       0       0       0       0       0       0       0       
      +0       0       0       0       0       0       0       0       0       0       0       0       0       0       0       
      +0       0       0       0       0       0
  5267 ;;Total ram usage:        8 bytes
  5268 ;; Hardware stack levels used:    1
  5269 ;; Hardware stack levels required when called:    3
  5270 ;; This function calls:
  5271 ;;		___fladd
  5272 ;; This function is called by:
  5273 ;;		_efgtoa
  5274 ;; This function uses a non-reentrant model
  5275 ;;
  5276                           
  5277                           	psect	text19
  5278  004BEE                     __ptext19:
  5279                           	opt callstack 0
  5280  004BEE                     ___flsub:
  5281                           	opt callstack 22
  5282                           
  5283                           ;incstack = 0
  5284  004BEE  0E00               	movlw	0
  5285  004BF0  1A31               	xorwf	___flsub@a,f,c
  5286  004BF2  0E00               	movlw	0
  5287  004BF4  1A32               	xorwf	___flsub@a+1,f,c
  5288  004BF6  0E00               	movlw	0
  5289  004BF8  1A33               	xorwf	___flsub@a+2,f,c
  5290  004BFA  0E80               	movlw	128
  5291  004BFC  1A34               	xorwf	___flsub@a+3,f,c
  5292  004BFE  0060  F0B4  F014   	movff	___flsub@b,___fladd@b
  5293  004C04  0060  F0B8  F015   	movff	___flsub@b+1,___fladd@b+1
  5294  004C0A  0060  F0BC  F016   	movff	___flsub@b+2,___fladd@b+2
  5295  004C10  0060  F0C0  F017   	movff	___flsub@b+3,___fladd@b+3
  5296  004C16  0060  F0C4  F018   	movff	___flsub@a,___fladd@a
  5297  004C1C  0060  F0C8  F019   	movff	___flsub@a+1,___fladd@a+1
  5298  004C22  0060  F0CC  F01A   	movff	___flsub@a+2,___fladd@a+2
  5299  004C28  0060  F0D0  F01B   	movff	___flsub@a+3,___fladd@a+3
  5300  004C2E  ECA4  F019         	call	___fladd	;wreg free
  5301  004C32  0060  F050  F02D   	movff	?___fladd,?___flsub
  5302  004C38  0060  F054  F02E   	movff	?___fladd+1,?___flsub+1
  5303  004C3E  0060  F058  F02F   	movff	?___fladd+2,?___flsub+2
  5304  004C44  0060  F05C  F030   	movff	?___fladd+3,?___flsub+3
  5305  004C4A  0012               	return		;funcret
  5306  004C4C                     __end_of___flsub:
  5307                           	opt callstack 0
  5308                           
  5309 ;; *************** function ___fladd *****************
  5310 ;; Defined at:
  5311 ;;		line 10 in file "/opt/microchip/xc8/v2.05/pic/sources/c99/common/sprcadd.c"
  5312 ;; Parameters:    Size  Location     Type
  5313 ;;  b               4   19[COMRAM] long 
  5314 ;;  a               4   23[COMRAM] long 
  5315 ;; Auto vars:     Size  Location     Type
  5316 ;;  grs             1   34[COMRAM] unsigned char 
  5317 ;;  bexp            1   33[COMRAM] unsigned char 
  5318 ;;  aexp            1   32[COMRAM] unsigned char 
  5319 ;;  signs           1   31[COMRAM] unsigned char 
  5320 ;; Return value:  Size  Location     Type
  5321 ;;                  4   19[COMRAM] unsigned char 
  5322 ;; Registers used:
  5323 ;;		wreg, status,2, status,0
  5324 ;; Tracked objects:
  5325 ;;		On entry : 0/0
  5326 ;;		On exit  : 0/0
  5327 ;;		Unchanged: 0/0
  5328 ;; Data sizes:     COMRAM   BANK0   BANK1   BANK2   BANK3   BANK4   BANK5   BANK6   BANK7   BANK8   BANK9  BANK10  BANK1
      +1  BANK12  BANK13  BANK14  BANK15  BANK16  BANK17  BANK18  BANK19  BANK20  BANK21  BANK22  BANK23  BANK24  BANK25  BANK2
      +6  BANK27  BANK28  BANK29  BANK30  BANK31
  5329 ;;      Params:         8       0       0       0       0       0       0       0       0       0       0       0       
      +0       0       0       0       0       0       0       0       0       0       0       0       0       0       0       
      +0       0       0       0       0       0
  5330 ;;      Locals:         4       0       0       0       0       0       0       0       0       0       0       0       
      +0       0       0       0       0       0       0       0       0       0       0       0       0       0       0       
      +0       0       0       0       0       0
  5331 ;;      Temps:          4       0       0       0       0       0       0       0       0       0       0       0       
      +0       0       0       0       0       0       0       0       0       0       0       0       0       0       0       
      +0       0       0       0       0       0
  5332 ;;      Totals:        16       0       0       0       0       0       0       0       0       0       0       0       
      +0       0       0       0       0       0       0       0       0       0       0       0       0       0       0       
      +0       0       0       0       0       0
  5333 ;;Total ram usage:       16 bytes
  5334 ;; Hardware stack levels used:    1
  5335 ;; Hardware stack levels required when called:    2
  5336 ;; This function calls:
  5337 ;;		Nothing
  5338 ;; This function is called by:
  5339 ;;		_efgtoa
  5340 ;;		___flsub
  5341 ;; This function uses a non-reentrant model
  5342 ;;
  5343                           
  5344                           	psect	text20
  5345  003348                     __ptext20:
  5346                           	opt callstack 0
  5347  003348                     ___fladd:
  5348                           	opt callstack 22
  5349                           
  5350                           ;incstack = 0
  5351  003348  5017               	movf	___fladd@b+3,w,c
  5352  00334A  0B80               	andlw	128
  5353  00334C  6E20               	movwf	___fladd@signs,c
  5354  00334E  5017               	movf	___fladd@b+3,w,c
  5355  003350  2417               	addwf	___fladd@b+3,w,c
  5356  003352  6E22               	movwf	___fladd@bexp,c
  5357  003354  BE16               	btfsc	___fladd@b+2,7,c
  5358  003356  8022               	bsf	___fladd@bexp,0,c
  5359  003358  5022               	movf	___fladd@bexp,w,c
  5360  00335A  B4D8               	btfsc	status,2,c
  5361  00335C  D00D               	goto	l5031
  5362  00335E  2822               	incf	___fladd@bexp,w,c
  5363  003360  A4D8               	btfss	status,2,c
  5364  003362  D008               	goto	l5027
  5365  003364  0E00               	movlw	0
  5366  003366  6E14               	movwf	___fladd@b,c
  5367  003368  0E00               	movlw	0
  5368  00336A  6E15               	movwf	___fladd@b+1,c
  5369  00336C  0E00               	movlw	0
  5370  00336E  6E16               	movwf	___fladd@b+2,c
  5371  003370  0E00               	movlw	0
  5372  003372  6E17               	movwf	___fladd@b+3,c
  5373  003374                     l5027:
  5374  003374  8E16               	bsf	___fladd@b+2,7,c
  5375  003376  D006               	goto	L7
  5376  003378                     l5031:
  5377  003378  0E00               	movlw	0
  5378  00337A  6E14               	movwf	___fladd@b,c
  5379  00337C  0E00               	movlw	0
  5380  00337E  6E15               	movwf	___fladd@b+1,c
  5381  003380  0E00               	movlw	0
  5382  003382  6E16               	movwf	___fladd@b+2,c
  5383  003384                     L7:
  5384  003384  0E00               	movlw	0
  5385  003386  6E17               	movwf	___fladd@b+3,c
  5386  003388  501B               	movf	___fladd@a+3,w,c
  5387  00338A  0B80               	andlw	128
  5388  00338C  6E21               	movwf	___fladd@aexp,c
  5389  00338E  5020               	movf	___fladd@signs,w,c
  5390  003390  1821               	xorwf	___fladd@aexp,w,c
  5391  003392  A4D8               	btfss	status,2,c
  5392  003394  8C20               	bsf	___fladd@signs,6,c
  5393  003396  501B               	movf	___fladd@a+3,w,c
  5394  003398  241B               	addwf	___fladd@a+3,w,c
  5395  00339A  6E21               	movwf	___fladd@aexp,c
  5396  00339C  BE1A               	btfsc	___fladd@a+2,7,c
  5397  00339E  8021               	bsf	___fladd@aexp,0,c
  5398  0033A0  5021               	movf	___fladd@aexp,w,c
  5399  0033A2  B4D8               	btfsc	status,2,c
  5400  0033A4  D00D               	goto	l5055
  5401  0033A6  2821               	incf	___fladd@aexp,w,c
  5402  0033A8  A4D8               	btfss	status,2,c
  5403  0033AA  D008               	goto	l5051
  5404  0033AC  0E00               	movlw	0
  5405  0033AE  6E18               	movwf	___fladd@a,c
  5406  0033B0  0E00               	movlw	0
  5407  0033B2  6E19               	movwf	___fladd@a+1,c
  5408  0033B4  0E00               	movlw	0
  5409  0033B6  6E1A               	movwf	___fladd@a+2,c
  5410  0033B8  0E00               	movlw	0
  5411  0033BA  6E1B               	movwf	___fladd@a+3,c
  5412  0033BC                     l5051:
  5413  0033BC  8E1A               	bsf	___fladd@a+2,7,c
  5414  0033BE  D006               	goto	L8
  5415  0033C0                     l5055:
  5416  0033C0  0E00               	movlw	0
  5417  0033C2  6E18               	movwf	___fladd@a,c
  5418  0033C4  0E00               	movlw	0
  5419  0033C6  6E19               	movwf	___fladd@a+1,c
  5420  0033C8  0E00               	movlw	0
  5421  0033CA  6E1A               	movwf	___fladd@a+2,c
  5422  0033CC                     L8:
  5423  0033CC  0E00               	movlw	0
  5424  0033CE  6E1B               	movwf	___fladd@a+3,c
  5425  0033D0  5022               	movf	___fladd@bexp,w,c
  5426  0033D2  5C21               	subwf	___fladd@aexp,w,c
  5427  0033D4  B0D8               	btfsc	status,0,c
  5428  0033D6  D031               	goto	l5093
  5429  0033D8  AC20               	btfss	___fladd@signs,6,c
  5430  0033DA  D002               	goto	l5063
  5431  0033DC  0E80               	movlw	128
  5432  0033DE  1A20               	xorwf	___fladd@signs,f,c
  5433  0033E0                     l5063:
  5434  0033E0  0060  F088  F023   	movff	___fladd@bexp,___fladd@grs
  5435  0033E6  0060  F084  F022   	movff	___fladd@aexp,___fladd@bexp
  5436  0033EC  0060  F08C  F021   	movff	___fladd@grs,___fladd@aexp
  5437  0033F2  0060  F050  F023   	movff	___fladd@b,___fladd@grs
  5438  0033F8  0060  F060  F014   	movff	___fladd@a,___fladd@b
  5439  0033FE  0060  F08C  F018   	movff	___fladd@grs,___fladd@a
  5440  003404  0060  F054  F023   	movff	___fladd@b+1,___fladd@grs
  5441  00340A  0060  F064  F015   	movff	___fladd@a+1,___fladd@b+1
  5442  003410  0060  F08C  F019   	movff	___fladd@grs,___fladd@a+1
  5443  003416  0060  F058  F023   	movff	___fladd@b+2,___fladd@grs
  5444  00341C  0060  F068  F016   	movff	___fladd@a+2,___fladd@b+2
  5445  003422  0060  F08C  F01A   	movff	___fladd@grs,___fladd@a+2
  5446  003428  0060  F05C  F023   	movff	___fladd@b+3,___fladd@grs
  5447  00342E  0060  F06C  F017   	movff	___fladd@a+3,___fladd@b+3
  5448  003434  0060  F08C  F01B   	movff	___fladd@grs,___fladd@a+3
  5449  00343A                     l5093:
  5450  00343A  0E00               	movlw	0
  5451  00343C  6E23               	movwf	___fladd@grs,c
  5452  00343E  5022               	movf	___fladd@bexp,w,c
  5453  003440  0060  F084  F01C   	movff	___fladd@aexp,??___fladd
  5454  003446  6A1D               	clrf	(??___fladd+1)& (0+255),c
  5455  003448  5E1C               	subwf	??___fladd,f,c
  5456  00344A  0E00               	movlw	0
  5457  00344C  5A1D               	subwfb	??___fladd+1,f,c
  5458  00344E  BE1D               	btfsc	??___fladd+1,7,c
  5459  003450  D02D               	goto	l1147
  5460  003452  501D               	movf	??___fladd+1,w,c
  5461  003454  E104               	bnz	u6180
  5462  003456  0E1A               	movlw	26
  5463  003458  5C1C               	subwf	??___fladd,w,c
  5464  00345A  A0D8               	btfss	status,0,c
  5465  00345C  D027               	goto	l1147
  5466  00345E                     u6180:
  5467  00345E  5014               	movf	___fladd@b,w,c
  5468  003460  1015               	iorwf	___fladd@b+1,w,c
  5469  003462  1016               	iorwf	___fladd@b+2,w,c
  5470  003464  1017               	iorwf	___fladd@b+3,w,c
  5471  003466  B4D8               	btfsc	status,2,c
  5472  003468  D002               	goto	u6190
  5473  00346A  0E01               	movlw	1
  5474  00346C  D001               	goto	u6200
  5475  00346E                     u6190:
  5476  00346E  0E00               	movlw	0
  5477  003470                     u6200:
  5478  003470  6E23               	movwf	___fladd@grs,c
  5479  003472  0E00               	movlw	0
  5480  003474  6E14               	movwf	___fladd@b,c
  5481  003476  0E00               	movlw	0
  5482  003478  6E15               	movwf	___fladd@b+1,c
  5483  00347A  0E00               	movlw	0
  5484  00347C  6E16               	movwf	___fladd@b+2,c
  5485  00347E  0E00               	movlw	0
  5486  003480  6E17               	movwf	___fladd@b+3,c
  5487  003482  0060  F084  F022   	movff	___fladd@aexp,___fladd@bexp
  5488  003488  D015               	goto	u6230
  5489  00348A                     l1148:
  5490  00348A  A023               	btfss	___fladd@grs,0,c
  5491  00348C  D005               	goto	l5105
  5492  00348E  90D8               	bcf	status,0,c
  5493  003490  3023               	rrcf	___fladd@grs,w,c
  5494  003492  0901               	iorlw	1
  5495  003494  6E23               	movwf	___fladd@grs,c
  5496  003496  D002               	goto	l5107
  5497  003498                     l5105:
  5498  003498  90D8               	bcf	status,0,c
  5499  00349A  3223               	rrcf	___fladd@grs,f,c
  5500  00349C                     l5107:
  5501  00349C  B014               	btfsc	___fladd@b,0,c
  5502  00349E  8E23               	bsf	___fladd@grs,7,c
  5503  0034A0  3417               	rlcf	___fladd@b+3,w,c
  5504  0034A2  3217               	rrcf	___fladd@b+3,f,c
  5505  0034A4  3216               	rrcf	___fladd@b+2,f,c
  5506  0034A6  3215               	rrcf	___fladd@b+1,f,c
  5507  0034A8  3214               	rrcf	___fladd@b,f,c
  5508  0034AA  2A22               	incf	___fladd@bexp,f,c
  5509  0034AC                     l1147:
  5510  0034AC  5021               	movf	___fladd@aexp,w,c
  5511  0034AE  5C22               	subwf	___fladd@bexp,w,c
  5512  0034B0  A0D8               	btfss	status,0,c
  5513  0034B2  D7EB               	goto	l1148
  5514  0034B4                     u6230:
  5515  0034B4  BC20               	btfsc	___fladd@signs,6,c
  5516  0034B6  D028               	goto	l5139
  5517  0034B8  5022               	movf	___fladd@bexp,w,c
  5518  0034BA  A4D8               	btfss	status,2,c
  5519  0034BC  D009               	goto	l5121
  5520  0034BE  0E00               	movlw	0
  5521  0034C0  6E14               	movwf	?___fladd,c
  5522  0034C2  0E00               	movlw	0
  5523  0034C4  6E15               	movwf	?___fladd+1,c
  5524  0034C6  0E00               	movlw	0
  5525  0034C8  6E16               	movwf	?___fladd+2,c
  5526  0034CA  0E00               	movlw	0
  5527  0034CC  6E17               	movwf	?___fladd+3,c
  5528  0034CE  0012               	return	
  5529  0034D0                     l5121:
  5530  0034D0  5018               	movf	___fladd@a,w,c
  5531  0034D2  2614               	addwf	___fladd@b,f,c
  5532  0034D4  5019               	movf	___fladd@a+1,w,c
  5533  0034D6  2215               	addwfc	___fladd@b+1,f,c
  5534  0034D8  501A               	movf	___fladd@a+2,w,c
  5535  0034DA  2216               	addwfc	___fladd@b+2,f,c
  5536  0034DC  501B               	movf	___fladd@a+3,w,c
  5537  0034DE  2217               	addwfc	___fladd@b+3,f,c
  5538  0034E0  A017               	btfss	___fladd@b+3,0,c
  5539  0034E2  D071               	goto	u6360
  5540  0034E4  A023               	btfss	___fladd@grs,0,c
  5541  0034E6  D005               	goto	l5129
  5542  0034E8  90D8               	bcf	status,0,c
  5543  0034EA  3023               	rrcf	___fladd@grs,w,c
  5544  0034EC  0901               	iorlw	1
  5545  0034EE  6E23               	movwf	___fladd@grs,c
  5546  0034F0  D002               	goto	l5131
  5547  0034F2                     l5129:
  5548  0034F2  90D8               	bcf	status,0,c
  5549  0034F4  3223               	rrcf	___fladd@grs,f,c
  5550  0034F6                     l5131:
  5551  0034F6  B014               	btfsc	___fladd@b,0,c
  5552  0034F8  8E23               	bsf	___fladd@grs,7,c
  5553  0034FA  3417               	rlcf	___fladd@b+3,w,c
  5554  0034FC  3217               	rrcf	___fladd@b+3,f,c
  5555  0034FE  3216               	rrcf	___fladd@b+2,f,c
  5556  003500  3215               	rrcf	___fladd@b+1,f,c
  5557  003502  3214               	rrcf	___fladd@b,f,c
  5558  003504  2A22               	incf	___fladd@bexp,f,c
  5559  003506  D05F               	goto	u6360
  5560  003508                     l5139:
  5561  003508  5018               	movf	___fladd@a,w,c
  5562  00350A  5C14               	subwf	___fladd@b,w,c
  5563  00350C  5019               	movf	___fladd@a+1,w,c
  5564  00350E  5815               	subwfb	___fladd@b+1,w,c
  5565  003510  501A               	movf	___fladd@a+2,w,c
  5566  003512  5816               	subwfb	___fladd@b+2,w,c
  5567  003514  5017               	movf	___fladd@b+3,w,c
  5568  003516  0A80               	xorlw	128
  5569  003518  6E1C               	movwf	??___fladd& (0+255),c
  5570  00351A  501B               	movf	___fladd@a+3,w,c
  5571  00351C  0A80               	xorlw	128
  5572  00351E  581C               	subwfb	??___fladd& (0+255),w,c
  5573  003520  B0D8               	btfsc	status,0,c
  5574  003522  D025               	goto	l5149
  5575  003524  5014               	movf	___fladd@b,w,c
  5576  003526  5C18               	subwf	___fladd@a,w,c
  5577  003528  6E1C               	movwf	??___fladd& (0+255),c
  5578  00352A  5015               	movf	___fladd@b+1,w,c
  5579  00352C  5819               	subwfb	___fladd@a+1,w,c
  5580  00352E  6E1D               	movwf	(??___fladd+1)& (0+255),c
  5581  003530  5016               	movf	___fladd@b+2,w,c
  5582  003532  581A               	subwfb	___fladd@a+2,w,c
  5583  003534  6E1E               	movwf	(??___fladd+2)& (0+255),c
  5584  003536  5017               	movf	___fladd@b+3,w,c
  5585  003538  581B               	subwfb	___fladd@a+3,w,c
  5586  00353A  6E1F               	movwf	(??___fladd+3)& (0+255),c
  5587  00353C  0EFF               	movlw	255
  5588  00353E  241C               	addwf	??___fladd,w,c
  5589  003540  6E14               	movwf	___fladd@b,c
  5590  003542  0EFF               	movlw	255
  5591  003544  201D               	addwfc	??___fladd+1,w,c
  5592  003546  6E15               	movwf	___fladd@b+1,c
  5593  003548  0EFF               	movlw	255
  5594  00354A  201E               	addwfc	??___fladd+2,w,c
  5595  00354C  6E16               	movwf	___fladd@b+2,c
  5596  00354E  0EFF               	movlw	255
  5597  003550  201F               	addwfc	??___fladd+3,w,c
  5598  003552  6E17               	movwf	___fladd@b+3,c
  5599  003554  0E80               	movlw	128
  5600  003556  1A20               	xorwf	___fladd@signs,f,c
  5601  003558  6C23               	negf	___fladd@grs,c
  5602  00355A  5023               	movf	___fladd@grs,w,c
  5603  00355C  A4D8               	btfss	status,2,c
  5604  00355E  D00F               	goto	l1163
  5605  003560  0E01               	movlw	1
  5606  003562  2614               	addwf	___fladd@b,f,c
  5607  003564  0E00               	movlw	0
  5608  003566  2215               	addwfc	___fladd@b+1,f,c
  5609  003568  2216               	addwfc	___fladd@b+2,f,c
  5610  00356A  2217               	addwfc	___fladd@b+3,f,c
  5611  00356C  D008               	goto	l1163
  5612  00356E                     l5149:
  5613  00356E  5018               	movf	___fladd@a,w,c
  5614  003570  5E14               	subwf	___fladd@b,f,c
  5615  003572  5019               	movf	___fladd@a+1,w,c
  5616  003574  5A15               	subwfb	___fladd@b+1,f,c
  5617  003576  501A               	movf	___fladd@a+2,w,c
  5618  003578  5A16               	subwfb	___fladd@b+2,f,c
  5619  00357A  501B               	movf	___fladd@a+3,w,c
  5620  00357C  5A17               	subwfb	___fladd@b+3,f,c
  5621  00357E                     l1163:
  5622  00357E  5014               	movf	___fladd@b,w,c
  5623  003580  1015               	iorwf	___fladd@b+1,w,c
  5624  003582  1016               	iorwf	___fladd@b+2,w,c
  5625  003584  1017               	iorwf	___fladd@b+3,w,c
  5626  003586  A4D8               	btfss	status,2,c
  5627  003588  D01C               	goto	l5173
  5628  00358A  5023               	movf	___fladd@grs,w,c
  5629  00358C  A4D8               	btfss	status,2,c
  5630  00358E  D019               	goto	l5173
  5631  003590  0E00               	movlw	0
  5632  003592  6E14               	movwf	?___fladd,c
  5633  003594  0E00               	movlw	0
  5634  003596  6E15               	movwf	?___fladd+1,c
  5635  003598  0E00               	movlw	0
  5636  00359A  6E16               	movwf	?___fladd+2,c
  5637  00359C  0E00               	movlw	0
  5638  00359E  6E17               	movwf	?___fladd+3,c
  5639  0035A0  0012               	return	
  5640  0035A2                     l5157:
  5641  0035A2  90D8               	bcf	status,0,c
  5642  0035A4  3614               	rlcf	___fladd@b,f,c
  5643  0035A6  3615               	rlcf	___fladd@b+1,f,c
  5644  0035A8  3616               	rlcf	___fladd@b+2,f,c
  5645  0035AA  3617               	rlcf	___fladd@b+3,f,c
  5646  0035AC  BE23               	btfsc	___fladd@grs,7,c
  5647  0035AE  8014               	bsf	___fladd@b,0,c
  5648  0035B0  A023               	btfss	___fladd@grs,0,c
  5649  0035B2  D002               	goto	l5167
  5650  0035B4  80D8               	bsf	status,0,c
  5651  0035B6  D001               	goto	L9
  5652  0035B8                     l5167:
  5653  0035B8  90D8               	bcf	status,0,c
  5654  0035BA                     L9:
  5655  0035BA  3623               	rlcf	___fladd@grs,f,c
  5656  0035BC  5022               	movf	___fladd@bexp,w,c
  5657  0035BE  A4D8               	btfss	status,2,c
  5658  0035C0  0622               	decf	___fladd@bexp,f,c
  5659  0035C2                     l5173:
  5660  0035C2  AE16               	btfss	___fladd@b+2,7,c
  5661  0035C4  D7EE               	goto	l5157
  5662  0035C6                     u6360:
  5663  0035C6  0E00               	movlw	0
  5664  0035C8  6E21               	movwf	___fladd@aexp,c
  5665  0035CA  AE23               	btfss	___fladd@grs,7,c
  5666  0035CC  D00C               	goto	l1172
  5667  0035CE  0060  F08C  F01C   	movff	___fladd@grs,??___fladd
  5668  0035D4  0E7F               	movlw	127
  5669  0035D6  161C               	andwf	??___fladd,f,c
  5670  0035D8  B4D8               	btfsc	status,2,c
  5671  0035DA  D003               	goto	l1173
  5672  0035DC                     u6380:
  5673  0035DC  0E01               	movlw	1
  5674  0035DE  6E21               	movwf	___fladd@aexp,c
  5675  0035E0  D002               	goto	l1172
  5676  0035E2                     l1173:
  5677  0035E2  B014               	btfsc	___fladd@b,0,c
  5678  0035E4  D7FB               	goto	u6380
  5679  0035E6                     l1172:
  5680  0035E6  5021               	movf	___fladd@aexp,w,c
  5681  0035E8  B4D8               	btfsc	status,2,c
  5682  0035EA  D028               	goto	l5193
  5683  0035EC  0E01               	movlw	1
  5684  0035EE  2614               	addwf	___fladd@b,f,c
  5685  0035F0  0E00               	movlw	0
  5686  0035F2  2215               	addwfc	___fladd@b+1,f,c
  5687  0035F4  2216               	addwfc	___fladd@b+2,f,c
  5688  0035F6  2217               	addwfc	___fladd@b+3,f,c
  5689  0035F8  A017               	btfss	___fladd@b+3,0,c
  5690  0035FA  D020               	goto	l5193
  5691  0035FC  0060  F050  F01C   	movff	___fladd@b,??___fladd
  5692  003602  0060  F054  F01D   	movff	___fladd@b+1,??___fladd+1
  5693  003608  0060  F058  F01E   	movff	___fladd@b+2,??___fladd+2
  5694  00360E  0060  F05C  F01F   	movff	___fladd@b+3,??___fladd+3
  5695  003614  341F               	rlcf	??___fladd+3,w,c
  5696  003616  321F               	rrcf	??___fladd+3,f,c
  5697  003618  321E               	rrcf	??___fladd+2,f,c
  5698  00361A  321D               	rrcf	??___fladd+1,f,c
  5699  00361C  321C               	rrcf	??___fladd,f,c
  5700  00361E  0060  F070  F014   	movff	??___fladd,___fladd@b
  5701  003624  0060  F074  F015   	movff	??___fladd+1,___fladd@b+1
  5702  00362A  0060  F078  F016   	movff	??___fladd+2,___fladd@b+2
  5703  003630  0060  F07C  F017   	movff	??___fladd+3,___fladd@b+3
  5704  003636  2822               	incf	___fladd@bexp,w,c
  5705  003638  A4D8               	btfss	status,2,c
  5706  00363A  2A22               	incf	___fladd@bexp,f,c
  5707  00363C                     l5193:
  5708  00363C  2822               	incf	___fladd@bexp,w,c
  5709  00363E  B4D8               	btfsc	status,2,c
  5710  003640  D003               	goto	u6440
  5711  003642  5022               	movf	___fladd@bexp,w,c
  5712  003644  A4D8               	btfss	status,2,c
  5713  003646  D00D               	goto	l5201
  5714  003648                     u6440:
  5715  003648  0E00               	movlw	0
  5716  00364A  6E14               	movwf	___fladd@b,c
  5717  00364C  0E00               	movlw	0
  5718  00364E  6E15               	movwf	___fladd@b+1,c
  5719  003650  0E00               	movlw	0
  5720  003652  6E16               	movwf	___fladd@b+2,c
  5721  003654  0E00               	movlw	0
  5722  003656  6E17               	movwf	___fladd@b+3,c
  5723  003658  5022               	movf	___fladd@bexp,w,c
  5724  00365A  A4D8               	btfss	status,2,c
  5725  00365C  D002               	goto	l5201
  5726  00365E  0E00               	movlw	0
  5727  003660  6E20               	movwf	___fladd@signs,c
  5728  003662                     l5201:
  5729  003662  A022               	btfss	___fladd@bexp,0,c
  5730  003664  D002               	goto	l5205
  5731  003666  8E16               	bsf	___fladd@b+2,7,c
  5732  003668  D001               	goto	l5207
  5733  00366A                     l5205:
  5734  00366A  9E16               	bcf	___fladd@b+2,7,c
  5735  00366C                     l5207:
  5736  00366C  90D8               	bcf	status,0,c
  5737  00366E  3022               	rrcf	___fladd@bexp,w,c
  5738  003670  6E17               	movwf	___fladd@b+3,c
  5739  003672  BE20               	btfsc	___fladd@signs,7,c
  5740  003674  8E17               	bsf	___fladd@b+3,7,c
  5741  003676  0060  F050  F014   	movff	___fladd@b,?___fladd
  5742  00367C  0060  F054  F015   	movff	___fladd@b+1,?___fladd+1
  5743  003682  0060  F058  F016   	movff	___fladd@b+2,?___fladd+2
  5744  003688  0060  F05C  F017   	movff	___fladd@b+3,?___fladd+3
  5745  00368E  0012               	return		;funcret
  5746  003690                     __end_of___fladd:
  5747                           	opt callstack 0
  5748                           
  5749 ;; *************** function ___flneg *****************
  5750 ;; Defined at:
  5751 ;;		line 15 in file "/opt/microchip/xc8/v2.05/pic/sources/c99/common/flneg.c"
  5752 ;; Parameters:    Size  Location     Type
  5753 ;;  f1              4   19[COMRAM] unsigned char 
  5754 ;; Auto vars:     Size  Location     Type
  5755 ;;		None
  5756 ;; Return value:  Size  Location     Type
  5757 ;;                  4   19[COMRAM] unsigned char 
  5758 ;; Registers used:
  5759 ;;		wreg, status,2, status,0
  5760 ;; Tracked objects:
  5761 ;;		On entry : 0/0
  5762 ;;		On exit  : 0/0
  5763 ;;		Unchanged: 0/0
  5764 ;; Data sizes:     COMRAM   BANK0   BANK1   BANK2   BANK3   BANK4   BANK5   BANK6   BANK7   BANK8   BANK9  BANK10  BANK1
      +1  BANK12  BANK13  BANK14  BANK15  BANK16  BANK17  BANK18  BANK19  BANK20  BANK21  BANK22  BANK23  BANK24  BANK25  BANK2
      +6  BANK27  BANK28  BANK29  BANK30  BANK31
  5765 ;;      Params:         4       0       0       0       0       0       0       0       0       0       0       0       
      +0       0       0       0       0       0       0       0       0       0       0       0       0       0       0       
      +0       0       0       0       0       0
  5766 ;;      Locals:         0       0       0       0       0       0       0       0       0       0       0       0       
      +0       0       0       0       0       0       0       0       0       0       0       0       0       0       0       
      +0       0       0       0       0       0
  5767 ;;      Temps:          0       0       0       0       0       0       0       0       0       0       0       0       
      +0       0       0       0       0       0       0       0       0       0       0       0       0       0       0       
      +0       0       0       0       0       0
  5768 ;;      Totals:         4       0       0       0       0       0       0       0       0       0       0       0       
      +0       0       0       0       0       0       0       0       0       0       0       0       0       0       0       
      +0       0       0       0       0       0
  5769 ;;Total ram usage:        4 bytes
  5770 ;; Hardware stack levels used:    1
  5771 ;; Hardware stack levels required when called:    2
  5772 ;; This function calls:
  5773 ;;		Nothing
  5774 ;; This function is called by:
  5775 ;;		_efgtoa
  5776 ;; This function uses a non-reentrant model
  5777 ;;
  5778                           
  5779                           	psect	text21
  5780  004D70                     __ptext21:
  5781                           	opt callstack 0
  5782  004D70                     ___flneg:
  5783                           	opt callstack 23
  5784                           
  5785                           ;incstack = 0
  5786  004D70  5014               	movf	___flneg@f1,w,c
  5787  004D72  1015               	iorwf	___flneg@f1+1,w,c
  5788  004D74  1016               	iorwf	___flneg@f1+2,w,c
  5789  004D76  1017               	iorwf	___flneg@f1+3,w,c
  5790  004D78  B4D8               	btfsc	status,2,c
  5791  004D7A  D008               	goto	l5699
  5792  004D7C  0E00               	movlw	0
  5793  004D7E  1A14               	xorwf	___flneg@f1,f,c
  5794  004D80  0E00               	movlw	0
  5795  004D82  1A15               	xorwf	___flneg@f1+1,f,c
  5796  004D84  0E00               	movlw	0
  5797  004D86  1A16               	xorwf	___flneg@f1+2,f,c
  5798  004D88  0E80               	movlw	128
  5799  004D8A  1A17               	xorwf	___flneg@f1+3,f,c
  5800  004D8C                     l5699:
  5801  004D8C  0060  F050  F014   	movff	___flneg@f1,?___flneg
  5802  004D92  0060  F054  F015   	movff	___flneg@f1+1,?___flneg+1
  5803  004D98  0060  F058  F016   	movff	___flneg@f1+2,?___flneg+2
  5804  004D9E  0060  F05C  F017   	movff	___flneg@f1+3,?___flneg+3
  5805  004DA4  0012               	return		;funcret
  5806  004DA6                     __end_of___flneg:
  5807                           	opt callstack 0
  5808                           
  5809 ;; *************** function ___flmul *****************
  5810 ;; Defined at:
  5811 ;;		line 8 in file "/opt/microchip/xc8/v2.05/pic/sources/c99/common/sprcmul.c"
  5812 ;; Parameters:    Size  Location     Type
  5813 ;;  b               4   19[COMRAM] unsigned char 
  5814 ;;  a               4   23[COMRAM] unsigned char 
  5815 ;; Auto vars:     Size  Location     Type
  5816 ;;  prod            4   38[COMRAM] struct .
  5817 ;;  grs             4   33[COMRAM] unsigned long 
  5818 ;;  temp            2   42[COMRAM] struct .
  5819 ;;  bexp            1   37[COMRAM] unsigned char 
  5820 ;;  aexp            1   32[COMRAM] unsigned char 
  5821 ;;  sign            1   31[COMRAM] unsigned char 
  5822 ;; Return value:  Size  Location     Type
  5823 ;;                  4   19[COMRAM] unsigned char 
  5824 ;; Registers used:
  5825 ;;		wreg, status,2, status,0, prodl, prodh
  5826 ;; Tracked objects:
  5827 ;;		On entry : 0/0
  5828 ;;		On exit  : 0/0
  5829 ;;		Unchanged: 0/0
  5830 ;; Data sizes:     COMRAM   BANK0   BANK1   BANK2   BANK3   BANK4   BANK5   BANK6   BANK7   BANK8   BANK9  BANK10  BANK1
      +1  BANK12  BANK13  BANK14  BANK15  BANK16  BANK17  BANK18  BANK19  BANK20  BANK21  BANK22  BANK23  BANK24  BANK25  BANK2
      +6  BANK27  BANK28  BANK29  BANK30  BANK31
  5831 ;;      Params:         8       0       0       0       0       0       0       0       0       0       0       0       
      +0       0       0       0       0       0       0       0       0       0       0       0       0       0       0       
      +0       0       0       0       0       0
  5832 ;;      Locals:        13       0       0       0       0       0       0       0       0       0       0       0       
      +0       0       0       0       0       0       0       0       0       0       0       0       0       0       0       
      +0       0       0       0       0       0
  5833 ;;      Temps:          4       0       0       0       0       0       0       0       0       0       0       0       
      +0       0       0       0       0       0       0       0       0       0       0       0       0       0       0       
      +0       0       0       0       0       0
  5834 ;;      Totals:        25       0       0       0       0       0       0       0       0       0       0       0       
      +0       0       0       0       0       0       0       0       0       0       0       0       0       0       0       
      +0       0       0       0       0       0
  5835 ;;Total ram usage:       25 bytes
  5836 ;; Hardware stack levels used:    1
  5837 ;; Hardware stack levels required when called:    2
  5838 ;; This function calls:
  5839 ;;		Nothing
  5840 ;; This function is called by:
  5841 ;;		_UART_handler
  5842 ;;		_efgtoa
  5843 ;; This function uses a non-reentrant model
  5844 ;;
  5845                           
  5846                           	psect	text22
  5847  002C02                     __ptext22:
  5848                           	opt callstack 0
  5849  002C02                     ___flmul:
  5850                           	opt callstack 23
  5851                           
  5852                           ;incstack = 0
  5853  002C02  5017               	movf	___flmul@b+3,w,c
  5854  002C04  0B80               	andlw	128
  5855  002C06  6E20               	movwf	___flmul@sign,c
  5856  002C08  5017               	movf	___flmul@b+3,w,c
  5857  002C0A  2417               	addwf	___flmul@b+3,w,c
  5858  002C0C  6E26               	movwf	___flmul@bexp,c
  5859  002C0E  BE16               	btfsc	___flmul@b+2,7,c
  5860  002C10  8026               	bsf	___flmul@bexp,0,c
  5861  002C12  5026               	movf	___flmul@bexp,w,c
  5862  002C14  B4D8               	btfsc	status,2,c
  5863  002C16  D00D               	goto	l5455
  5864  002C18  2826               	incf	___flmul@bexp,w,c
  5865  002C1A  A4D8               	btfss	status,2,c
  5866  002C1C  D008               	goto	l5453
  5867  002C1E  0E00               	movlw	0
  5868  002C20  6E14               	movwf	___flmul@b,c
  5869  002C22  0E00               	movlw	0
  5870  002C24  6E15               	movwf	___flmul@b+1,c
  5871  002C26  0E00               	movlw	0
  5872  002C28  6E16               	movwf	___flmul@b+2,c
  5873  002C2A  0E00               	movlw	0
  5874  002C2C  6E17               	movwf	___flmul@b+3,c
  5875  002C2E                     l5453:
  5876  002C2E  8E16               	bsf	___flmul@b+2,7,c
  5877  002C30  D008               	goto	l5457
  5878  002C32                     l5455:
  5879  002C32  0E00               	movlw	0
  5880  002C34  6E14               	movwf	___flmul@b,c
  5881  002C36  0E00               	movlw	0
  5882  002C38  6E15               	movwf	___flmul@b+1,c
  5883  002C3A  0E00               	movlw	0
  5884  002C3C  6E16               	movwf	___flmul@b+2,c
  5885  002C3E  0E00               	movlw	0
  5886  002C40  6E17               	movwf	___flmul@b+3,c
  5887  002C42                     l5457:
  5888  002C42  501B               	movf	___flmul@a+3,w,c
  5889  002C44  0B80               	andlw	128
  5890  002C46  1A20               	xorwf	___flmul@sign,f,c
  5891  002C48  501B               	movf	___flmul@a+3,w,c
  5892  002C4A  241B               	addwf	___flmul@a+3,w,c
  5893  002C4C  6E21               	movwf	___flmul@aexp,c
  5894  002C4E  BE1A               	btfsc	___flmul@a+2,7,c
  5895  002C50  8021               	bsf	___flmul@aexp,0,c
  5896  002C52  5021               	movf	___flmul@aexp,w,c
  5897  002C54  B4D8               	btfsc	status,2,c
  5898  002C56  D00D               	goto	l5473
  5899  002C58  2821               	incf	___flmul@aexp,w,c
  5900  002C5A  A4D8               	btfss	status,2,c
  5901  002C5C  D008               	goto	l5471
  5902  002C5E  0E00               	movlw	0
  5903  002C60  6E18               	movwf	___flmul@a,c
  5904  002C62  0E00               	movlw	0
  5905  002C64  6E19               	movwf	___flmul@a+1,c
  5906  002C66  0E00               	movlw	0
  5907  002C68  6E1A               	movwf	___flmul@a+2,c
  5908  002C6A  0E00               	movlw	0
  5909  002C6C  6E1B               	movwf	___flmul@a+3,c
  5910  002C6E                     l5471:
  5911  002C6E  8E1A               	bsf	___flmul@a+2,7,c
  5912  002C70  D008               	goto	l1232
  5913  002C72                     l5473:
  5914  002C72  0E00               	movlw	0
  5915  002C74  6E18               	movwf	___flmul@a,c
  5916  002C76  0E00               	movlw	0
  5917  002C78  6E19               	movwf	___flmul@a+1,c
  5918  002C7A  0E00               	movlw	0
  5919  002C7C  6E1A               	movwf	___flmul@a+2,c
  5920  002C7E  0E00               	movlw	0
  5921  002C80  6E1B               	movwf	___flmul@a+3,c
  5922  002C82                     l1232:
  5923  002C82  5021               	movf	___flmul@aexp,w,c
  5924  002C84  B4D8               	btfsc	status,2,c
  5925  002C86  D003               	goto	u7040
  5926  002C88  5026               	movf	___flmul@bexp,w,c
  5927  002C8A  A4D8               	btfss	status,2,c
  5928  002C8C  D009               	goto	l5481
  5929  002C8E                     u7040:
  5930  002C8E  0E00               	movlw	0
  5931  002C90  6E14               	movwf	?___flmul,c
  5932  002C92  0E00               	movlw	0
  5933  002C94  6E15               	movwf	?___flmul+1,c
  5934  002C96  0E00               	movlw	0
  5935  002C98  6E16               	movwf	?___flmul+2,c
  5936  002C9A  0E00               	movlw	0
  5937  002C9C  6E17               	movwf	?___flmul+3,c
  5938  002C9E  0012               	return	
  5939  002CA0                     l5481:
  5940  002CA0  501A               	movf	___flmul@a+2,w,c
  5941  002CA2  0214               	mulwf	___flmul@b,c
  5942  002CA4  006F FFCC  F02B    	movff	prodl,___flmul@temp
  5943  002CAA  006F FFD0  F02C    	movff	prodh,___flmul@temp+1
  5944  002CB0  502B               	movf	___flmul@temp,w,c
  5945  002CB2  6E22               	movwf	___flmul@grs,c
  5946  002CB4  6A23               	clrf	___flmul@grs+1,c
  5947  002CB6  6A24               	clrf	___flmul@grs+2,c
  5948  002CB8  6A25               	clrf	___flmul@grs+3,c
  5949  002CBA  502C               	movf	___flmul@temp+1,w,c
  5950  002CBC  6E27               	movwf	___flmul@prod,c
  5951  002CBE  6A28               	clrf	___flmul@prod+1,c
  5952  002CC0  6A29               	clrf	___flmul@prod+2,c
  5953  002CC2  6A2A               	clrf	___flmul@prod+3,c
  5954  002CC4  5019               	movf	___flmul@a+1,w,c
  5955  002CC6  0215               	mulwf	___flmul@b+1,c
  5956  002CC8  006F FFCC  F02B    	movff	prodl,___flmul@temp
  5957  002CCE  006F FFD0  F02C    	movff	prodh,___flmul@temp+1
  5958  002CD4  502B               	movf	___flmul@temp,w,c
  5959  002CD6  2622               	addwf	___flmul@grs,f,c
  5960  002CD8  0E00               	movlw	0
  5961  002CDA  2223               	addwfc	___flmul@grs+1,f,c
  5962  002CDC  2224               	addwfc	___flmul@grs+2,f,c
  5963  002CDE  2225               	addwfc	___flmul@grs+3,f,c
  5964  002CE0  502C               	movf	___flmul@temp+1,w,c
  5965  002CE2  2627               	addwf	___flmul@prod,f,c
  5966  002CE4  0E00               	movlw	0
  5967  002CE6  2228               	addwfc	___flmul@prod+1,f,c
  5968  002CE8  2229               	addwfc	___flmul@prod+2,f,c
  5969  002CEA  222A               	addwfc	___flmul@prod+3,f,c
  5970  002CEC  5018               	movf	___flmul@a,w,c
  5971  002CEE  0216               	mulwf	___flmul@b+2,c
  5972  002CF0  006F FFCC  F02B    	movff	prodl,___flmul@temp
  5973  002CF6  006F FFD0  F02C    	movff	prodh,___flmul@temp+1
  5974  002CFC  502B               	movf	___flmul@temp,w,c
  5975  002CFE  2622               	addwf	___flmul@grs,f,c
  5976  002D00  0E00               	movlw	0
  5977  002D02  2223               	addwfc	___flmul@grs+1,f,c
  5978  002D04  2224               	addwfc	___flmul@grs+2,f,c
  5979  002D06  2225               	addwfc	___flmul@grs+3,f,c
  5980  002D08  502C               	movf	___flmul@temp+1,w,c
  5981  002D0A  2627               	addwf	___flmul@prod,f,c
  5982  002D0C  0E00               	movlw	0
  5983  002D0E  2228               	addwfc	___flmul@prod+1,f,c
  5984  002D10  2229               	addwfc	___flmul@prod+2,f,c
  5985  002D12  222A               	addwfc	___flmul@prod+3,f,c
  5986  002D14  0060  F090  F025   	movff	___flmul@grs+2,___flmul@grs+3
  5987  002D1A  0060  F08C  F024   	movff	___flmul@grs+1,___flmul@grs+2
  5988  002D20  0060  F088  F023   	movff	___flmul@grs,___flmul@grs+1
  5989  002D26  6A22               	clrf	___flmul@grs,c
  5990  002D28  5018               	movf	___flmul@a,w,c
  5991  002D2A  0215               	mulwf	___flmul@b+1,c
  5992  002D2C  006F FFCC  F02B    	movff	prodl,___flmul@temp
  5993  002D32  006F FFD0  F02C    	movff	prodh,___flmul@temp+1
  5994  002D38  502B               	movf	___flmul@temp,w,c
  5995  002D3A  2622               	addwf	___flmul@grs,f,c
  5996  002D3C  502C               	movf	___flmul@temp+1,w,c
  5997  002D3E  2223               	addwfc	___flmul@grs+1,f,c
  5998  002D40  0E00               	movlw	0
  5999  002D42  2224               	addwfc	___flmul@grs+2,f,c
  6000  002D44  0E00               	movlw	0
  6001  002D46  2225               	addwfc	___flmul@grs+3,f,c
  6002  002D48  5019               	movf	___flmul@a+1,w,c
  6003  002D4A  0214               	mulwf	___flmul@b,c
  6004  002D4C  006F FFCC  F02B    	movff	prodl,___flmul@temp
  6005  002D52  006F FFD0  F02C    	movff	prodh,___flmul@temp+1
  6006  002D58  502B               	movf	___flmul@temp,w,c
  6007  002D5A  2622               	addwf	___flmul@grs,f,c
  6008  002D5C  502C               	movf	___flmul@temp+1,w,c
  6009  002D5E  2223               	addwfc	___flmul@grs+1,f,c
  6010  002D60  0E00               	movlw	0
  6011  002D62  2224               	addwfc	___flmul@grs+2,f,c
  6012  002D64  0E00               	movlw	0
  6013  002D66  2225               	addwfc	___flmul@grs+3,f,c
  6014  002D68  0060  F090  F025   	movff	___flmul@grs+2,___flmul@grs+3
  6015  002D6E  0060  F08C  F024   	movff	___flmul@grs+1,___flmul@grs+2
  6016  002D74  0060  F088  F023   	movff	___flmul@grs,___flmul@grs+1
  6017  002D7A  6A22               	clrf	___flmul@grs,c
  6018  002D7C  5018               	movf	___flmul@a,w,c
  6019  002D7E  0214               	mulwf	___flmul@b,c
  6020  002D80  006F FFCC  F02B    	movff	prodl,___flmul@temp
  6021  002D86  006F FFD0  F02C    	movff	prodh,___flmul@temp+1
  6022  002D8C  502B               	movf	___flmul@temp,w,c
  6023  002D8E  2622               	addwf	___flmul@grs,f,c
  6024  002D90  502C               	movf	___flmul@temp+1,w,c
  6025  002D92  2223               	addwfc	___flmul@grs+1,f,c
  6026  002D94  0E00               	movlw	0
  6027  002D96  2224               	addwfc	___flmul@grs+2,f,c
  6028  002D98  0E00               	movlw	0
  6029  002D9A  2225               	addwfc	___flmul@grs+3,f,c
  6030  002D9C  501A               	movf	___flmul@a+2,w,c
  6031  002D9E  0215               	mulwf	___flmul@b+1,c
  6032  002DA0  006F FFCC  F02B    	movff	prodl,___flmul@temp
  6033  002DA6  006F FFD0  F02C    	movff	prodh,___flmul@temp+1
  6034  002DAC  502B               	movf	___flmul@temp,w,c
  6035  002DAE  2627               	addwf	___flmul@prod,f,c
  6036  002DB0  502C               	movf	___flmul@temp+1,w,c
  6037  002DB2  2228               	addwfc	___flmul@prod+1,f,c
  6038  002DB4  0E00               	movlw	0
  6039  002DB6  2229               	addwfc	___flmul@prod+2,f,c
  6040  002DB8  0E00               	movlw	0
  6041  002DBA  222A               	addwfc	___flmul@prod+3,f,c
  6042  002DBC  5019               	movf	___flmul@a+1,w,c
  6043  002DBE  0216               	mulwf	___flmul@b+2,c
  6044  002DC0  006F FFCC  F02B    	movff	prodl,___flmul@temp
  6045  002DC6  006F FFD0  F02C    	movff	prodh,___flmul@temp+1
  6046  002DCC  502B               	movf	___flmul@temp,w,c
  6047  002DCE  2627               	addwf	___flmul@prod,f,c
  6048  002DD0  502C               	movf	___flmul@temp+1,w,c
  6049  002DD2  2228               	addwfc	___flmul@prod+1,f,c
  6050  002DD4  0E00               	movlw	0
  6051  002DD6  2229               	addwfc	___flmul@prod+2,f,c
  6052  002DD8  0E00               	movlw	0
  6053  002DDA  222A               	addwfc	___flmul@prod+3,f,c
  6054  002DDC  501A               	movf	___flmul@a+2,w,c
  6055  002DDE  0216               	mulwf	___flmul@b+2,c
  6056  002DE0  006F FFCC  F02B    	movff	prodl,___flmul@temp
  6057  002DE6  006F FFD0  F02C    	movff	prodh,___flmul@temp+1
  6058  002DEC  502B               	movf	___flmul@temp,w,c
  6059  002DEE  6E1C               	movwf	??___flmul& (0+255),c
  6060  002DF0  502C               	movf	___flmul@temp+1,w,c
  6061  002DF2  6E1D               	movwf	(??___flmul+1)& (0+255),c
  6062  002DF4  6A1E               	clrf	(??___flmul+2)& (0+255),c
  6063  002DF6  6A1F               	clrf	(??___flmul+3)& (0+255),c
  6064  002DF8  0060  F078  F01F   	movff	??___flmul+2,??___flmul+3
  6065  002DFE  0060  F074  F01E   	movff	??___flmul+1,??___flmul+2
  6066  002E04  0060  F070  F01D   	movff	??___flmul,??___flmul+1
  6067  002E0A  6A1C               	clrf	??___flmul,c
  6068  002E0C  501C               	movf	??___flmul,w,c
  6069  002E0E  2627               	addwf	___flmul@prod,f,c
  6070  002E10  501D               	movf	??___flmul+1,w,c
  6071  002E12  2228               	addwfc	___flmul@prod+1,f,c
  6072  002E14  501E               	movf	??___flmul+2,w,c
  6073  002E16  2229               	addwfc	___flmul@prod+2,f,c
  6074  002E18  501F               	movf	??___flmul+3,w,c
  6075  002E1A  222A               	addwfc	___flmul@prod+3,f,c
  6076  002E1C  0060  F088  F01C   	movff	___flmul@grs,??___flmul
  6077  002E22  0060  F08C  F01D   	movff	___flmul@grs+1,??___flmul+1
  6078  002E28  0060  F090  F01E   	movff	___flmul@grs+2,??___flmul+2
  6079  002E2E  0060  F094  F01F   	movff	___flmul@grs+3,??___flmul+3
  6080  002E34  0E19               	movlw	25
  6081  002E36  D005               	goto	u7050
  6082  002E38                     u7055:
  6083  002E38  90D8               	bcf	status,0,c
  6084  002E3A  321F               	rrcf	??___flmul+3,f,c
  6085  002E3C  321E               	rrcf	??___flmul+2,f,c
  6086  002E3E  321D               	rrcf	??___flmul+1,f,c
  6087  002E40  321C               	rrcf	??___flmul,f,c
  6088  002E42                     u7050:
  6089  002E42  2EE8               	decfsz	wreg,f,c
  6090  002E44  D7F9               	goto	u7055
  6091  002E46  501C               	movf	??___flmul,w,c
  6092  002E48  2627               	addwf	___flmul@prod,f,c
  6093  002E4A  501D               	movf	??___flmul+1,w,c
  6094  002E4C  2228               	addwfc	___flmul@prod+1,f,c
  6095  002E4E  501E               	movf	??___flmul+2,w,c
  6096  002E50  2229               	addwfc	___flmul@prod+2,f,c
  6097  002E52  501F               	movf	??___flmul+3,w,c
  6098  002E54  222A               	addwfc	___flmul@prod+3,f,c
  6099  002E56  0060  F090  F025   	movff	___flmul@grs+2,___flmul@grs+3
  6100  002E5C  0060  F08C  F024   	movff	___flmul@grs+1,___flmul@grs+2
  6101  002E62  0060  F088  F023   	movff	___flmul@grs,___flmul@grs+1
  6102  002E68  6A22               	clrf	___flmul@grs,c
  6103  002E6A  5021               	movf	___flmul@aexp,w,c
  6104  002E6C  0060  F098  F01C   	movff	___flmul@bexp,??___flmul
  6105  002E72  6A1D               	clrf	(??___flmul+1)& (0+255),c
  6106  002E74  261C               	addwf	??___flmul,f,c
  6107  002E76  0E00               	movlw	0
  6108  002E78  221D               	addwfc	??___flmul+1,f,c
  6109  002E7A  0E82               	movlw	130
  6110  002E7C  241C               	addwf	??___flmul,w,c
  6111  002E7E  6E2B               	movwf	___flmul@temp,c
  6112  002E80  0EFF               	movlw	255
  6113  002E82  201D               	addwfc	??___flmul+1,w,c
  6114  002E84  6E2C               	movwf	___flmul@temp+1,c
  6115  002E86  D00F               	goto	l5529
  6116  002E88                     l5523:
  6117  002E88  90D8               	bcf	status,0,c
  6118  002E8A  3627               	rlcf	___flmul@prod,f,c
  6119  002E8C  3628               	rlcf	___flmul@prod+1,f,c
  6120  002E8E  3629               	rlcf	___flmul@prod+2,f,c
  6121  002E90  362A               	rlcf	___flmul@prod+3,f,c
  6122  002E92  BE25               	btfsc	___flmul@grs+3,7,c
  6123  002E94  8027               	bsf	___flmul@prod,0,c
  6124  002E96  90D8               	bcf	status,0,c
  6125  002E98  3622               	rlcf	___flmul@grs,f,c
  6126  002E9A  3623               	rlcf	___flmul@grs+1,f,c
  6127  002E9C  3624               	rlcf	___flmul@grs+2,f,c
  6128  002E9E  3625               	rlcf	___flmul@grs+3,f,c
  6129  002EA0  062B               	decf	___flmul@temp,f,c
  6130  002EA2  A0D8               	btfss	status,0,c
  6131  002EA4  062C               	decf	___flmul@temp+1,f,c
  6132  002EA6                     l5529:
  6133  002EA6  AE29               	btfss	___flmul@prod+2,7,c
  6134  002EA8  D7EF               	goto	l5523
  6135  002EAA  0E00               	movlw	0
  6136  002EAC  6E21               	movwf	___flmul@aexp,c
  6137  002EAE  AE25               	btfss	___flmul@grs+3,7,c
  6138  002EB0  D017               	goto	l1241
  6139  002EB2  0EFF               	movlw	255
  6140  002EB4  1422               	andwf	___flmul@grs,w,c
  6141  002EB6  6E1C               	movwf	??___flmul& (0+255),c
  6142  002EB8  0EFF               	movlw	255
  6143  002EBA  1423               	andwf	___flmul@grs+1,w,c
  6144  002EBC  6E1D               	movwf	(??___flmul+1)& (0+255),c
  6145  002EBE  0EFF               	movlw	255
  6146  002EC0  1424               	andwf	___flmul@grs+2,w,c
  6147  002EC2  6E1E               	movwf	(??___flmul+2)& (0+255),c
  6148  002EC4  0E7F               	movlw	127
  6149  002EC6  1425               	andwf	___flmul@grs+3,w,c
  6150  002EC8  6E1F               	movwf	(??___flmul+3)& (0+255),c
  6151  002ECA  501C               	movf	??___flmul,w,c
  6152  002ECC  101D               	iorwf	??___flmul+1,w,c
  6153  002ECE  101E               	iorwf	??___flmul+2,w,c
  6154  002ED0  101F               	iorwf	??___flmul+3,w,c
  6155  002ED2  B4D8               	btfsc	status,2,c
  6156  002ED4  D003               	goto	l1242
  6157  002ED6                     u7090:
  6158  002ED6  0E01               	movlw	1
  6159  002ED8  6E21               	movwf	___flmul@aexp,c
  6160  002EDA  D002               	goto	l1241
  6161  002EDC                     l1242:
  6162  002EDC  B027               	btfsc	___flmul@prod,0,c
  6163  002EDE  D7FB               	goto	u7090
  6164  002EE0                     l1241:
  6165  002EE0  5021               	movf	___flmul@aexp,w,c
  6166  002EE2  B4D8               	btfsc	status,2,c
  6167  002EE4  D027               	goto	l5549
  6168  002EE6  0E01               	movlw	1
  6169  002EE8  2627               	addwf	___flmul@prod,f,c
  6170  002EEA  0E00               	movlw	0
  6171  002EEC  2228               	addwfc	___flmul@prod+1,f,c
  6172  002EEE  2229               	addwfc	___flmul@prod+2,f,c
  6173  002EF0  222A               	addwfc	___flmul@prod+3,f,c
  6174  002EF2  A02A               	btfss	___flmul@prod+3,0,c
  6175  002EF4  D01F               	goto	l5549
  6176  002EF6  0060  F09C  F01C   	movff	___flmul@prod,??___flmul
  6177  002EFC  0060  F0A0  F01D   	movff	___flmul@prod+1,??___flmul+1
  6178  002F02  0060  F0A4  F01E   	movff	___flmul@prod+2,??___flmul+2
  6179  002F08  0060  F0A8  F01F   	movff	___flmul@prod+3,??___flmul+3
  6180  002F0E  341F               	rlcf	??___flmul+3,w,c
  6181  002F10  321F               	rrcf	??___flmul+3,f,c
  6182  002F12  321E               	rrcf	??___flmul+2,f,c
  6183  002F14  321D               	rrcf	??___flmul+1,f,c
  6184  002F16  321C               	rrcf	??___flmul,f,c
  6185  002F18  0060  F070  F027   	movff	??___flmul,___flmul@prod
  6186  002F1E  0060  F074  F028   	movff	??___flmul+1,___flmul@prod+1
  6187  002F24  0060  F078  F029   	movff	??___flmul+2,___flmul@prod+2
  6188  002F2A  0060  F07C  F02A   	movff	??___flmul+3,___flmul@prod+3
  6189  002F30  4A2B               	infsnz	___flmul@temp,f,c
  6190  002F32  2A2C               	incf	___flmul@temp+1,f,c
  6191  002F34                     l5549:
  6192  002F34  BE2C               	btfsc	___flmul@temp+1,7,c
  6193  002F36  D00D               	goto	l5553
  6194  002F38  502C               	movf	___flmul@temp+1,w,c
  6195  002F3A  E103               	bnz	u7130
  6196  002F3C  282B               	incf	___flmul@temp,w,c
  6197  002F3E  A0D8               	btfss	status,0,c
  6198  002F40  D008               	goto	l5553
  6199  002F42                     u7130:
  6200  002F42  0E00               	movlw	0
  6201  002F44  6E27               	movwf	___flmul@prod,c
  6202  002F46  0E00               	movlw	0
  6203  002F48  6E28               	movwf	___flmul@prod+1,c
  6204  002F4A  0E80               	movlw	128
  6205  002F4C  6E29               	movwf	___flmul@prod+2,c
  6206  002F4E  0E7F               	movlw	127
  6207  002F50  D021               	goto	L10
  6208  002F52                     l5553:
  6209  002F52  BE2C               	btfsc	___flmul@temp+1,7,c
  6210  002F54  D005               	goto	u7140
  6211  002F56  502C               	movf	___flmul@temp+1,w,c
  6212  002F58  E10E               	bnz	l1249
  6213  002F5A  042B               	decf	___flmul@temp,w,c
  6214  002F5C  B0D8               	btfsc	status,0,c
  6215  002F5E  D00B               	goto	l1249
  6216  002F60                     u7140:
  6217  002F60  0E00               	movlw	0
  6218  002F62  6E27               	movwf	___flmul@prod,c
  6219  002F64  0E00               	movlw	0
  6220  002F66  6E28               	movwf	___flmul@prod+1,c
  6221  002F68  0E00               	movlw	0
  6222  002F6A  6E29               	movwf	___flmul@prod+2,c
  6223  002F6C  0E00               	movlw	0
  6224  002F6E  6E2A               	movwf	___flmul@prod+3,c
  6225  002F70  0E00               	movlw	0
  6226  002F72  6E20               	movwf	___flmul@sign,c
  6227  002F74  D010               	goto	l5565
  6228  002F76                     l1249:
  6229  002F76  0060  F0AC  F026   	movff	___flmul@temp,___flmul@bexp
  6230  002F7C  0EFF               	movlw	255
  6231  002F7E  1627               	andwf	___flmul@prod,f,c
  6232  002F80  0EFF               	movlw	255
  6233  002F82  1628               	andwf	___flmul@prod+1,f,c
  6234  002F84  0E7F               	movlw	127
  6235  002F86  1629               	andwf	___flmul@prod+2,f,c
  6236  002F88  0E00               	movlw	0
  6237  002F8A  162A               	andwf	___flmul@prod+3,f,c
  6238  002F8C  B026               	btfsc	___flmul@bexp,0,c
  6239  002F8E  8E29               	bsf	___flmul@prod+2,7,c
  6240  002F90  90D8               	bcf	status,0,c
  6241  002F92  3026               	rrcf	___flmul@bexp,w,c
  6242  002F94                     L10:
  6243  002F94  6E2A               	movwf	___flmul@prod+3,c
  6244  002F96                     l5565:
  6245  002F96  5020               	movf	___flmul@sign,w,c
  6246  002F98  122A               	iorwf	___flmul@prod+3,f,c
  6247  002F9A  0060  F09C  F014   	movff	___flmul@prod,?___flmul
  6248  002FA0  0060  F0A0  F015   	movff	___flmul@prod+1,?___flmul+1
  6249  002FA6  0060  F0A4  F016   	movff	___flmul@prod+2,?___flmul+2
  6250  002FAC  0060  F0A8  F017   	movff	___flmul@prod+3,?___flmul+3
  6251  002FB2  0012               	return		;funcret
  6252  002FB4                     __end_of___flmul:
  6253                           	opt callstack 0
  6254                           
  6255 ;; *************** function ___flge *****************
  6256 ;; Defined at:
  6257 ;;		line 4 in file "/opt/microchip/xc8/v2.05/pic/sources/c99/common/flge.c"
  6258 ;; Parameters:    Size  Location     Type
  6259 ;;  ff1             4   44[COMRAM] unsigned char 
  6260 ;;  ff2             4   48[COMRAM] unsigned char 
  6261 ;; Auto vars:     Size  Location     Type
  6262 ;;		None
  6263 ;; Return value:  Size  Location     Type
  6264 ;;		None               void
  6265 ;; Registers used:
  6266 ;;		wreg, status,2, status,0
  6267 ;; Tracked objects:
  6268 ;;		On entry : 0/0
  6269 ;;		On exit  : 0/0
  6270 ;;		Unchanged: 0/0
  6271 ;; Data sizes:     COMRAM   BANK0   BANK1   BANK2   BANK3   BANK4   BANK5   BANK6   BANK7   BANK8   BANK9  BANK10  BANK1
      +1  BANK12  BANK13  BANK14  BANK15  BANK16  BANK17  BANK18  BANK19  BANK20  BANK21  BANK22  BANK23  BANK24  BANK25  BANK2
      +6  BANK27  BANK28  BANK29  BANK30  BANK31
  6272 ;;      Params:         8       0       0       0       0       0       0       0       0       0       0       0       
      +0       0       0       0       0       0       0       0       0       0       0       0       0       0       0       
      +0       0       0       0       0       0
  6273 ;;      Locals:         0       0       0       0       0       0       0       0       0       0       0       0       
      +0       0       0       0       0       0       0       0       0       0       0       0       0       0       0       
      +0       0       0       0       0       0
  6274 ;;      Temps:          4       0       0       0       0       0       0       0       0       0       0       0       
      +0       0       0       0       0       0       0       0       0       0       0       0       0       0       0       
      +0       0       0       0       0       0
  6275 ;;      Totals:        12       0       0       0       0       0       0       0       0       0       0       0       
      +0       0       0       0       0       0       0       0       0       0       0       0       0       0       0       
      +0       0       0       0       0       0
  6276 ;;Total ram usage:       12 bytes
  6277 ;; Hardware stack levels used:    1
  6278 ;; Hardware stack levels required when called:    2
  6279 ;; This function calls:
  6280 ;;		Nothing
  6281 ;; This function is called by:
  6282 ;;		_efgtoa
  6283 ;; This function uses a non-reentrant model
  6284 ;;
  6285                           
  6286                           	psect	text23
  6287  004194                     __ptext23:
  6288                           	opt callstack 0
  6289  004194                     ___flge:
  6290                           	opt callstack 23
  6291                           
  6292                           ;incstack = 0
  6293  004194  0E00               	movlw	0
  6294  004196  142D               	andwf	___flge@ff1,w,c
  6295  004198  6E35               	movwf	??___flge& (0+255),c
  6296  00419A  0E00               	movlw	0
  6297  00419C  142E               	andwf	___flge@ff1+1,w,c
  6298  00419E  6E36               	movwf	(??___flge+1)& (0+255),c
  6299  0041A0  0E80               	movlw	128
  6300  0041A2  142F               	andwf	___flge@ff1+2,w,c
  6301  0041A4  6E37               	movwf	(??___flge+2)& (0+255),c
  6302  0041A6  0E7F               	movlw	127
  6303  0041A8  1430               	andwf	___flge@ff1+3,w,c
  6304  0041AA  6E38               	movwf	(??___flge+3)& (0+255),c
  6305  0041AC  5035               	movf	??___flge,w,c
  6306  0041AE  1036               	iorwf	??___flge+1,w,c
  6307  0041B0  1037               	iorwf	??___flge+2,w,c
  6308  0041B2  1038               	iorwf	??___flge+3,w,c
  6309  0041B4  A4D8               	btfss	status,2,c
  6310  0041B6  D008               	goto	l5677
  6311  0041B8  0E00               	movlw	0
  6312  0041BA  6E2D               	movwf	___flge@ff1,c
  6313  0041BC  0E00               	movlw	0
  6314  0041BE  6E2E               	movwf	___flge@ff1+1,c
  6315  0041C0  0E00               	movlw	0
  6316  0041C2  6E2F               	movwf	___flge@ff1+2,c
  6317  0041C4  0E00               	movlw	0
  6318  0041C6  6E30               	movwf	___flge@ff1+3,c
  6319  0041C8                     l5677:
  6320  0041C8  0E00               	movlw	0
  6321  0041CA  1431               	andwf	___flge@ff2,w,c
  6322  0041CC  6E35               	movwf	??___flge& (0+255),c
  6323  0041CE  0E00               	movlw	0
  6324  0041D0  1432               	andwf	___flge@ff2+1,w,c
  6325  0041D2  6E36               	movwf	(??___flge+1)& (0+255),c
  6326  0041D4  0E80               	movlw	128
  6327  0041D6  1433               	andwf	___flge@ff2+2,w,c
  6328  0041D8  6E37               	movwf	(??___flge+2)& (0+255),c
  6329  0041DA  0E7F               	movlw	127
  6330  0041DC  1434               	andwf	___flge@ff2+3,w,c
  6331  0041DE  6E38               	movwf	(??___flge+3)& (0+255),c
  6332  0041E0  5035               	movf	??___flge,w,c
  6333  0041E2  1036               	iorwf	??___flge+1,w,c
  6334  0041E4  1037               	iorwf	??___flge+2,w,c
  6335  0041E6  1038               	iorwf	??___flge+3,w,c
  6336  0041E8  A4D8               	btfss	status,2,c
  6337  0041EA  D008               	goto	l5681
  6338  0041EC  0E00               	movlw	0
  6339  0041EE  6E31               	movwf	___flge@ff2,c
  6340  0041F0  0E00               	movlw	0
  6341  0041F2  6E32               	movwf	___flge@ff2+1,c
  6342  0041F4  0E00               	movlw	0
  6343  0041F6  6E33               	movwf	___flge@ff2+2,c
  6344  0041F8  0E00               	movlw	0
  6345  0041FA  6E34               	movwf	___flge@ff2+3,c
  6346  0041FC                     l5681:
  6347  0041FC  AE30               	btfss	___flge@ff1+3,7,c
  6348  0041FE  D009               	goto	l5685
  6349  004200  6C2D               	negf	___flge@ff1,c
  6350  004202  1E2E               	comf	___flge@ff1+1,f,c
  6351  004204  B0D8               	btfsc	status,0,c
  6352  004206  2A2E               	incf	___flge@ff1+1,f,c
  6353  004208  1E2F               	comf	___flge@ff1+2,f,c
  6354  00420A  B0D8               	btfsc	status,0,c
  6355  00420C  2A2F               	incf	___flge@ff1+2,f,c
  6356  00420E  0E80               	movlw	128
  6357  004210  5630               	subfwb	___flge@ff1+3,f,c
  6358  004212                     l5685:
  6359  004212  AE34               	btfss	___flge@ff2+3,7,c
  6360  004214  D009               	goto	l883
  6361  004216  6C31               	negf	___flge@ff2,c
  6362  004218  1E32               	comf	___flge@ff2+1,f,c
  6363  00421A  B0D8               	btfsc	status,0,c
  6364  00421C  2A32               	incf	___flge@ff2+1,f,c
  6365  00421E  1E33               	comf	___flge@ff2+2,f,c
  6366  004220  B0D8               	btfsc	status,0,c
  6367  004222  2A33               	incf	___flge@ff2+2,f,c
  6368  004224  0E80               	movlw	128
  6369  004226  5634               	subfwb	___flge@ff2+3,f,c
  6370  004228                     l883:
  6371  004228  0E00               	movlw	0
  6372  00422A  1A2D               	xorwf	___flge@ff1,f,c
  6373  00422C  0E00               	movlw	0
  6374  00422E  1A2E               	xorwf	___flge@ff1+1,f,c
  6375  004230  0E00               	movlw	0
  6376  004232  1A2F               	xorwf	___flge@ff1+2,f,c
  6377  004234  0E80               	movlw	128
  6378  004236  1A30               	xorwf	___flge@ff1+3,f,c
  6379  004238  0E00               	movlw	0
  6380  00423A  1A31               	xorwf	___flge@ff2,f,c
  6381  00423C  0E00               	movlw	0
  6382  00423E  1A32               	xorwf	___flge@ff2+1,f,c
  6383  004240  0E00               	movlw	0
  6384  004242  1A33               	xorwf	___flge@ff2+2,f,c
  6385  004244  0E80               	movlw	128
  6386  004246  1A34               	xorwf	___flge@ff2+3,f,c
  6387  004248  5031               	movf	___flge@ff2,w,c
  6388  00424A  5C2D               	subwf	___flge@ff1,w,c
  6389  00424C  5032               	movf	___flge@ff2+1,w,c
  6390  00424E  582E               	subwfb	___flge@ff1+1,w,c
  6391  004250  5033               	movf	___flge@ff2+2,w,c
  6392  004252  582F               	subwfb	___flge@ff1+2,w,c
  6393  004254  5034               	movf	___flge@ff2+3,w,c
  6394  004256  5830               	subwfb	___flge@ff1+3,w,c
  6395  004258  B0D8               	btfsc	status,0,c
  6396  00425A  D002               	goto	l5691
  6397  00425C  90D8               	bcf	status,0,c
  6398  00425E  0012               	return	
  6399  004260                     l5691:
  6400  004260  80D8               	bsf	status,0,c
  6401  004262  0012               	return		;funcret
  6402  004264                     __end_of___flge:
  6403                           	opt callstack 0
  6404                           
  6405 ;; *************** function ___fleq *****************
  6406 ;; Defined at:
  6407 ;;		line 4 in file "/opt/microchip/xc8/v2.05/pic/sources/c99/common/fleq.c"
  6408 ;; Parameters:    Size  Location     Type
  6409 ;;  ff1             4   19[COMRAM] unsigned char 
  6410 ;;  ff2             4   23[COMRAM] unsigned char 
  6411 ;; Auto vars:     Size  Location     Type
  6412 ;;		None
  6413 ;; Return value:  Size  Location     Type
  6414 ;;		None               void
  6415 ;; Registers used:
  6416 ;;		wreg, status,2, status,0
  6417 ;; Tracked objects:
  6418 ;;		On entry : 0/0
  6419 ;;		On exit  : 0/0
  6420 ;;		Unchanged: 0/0
  6421 ;; Data sizes:     COMRAM   BANK0   BANK1   BANK2   BANK3   BANK4   BANK5   BANK6   BANK7   BANK8   BANK9  BANK10  BANK1
      +1  BANK12  BANK13  BANK14  BANK15  BANK16  BANK17  BANK18  BANK19  BANK20  BANK21  BANK22  BANK23  BANK24  BANK25  BANK2
      +6  BANK27  BANK28  BANK29  BANK30  BANK31
  6422 ;;      Params:         8       0       0       0       0       0       0       0       0       0       0       0       
      +0       0       0       0       0       0       0       0       0       0       0       0       0       0       0       
      +0       0       0       0       0       0
  6423 ;;      Locals:         0       0       0       0       0       0       0       0       0       0       0       0       
      +0       0       0       0       0       0       0       0       0       0       0       0       0       0       0       
      +0       0       0       0       0       0
  6424 ;;      Temps:          4       0       0       0       0       0       0       0       0       0       0       0       
      +0       0       0       0       0       0       0       0       0       0       0       0       0       0       0       
      +0       0       0       0       0       0
  6425 ;;      Totals:        12       0       0       0       0       0       0       0       0       0       0       0       
      +0       0       0       0       0       0       0       0       0       0       0       0       0       0       0       
      +0       0       0       0       0       0
  6426 ;;Total ram usage:       12 bytes
  6427 ;; Hardware stack levels used:    1
  6428 ;; Hardware stack levels required when called:    2
  6429 ;; This function calls:
  6430 ;;		Nothing
  6431 ;; This function is called by:
  6432 ;;		_efgtoa
  6433 ;; This function uses a non-reentrant model
  6434 ;;
  6435                           
  6436                           	psect	text24
  6437  0047E4                     __ptext24:
  6438                           	opt callstack 0
  6439  0047E4                     ___fleq:
  6440                           	opt callstack 23
  6441                           
  6442                           ;incstack = 0
  6443  0047E4  0E00               	movlw	0
  6444  0047E6  1414               	andwf	___fleq@ff1,w,c
  6445  0047E8  6E1C               	movwf	??___fleq& (0+255),c
  6446  0047EA  0E00               	movlw	0
  6447  0047EC  1415               	andwf	___fleq@ff1+1,w,c
  6448  0047EE  6E1D               	movwf	(??___fleq+1)& (0+255),c
  6449  0047F0  0E80               	movlw	128
  6450  0047F2  1416               	andwf	___fleq@ff1+2,w,c
  6451  0047F4  6E1E               	movwf	(??___fleq+2)& (0+255),c
  6452  0047F6  0E7F               	movlw	127
  6453  0047F8  1417               	andwf	___fleq@ff1+3,w,c
  6454  0047FA  6E1F               	movwf	(??___fleq+3)& (0+255),c
  6455  0047FC  501C               	movf	??___fleq,w,c
  6456  0047FE  101D               	iorwf	??___fleq+1,w,c
  6457  004800  101E               	iorwf	??___fleq+2,w,c
  6458  004802  101F               	iorwf	??___fleq+3,w,c
  6459  004804  A4D8               	btfss	status,2,c
  6460  004806  D008               	goto	l5661
  6461  004808  0E00               	movlw	0
  6462  00480A  6E14               	movwf	___fleq@ff1,c
  6463  00480C  0E00               	movlw	0
  6464  00480E  6E15               	movwf	___fleq@ff1+1,c
  6465  004810  0E00               	movlw	0
  6466  004812  6E16               	movwf	___fleq@ff1+2,c
  6467  004814  0E00               	movlw	0
  6468  004816  6E17               	movwf	___fleq@ff1+3,c
  6469  004818                     l5661:
  6470  004818  0E00               	movlw	0
  6471  00481A  1418               	andwf	___fleq@ff2,w,c
  6472  00481C  6E1C               	movwf	??___fleq& (0+255),c
  6473  00481E  0E00               	movlw	0
  6474  004820  1419               	andwf	___fleq@ff2+1,w,c
  6475  004822  6E1D               	movwf	(??___fleq+1)& (0+255),c
  6476  004824  0E80               	movlw	128
  6477  004826  141A               	andwf	___fleq@ff2+2,w,c
  6478  004828  6E1E               	movwf	(??___fleq+2)& (0+255),c
  6479  00482A  0E7F               	movlw	127
  6480  00482C  141B               	andwf	___fleq@ff2+3,w,c
  6481  00482E  6E1F               	movwf	(??___fleq+3)& (0+255),c
  6482  004830  501C               	movf	??___fleq,w,c
  6483  004832  101D               	iorwf	??___fleq+1,w,c
  6484  004834  101E               	iorwf	??___fleq+2,w,c
  6485  004836  101F               	iorwf	??___fleq+3,w,c
  6486  004838  A4D8               	btfss	status,2,c
  6487  00483A  D008               	goto	l5665
  6488  00483C  0E00               	movlw	0
  6489  00483E  6E18               	movwf	___fleq@ff2,c
  6490  004840  0E00               	movlw	0
  6491  004842  6E19               	movwf	___fleq@ff2+1,c
  6492  004844  0E00               	movlw	0
  6493  004846  6E1A               	movwf	___fleq@ff2+2,c
  6494  004848  0E00               	movlw	0
  6495  00484A  6E1B               	movwf	___fleq@ff2+3,c
  6496  00484C                     l5665:
  6497  00484C  5018               	movf	___fleq@ff2,w,c
  6498  00484E  1814               	xorwf	___fleq@ff1,w,c
  6499  004850  E10A               	bnz	u7300
  6500  004852  5019               	movf	___fleq@ff2+1,w,c
  6501  004854  1815               	xorwf	___fleq@ff1+1,w,c
  6502  004856  E107               	bnz	u7300
  6503  004858  501A               	movf	___fleq@ff2+2,w,c
  6504  00485A  1816               	xorwf	___fleq@ff1+2,w,c
  6505  00485C  E104               	bnz	u7300
  6506  00485E  501B               	movf	___fleq@ff2+3,w,c
  6507  004860  1817               	xorwf	___fleq@ff1+3,w,c
  6508  004862  B4D8               	btfsc	status,2,c
  6509  004864  D002               	goto	l5669
  6510  004866                     u7300:
  6511  004866  90D8               	bcf	status,0,c
  6512  004868  0012               	return	
  6513  00486A                     l5669:
  6514  00486A  80D8               	bsf	status,0,c
  6515  00486C  0012               	return		;funcret
  6516  00486E                     __end_of___fleq:
  6517                           	opt callstack 0
  6518                           
  6519 ;; *************** function ___fldiv *****************
  6520 ;; Defined at:
  6521 ;;		line 11 in file "/opt/microchip/xc8/v2.05/pic/sources/c99/common/sprcdiv.c"
  6522 ;; Parameters:    Size  Location     Type
  6523 ;;  b               4   19[COMRAM] unsigned char 
  6524 ;;  a               4   23[COMRAM] unsigned char 
  6525 ;; Auto vars:     Size  Location     Type
  6526 ;;  grs             4   38[COMRAM] unsigned long 
  6527 ;;  rem             4   31[COMRAM] unsigned long 
  6528 ;;  new_exp         2   36[COMRAM] short 
  6529 ;;  aexp            1   43[COMRAM] unsigned char 
  6530 ;;  bexp            1   42[COMRAM] unsigned char 
  6531 ;;  sign            1   35[COMRAM] unsigned char 
  6532 ;; Return value:  Size  Location     Type
  6533 ;;                  4   19[COMRAM] unsigned char 
  6534 ;; Registers used:
  6535 ;;		wreg, status,2, status,0
  6536 ;; Tracked objects:
  6537 ;;		On entry : 0/0
  6538 ;;		On exit  : 0/0
  6539 ;;		Unchanged: 0/0
  6540 ;; Data sizes:     COMRAM   BANK0   BANK1   BANK2   BANK3   BANK4   BANK5   BANK6   BANK7   BANK8   BANK9  BANK10  BANK1
      +1  BANK12  BANK13  BANK14  BANK15  BANK16  BANK17  BANK18  BANK19  BANK20  BANK21  BANK22  BANK23  BANK24  BANK25  BANK2
      +6  BANK27  BANK28  BANK29  BANK30  BANK31
  6541 ;;      Params:         8       0       0       0       0       0       0       0       0       0       0       0       
      +0       0       0       0       0       0       0       0       0       0       0       0       0       0       0       
      +0       0       0       0       0       0
  6542 ;;      Locals:        13       0       0       0       0       0       0       0       0       0       0       0       
      +0       0       0       0       0       0       0       0       0       0       0       0       0       0       0       
      +0       0       0       0       0       0
  6543 ;;      Temps:          4       0       0       0       0       0       0       0       0       0       0       0       
      +0       0       0       0       0       0       0       0       0       0       0       0       0       0       0       
      +0       0       0       0       0       0
  6544 ;;      Totals:        25       0       0       0       0       0       0       0       0       0       0       0       
      +0       0       0       0       0       0       0       0       0       0       0       0       0       0       0       
      +0       0       0       0       0       0
  6545 ;;Total ram usage:       25 bytes
  6546 ;; Hardware stack levels used:    1
  6547 ;; Hardware stack levels required when called:    2
  6548 ;; This function calls:
  6549 ;;		Nothing
  6550 ;; This function is called by:
  6551 ;;		_efgtoa
  6552 ;; This function uses a non-reentrant model
  6553 ;;
  6554                           
  6555                           	psect	text25
  6556  003690                     __ptext25:
  6557                           	opt callstack 0
  6558  003690                     ___fldiv:
  6559                           	opt callstack 23
  6560                           
  6561                           ;incstack = 0
  6562  003690  5017               	movf	___fldiv@b+3,w,c
  6563  003692  0B80               	andlw	128
  6564  003694  6E24               	movwf	___fldiv@sign,c
  6565  003696  5017               	movf	___fldiv@b+3,w,c
  6566  003698  2417               	addwf	___fldiv@b+3,w,c
  6567  00369A  6E2B               	movwf	___fldiv@bexp,c
  6568  00369C  BE16               	btfsc	___fldiv@b+2,7,c
  6569  00369E  802B               	bsf	___fldiv@bexp,0,c
  6570  0036A0  502B               	movf	___fldiv@bexp,w,c
  6571  0036A2  B4D8               	btfsc	status,2,c
  6572  0036A4  D00D               	goto	l5319
  6573  0036A6  282B               	incf	___fldiv@bexp,w,c
  6574  0036A8  A4D8               	btfss	status,2,c
  6575  0036AA  D008               	goto	l5315
  6576  0036AC  0E00               	movlw	0
  6577  0036AE  6E14               	movwf	___fldiv@b,c
  6578  0036B0  0E00               	movlw	0
  6579  0036B2  6E15               	movwf	___fldiv@b+1,c
  6580  0036B4  0E00               	movlw	0
  6581  0036B6  6E16               	movwf	___fldiv@b+2,c
  6582  0036B8  0E00               	movlw	0
  6583  0036BA  6E17               	movwf	___fldiv@b+3,c
  6584  0036BC                     l5315:
  6585  0036BC  8E16               	bsf	___fldiv@b+2,7,c
  6586  0036BE  D006               	goto	L11
  6587  0036C0                     l5319:
  6588  0036C0  0E00               	movlw	0
  6589  0036C2  6E14               	movwf	___fldiv@b,c
  6590  0036C4  0E00               	movlw	0
  6591  0036C6  6E15               	movwf	___fldiv@b+1,c
  6592  0036C8  0E00               	movlw	0
  6593  0036CA  6E16               	movwf	___fldiv@b+2,c
  6594  0036CC                     L11:
  6595  0036CC  0E00               	movlw	0
  6596  0036CE  6E17               	movwf	___fldiv@b+3,c
  6597  0036D0  501B               	movf	___fldiv@a+3,w,c
  6598  0036D2  0B80               	andlw	128
  6599  0036D4  1A24               	xorwf	___fldiv@sign,f,c
  6600  0036D6  501B               	movf	___fldiv@a+3,w,c
  6601  0036D8  241B               	addwf	___fldiv@a+3,w,c
  6602  0036DA  6E2C               	movwf	___fldiv@aexp,c
  6603  0036DC  BE1A               	btfsc	___fldiv@a+2,7,c
  6604  0036DE  802C               	bsf	___fldiv@aexp,0,c
  6605  0036E0  502C               	movf	___fldiv@aexp,w,c
  6606  0036E2  B4D8               	btfsc	status,2,c
  6607  0036E4  D00D               	goto	l5339
  6608  0036E6  282C               	incf	___fldiv@aexp,w,c
  6609  0036E8  A4D8               	btfss	status,2,c
  6610  0036EA  D008               	goto	l5335
  6611  0036EC  0E00               	movlw	0
  6612  0036EE  6E18               	movwf	___fldiv@a,c
  6613  0036F0  0E00               	movlw	0
  6614  0036F2  6E19               	movwf	___fldiv@a+1,c
  6615  0036F4  0E00               	movlw	0
  6616  0036F6  6E1A               	movwf	___fldiv@a+2,c
  6617  0036F8  0E00               	movlw	0
  6618  0036FA  6E1B               	movwf	___fldiv@a+3,c
  6619  0036FC                     l5335:
  6620  0036FC  8E1A               	bsf	___fldiv@a+2,7,c
  6621  0036FE  D006               	goto	L12
  6622  003700                     l5339:
  6623  003700  0E00               	movlw	0
  6624  003702  6E18               	movwf	___fldiv@a,c
  6625  003704  0E00               	movlw	0
  6626  003706  6E19               	movwf	___fldiv@a+1,c
  6627  003708  0E00               	movlw	0
  6628  00370A  6E1A               	movwf	___fldiv@a+2,c
  6629  00370C                     L12:
  6630  00370C  0E00               	movlw	0
  6631  00370E  6E1B               	movwf	___fldiv@a+3,c
  6632  003710  5018               	movf	___fldiv@a,w,c
  6633  003712  1019               	iorwf	___fldiv@a+1,w,c
  6634  003714  101A               	iorwf	___fldiv@a+2,w,c
  6635  003716  101B               	iorwf	___fldiv@a+3,w,c
  6636  003718  A4D8               	btfss	status,2,c
  6637  00371A  D01B               	goto	l5353
  6638  00371C  0E00               	movlw	0
  6639  00371E  6E14               	movwf	___fldiv@b,c
  6640  003720  0E00               	movlw	0
  6641  003722  6E15               	movwf	___fldiv@b+1,c
  6642  003724  0E00               	movlw	0
  6643  003726  6E16               	movwf	___fldiv@b+2,c
  6644  003728  0E00               	movlw	0
  6645  00372A  6E17               	movwf	___fldiv@b+3,c
  6646  00372C  0E80               	movlw	128
  6647  00372E  1216               	iorwf	___fldiv@b+2,f,c
  6648  003730  0E7F               	movlw	127
  6649  003732  1217               	iorwf	___fldiv@b+3,f,c
  6650  003734                     l5347:
  6651  003734  5024               	movf	___fldiv@sign,w,c
  6652  003736  1217               	iorwf	___fldiv@b+3,f,c
  6653  003738  0060  F050  F014   	movff	___fldiv@b,?___fldiv
  6654  00373E  0060  F054  F015   	movff	___fldiv@b+1,?___fldiv+1
  6655  003744  0060  F058  F016   	movff	___fldiv@b+2,?___fldiv+2
  6656  00374A  0060  F05C  F017   	movff	___fldiv@b+3,?___fldiv+3
  6657  003750  0012               	return	
  6658  003752                     l5353:
  6659  003752  502B               	movf	___fldiv@bexp,w,c
  6660  003754  A4D8               	btfss	status,2,c
  6661  003756  D009               	goto	l5361
  6662  003758  0E00               	movlw	0
  6663  00375A  6E14               	movwf	?___fldiv,c
  6664  00375C  0E00               	movlw	0
  6665  00375E  6E15               	movwf	?___fldiv+1,c
  6666  003760  0E00               	movlw	0
  6667  003762  6E16               	movwf	?___fldiv+2,c
  6668  003764  0E00               	movlw	0
  6669  003766  6E17               	movwf	?___fldiv+3,c
  6670  003768  0012               	return	
  6671  00376A                     l5361:
  6672  00376A  502C               	movf	___fldiv@aexp,w,c
  6673  00376C  0060  F0AC  F01C   	movff	___fldiv@bexp,??___fldiv
  6674  003772  6A1D               	clrf	(??___fldiv+1)& (0+255),c
  6675  003774  5E1C               	subwf	??___fldiv,f,c
  6676  003776  0E00               	movlw	0
  6677  003778  5A1D               	subwfb	??___fldiv+1,f,c
  6678  00377A  0E7F               	movlw	127
  6679  00377C  241C               	addwf	??___fldiv,w,c
  6680  00377E  6E25               	movwf	___fldiv@new_exp,c
  6681  003780  0E00               	movlw	0
  6682  003782  201D               	addwfc	??___fldiv+1,w,c
  6683  003784  6E26               	movwf	___fldiv@new_exp+1,c
  6684  003786  0060  F050  F020   	movff	___fldiv@b,___fldiv@rem
  6685  00378C  0060  F054  F021   	movff	___fldiv@b+1,___fldiv@rem+1
  6686  003792  0060  F058  F022   	movff	___fldiv@b+2,___fldiv@rem+2
  6687  003798  0060  F05C  F023   	movff	___fldiv@b+3,___fldiv@rem+3
  6688  00379E  0E00               	movlw	0
  6689  0037A0  6E14               	movwf	___fldiv@b,c
  6690  0037A2  0E00               	movlw	0
  6691  0037A4  6E15               	movwf	___fldiv@b+1,c
  6692  0037A6  0E00               	movlw	0
  6693  0037A8  6E16               	movwf	___fldiv@b+2,c
  6694  0037AA  0E00               	movlw	0
  6695  0037AC  6E17               	movwf	___fldiv@b+3,c
  6696  0037AE  0E00               	movlw	0
  6697  0037B0  6E27               	movwf	___fldiv@grs,c
  6698  0037B2  0E00               	movlw	0
  6699  0037B4  6E28               	movwf	___fldiv@grs+1,c
  6700  0037B6  0E00               	movlw	0
  6701  0037B8  6E29               	movwf	___fldiv@grs+2,c
  6702  0037BA  0E00               	movlw	0
  6703  0037BC  6E2A               	movwf	___fldiv@grs+3,c
  6704  0037BE  0E00               	movlw	0
  6705  0037C0  6E2C               	movwf	___fldiv@aexp,c
  6706  0037C2  D028               	goto	l1202
  6707  0037C4                     l5371:
  6708  0037C4  502C               	movf	___fldiv@aexp,w,c
  6709  0037C6  B4D8               	btfsc	status,2,c
  6710  0037C8  D011               	goto	l5379
  6711  0037CA  90D8               	bcf	status,0,c
  6712  0037CC  3620               	rlcf	___fldiv@rem,f,c
  6713  0037CE  3621               	rlcf	___fldiv@rem+1,f,c
  6714  0037D0  3622               	rlcf	___fldiv@rem+2,f,c
  6715  0037D2  3623               	rlcf	___fldiv@rem+3,f,c
  6716  0037D4  90D8               	bcf	status,0,c
  6717  0037D6  3614               	rlcf	___fldiv@b,f,c
  6718  0037D8  3615               	rlcf	___fldiv@b+1,f,c
  6719  0037DA  3616               	rlcf	___fldiv@b+2,f,c
  6720  0037DC  3617               	rlcf	___fldiv@b+3,f,c
  6721  0037DE  BE2A               	btfsc	___fldiv@grs+3,7,c
  6722  0037E0  8014               	bsf	___fldiv@b,0,c
  6723  0037E2  90D8               	bcf	status,0,c
  6724  0037E4  3627               	rlcf	___fldiv@grs,f,c
  6725  0037E6  3628               	rlcf	___fldiv@grs+1,f,c
  6726  0037E8  3629               	rlcf	___fldiv@grs+2,f,c
  6727  0037EA  362A               	rlcf	___fldiv@grs+3,f,c
  6728  0037EC                     l5379:
  6729  0037EC  5018               	movf	___fldiv@a,w,c
  6730  0037EE  5C20               	subwf	___fldiv@rem,w,c
  6731  0037F0  5019               	movf	___fldiv@a+1,w,c
  6732  0037F2  5821               	subwfb	___fldiv@rem+1,w,c
  6733  0037F4  501A               	movf	___fldiv@a+2,w,c
  6734  0037F6  5822               	subwfb	___fldiv@rem+2,w,c
  6735  0037F8  501B               	movf	___fldiv@a+3,w,c
  6736  0037FA  5823               	subwfb	___fldiv@rem+3,w,c
  6737  0037FC  A0D8               	btfss	status,0,c
  6738  0037FE  D009               	goto	l5385
  6739  003800  8C2A               	bsf	___fldiv@grs+3,6,c
  6740  003802  5018               	movf	___fldiv@a,w,c
  6741  003804  5E20               	subwf	___fldiv@rem,f,c
  6742  003806  5019               	movf	___fldiv@a+1,w,c
  6743  003808  5A21               	subwfb	___fldiv@rem+1,f,c
  6744  00380A  501A               	movf	___fldiv@a+2,w,c
  6745  00380C  5A22               	subwfb	___fldiv@rem+2,f,c
  6746  00380E  501B               	movf	___fldiv@a+3,w,c
  6747  003810  5A23               	subwfb	___fldiv@rem+3,f,c
  6748  003812                     l5385:
  6749  003812  2A2C               	incf	___fldiv@aexp,f,c
  6750  003814                     l1202:
  6751  003814  0E19               	movlw	25
  6752  003816  642C               	cpfsgt	___fldiv@aexp,c
  6753  003818  D7D5               	goto	l5371
  6754  00381A  5020               	movf	___fldiv@rem,w,c
  6755  00381C  1021               	iorwf	___fldiv@rem+1,w,c
  6756  00381E  1022               	iorwf	___fldiv@rem+2,w,c
  6757  003820  1023               	iorwf	___fldiv@rem+3,w,c
  6758  003822  B4D8               	btfsc	status,2,c
  6759  003824  D011               	goto	l5397
  6760  003826  8027               	bsf	___fldiv@grs,0,c
  6761  003828  D00F               	goto	l5397
  6762  00382A                     l5391:
  6763  00382A  90D8               	bcf	status,0,c
  6764  00382C  3614               	rlcf	___fldiv@b,f,c
  6765  00382E  3615               	rlcf	___fldiv@b+1,f,c
  6766  003830  3616               	rlcf	___fldiv@b+2,f,c
  6767  003832  3617               	rlcf	___fldiv@b+3,f,c
  6768  003834  BE2A               	btfsc	___fldiv@grs+3,7,c
  6769  003836  8014               	bsf	___fldiv@b,0,c
  6770  003838  90D8               	bcf	status,0,c
  6771  00383A  3627               	rlcf	___fldiv@grs,f,c
  6772  00383C  3628               	rlcf	___fldiv@grs+1,f,c
  6773  00383E  3629               	rlcf	___fldiv@grs+2,f,c
  6774  003840  362A               	rlcf	___fldiv@grs+3,f,c
  6775  003842  0625               	decf	___fldiv@new_exp,f,c
  6776  003844  A0D8               	btfss	status,0,c
  6777  003846  0626               	decf	___fldiv@new_exp+1,f,c
  6778  003848                     l5397:
  6779  003848  AE16               	btfss	___fldiv@b+2,7,c
  6780  00384A  D7EF               	goto	l5391
  6781  00384C  0E00               	movlw	0
  6782  00384E  6E2C               	movwf	___fldiv@aexp,c
  6783  003850  AE2A               	btfss	___fldiv@grs+3,7,c
  6784  003852  D017               	goto	l1213
  6785  003854  0EFF               	movlw	255
  6786  003856  1427               	andwf	___fldiv@grs,w,c
  6787  003858  6E1C               	movwf	??___fldiv& (0+255),c
  6788  00385A  0EFF               	movlw	255
  6789  00385C  1428               	andwf	___fldiv@grs+1,w,c
  6790  00385E  6E1D               	movwf	(??___fldiv+1)& (0+255),c
  6791  003860  0EFF               	movlw	255
  6792  003862  1429               	andwf	___fldiv@grs+2,w,c
  6793  003864  6E1E               	movwf	(??___fldiv+2)& (0+255),c
  6794  003866  0E7F               	movlw	127
  6795  003868  142A               	andwf	___fldiv@grs+3,w,c
  6796  00386A  6E1F               	movwf	(??___fldiv+3)& (0+255),c
  6797  00386C  501C               	movf	??___fldiv,w,c
  6798  00386E  101D               	iorwf	??___fldiv+1,w,c
  6799  003870  101E               	iorwf	??___fldiv+2,w,c
  6800  003872  101F               	iorwf	??___fldiv+3,w,c
  6801  003874  B4D8               	btfsc	status,2,c
  6802  003876  D003               	goto	l1214
  6803  003878                     u6900:
  6804  003878  0E01               	movlw	1
  6805  00387A  6E2C               	movwf	___fldiv@aexp,c
  6806  00387C  D002               	goto	l1213
  6807  00387E                     l1214:
  6808  00387E  B014               	btfsc	___fldiv@b,0,c
  6809  003880  D7FB               	goto	u6900
  6810  003882                     l1213:
  6811  003882  502C               	movf	___fldiv@aexp,w,c
  6812  003884  B4D8               	btfsc	status,2,c
  6813  003886  D027               	goto	l5417
  6814  003888  0E01               	movlw	1
  6815  00388A  2614               	addwf	___fldiv@b,f,c
  6816  00388C  0E00               	movlw	0
  6817  00388E  2215               	addwfc	___fldiv@b+1,f,c
  6818  003890  2216               	addwfc	___fldiv@b+2,f,c
  6819  003892  2217               	addwfc	___fldiv@b+3,f,c
  6820  003894  A017               	btfss	___fldiv@b+3,0,c
  6821  003896  D01F               	goto	l5417
  6822  003898  0060  F050  F01C   	movff	___fldiv@b,??___fldiv
  6823  00389E  0060  F054  F01D   	movff	___fldiv@b+1,??___fldiv+1
  6824  0038A4  0060  F058  F01E   	movff	___fldiv@b+2,??___fldiv+2
  6825  0038AA  0060  F05C  F01F   	movff	___fldiv@b+3,??___fldiv+3
  6826  0038B0  341F               	rlcf	??___fldiv+3,w,c
  6827  0038B2  321F               	rrcf	??___fldiv+3,f,c
  6828  0038B4  321E               	rrcf	??___fldiv+2,f,c
  6829  0038B6  321D               	rrcf	??___fldiv+1,f,c
  6830  0038B8  321C               	rrcf	??___fldiv,f,c
  6831  0038BA  0060  F070  F014   	movff	??___fldiv,___fldiv@b
  6832  0038C0  0060  F074  F015   	movff	??___fldiv+1,___fldiv@b+1
  6833  0038C6  0060  F078  F016   	movff	??___fldiv+2,___fldiv@b+2
  6834  0038CC  0060  F07C  F017   	movff	??___fldiv+3,___fldiv@b+3
  6835  0038D2  4A25               	infsnz	___fldiv@new_exp,f,c
  6836  0038D4  2A26               	incf	___fldiv@new_exp+1,f,c
  6837  0038D6                     l5417:
  6838  0038D6  BE26               	btfsc	___fldiv@new_exp+1,7,c
  6839  0038D8  D010               	goto	l5421
  6840  0038DA  5026               	movf	___fldiv@new_exp+1,w,c
  6841  0038DC  E103               	bnz	u6940
  6842  0038DE  2825               	incf	___fldiv@new_exp,w,c
  6843  0038E0  A0D8               	btfss	status,0,c
  6844  0038E2  D00B               	goto	l5421
  6845  0038E4                     u6940:
  6846  0038E4  0E00               	movlw	0
  6847  0038E6  6E26               	movwf	___fldiv@new_exp+1,c
  6848  0038E8  6825               	setf	___fldiv@new_exp,c
  6849  0038EA  0E00               	movlw	0
  6850  0038EC  6E14               	movwf	___fldiv@b,c
  6851  0038EE  0E00               	movlw	0
  6852  0038F0  6E15               	movwf	___fldiv@b+1,c
  6853  0038F2  0E00               	movlw	0
  6854  0038F4  6E16               	movwf	___fldiv@b+2,c
  6855  0038F6  0E00               	movlw	0
  6856  0038F8  6E17               	movwf	___fldiv@b+3,c
  6857  0038FA                     l5421:
  6858  0038FA  BE26               	btfsc	___fldiv@new_exp+1,7,c
  6859  0038FC  D005               	goto	u6950
  6860  0038FE  5026               	movf	___fldiv@new_exp+1,w,c
  6861  003900  E111               	bnz	l5425
  6862  003902  0425               	decf	___fldiv@new_exp,w,c
  6863  003904  B0D8               	btfsc	status,0,c
  6864  003906  D00E               	goto	l5425
  6865  003908                     u6950:
  6866  003908  0E00               	movlw	0
  6867  00390A  6E26               	movwf	___fldiv@new_exp+1,c
  6868  00390C  0E00               	movlw	0
  6869  00390E  6E25               	movwf	___fldiv@new_exp,c
  6870  003910  0E00               	movlw	0
  6871  003912  6E14               	movwf	___fldiv@b,c
  6872  003914  0E00               	movlw	0
  6873  003916  6E15               	movwf	___fldiv@b+1,c
  6874  003918  0E00               	movlw	0
  6875  00391A  6E16               	movwf	___fldiv@b+2,c
  6876  00391C  0E00               	movlw	0
  6877  00391E  6E17               	movwf	___fldiv@b+3,c
  6878  003920  0E00               	movlw	0
  6879  003922  6E24               	movwf	___fldiv@sign,c
  6880  003924                     l5425:
  6881  003924  0060  F094  F02B   	movff	___fldiv@new_exp,___fldiv@bexp
  6882  00392A  A02B               	btfss	___fldiv@bexp,0,c
  6883  00392C  D002               	goto	l5431
  6884  00392E  8E16               	bsf	___fldiv@b+2,7,c
  6885  003930  D001               	goto	l5433
  6886  003932                     l5431:
  6887  003932  9E16               	bcf	___fldiv@b+2,7,c
  6888  003934                     l5433:
  6889  003934  90D8               	bcf	status,0,c
  6890  003936  302B               	rrcf	___fldiv@bexp,w,c
  6891  003938  6E17               	movwf	___fldiv@b+3,c
  6892  00393A  D6FC               	goto	l5347
  6893  00393C                     __end_of___fldiv:
  6894                           	opt callstack 0
  6895                           
  6896 ;; *************** function ___awmod *****************
  6897 ;; Defined at:
  6898 ;;		line 7 in file "/opt/microchip/xc8/v2.05/pic/sources/c99/common/awmod.c"
  6899 ;; Parameters:    Size  Location     Type
  6900 ;;  dividend        2   19[COMRAM] int 
  6901 ;;  divisor         2   21[COMRAM] int 
  6902 ;; Auto vars:     Size  Location     Type
  6903 ;;  sign            1   24[COMRAM] unsigned char 
  6904 ;;  counter         1   23[COMRAM] unsigned char 
  6905 ;; Return value:  Size  Location     Type
  6906 ;;                  2   19[COMRAM] int 
  6907 ;; Registers used:
  6908 ;;		wreg, status,2, status,0
  6909 ;; Tracked objects:
  6910 ;;		On entry : 0/0
  6911 ;;		On exit  : 0/0
  6912 ;;		Unchanged: 0/0
  6913 ;; Data sizes:     COMRAM   BANK0   BANK1   BANK2   BANK3   BANK4   BANK5   BANK6   BANK7   BANK8   BANK9  BANK10  BANK1
      +1  BANK12  BANK13  BANK14  BANK15  BANK16  BANK17  BANK18  BANK19  BANK20  BANK21  BANK22  BANK23  BANK24  BANK25  BANK2
      +6  BANK27  BANK28  BANK29  BANK30  BANK31
  6914 ;;      Params:         4       0       0       0       0       0       0       0       0       0       0       0       
      +0       0       0       0       0       0       0       0       0       0       0       0       0       0       0       
      +0       0       0       0       0       0
  6915 ;;      Locals:         2       0       0       0       0       0       0       0       0       0       0       0       
      +0       0       0       0       0       0       0       0       0       0       0       0       0       0       0       
      +0       0       0       0       0       0
  6916 ;;      Temps:          0       0       0       0       0       0       0       0       0       0       0       0       
      +0       0       0       0       0       0       0       0       0       0       0       0       0       0       0       
      +0       0       0       0       0       0
  6917 ;;      Totals:         6       0       0       0       0       0       0       0       0       0       0       0       
      +0       0       0       0       0       0       0       0       0       0       0       0       0       0       0       
      +0       0       0       0       0       0
  6918 ;;Total ram usage:        6 bytes
  6919 ;; Hardware stack levels used:    1
  6920 ;; Hardware stack levels required when called:    2
  6921 ;; This function calls:
  6922 ;;		Nothing
  6923 ;; This function is called by:
  6924 ;;		_efgtoa
  6925 ;; This function uses a non-reentrant model
  6926 ;;
  6927                           
  6928                           	psect	text26
  6929  004978                     __ptext26:
  6930                           	opt callstack 0
  6931  004978                     ___awmod:
  6932                           	opt callstack 23
  6933                           
  6934                           ;incstack = 0
  6935  004978  0E00               	movlw	0
  6936  00497A  6E19               	movwf	___awmod@sign,c
  6937  00497C  AE15               	btfss	___awmod@dividend+1,7,c
  6938  00497E  D006               	goto	l5629
  6939  004980  6C14               	negf	___awmod@dividend,c
  6940  004982  1E15               	comf	___awmod@dividend+1,f,c
  6941  004984  B0D8               	btfsc	status,0,c
  6942  004986  2A15               	incf	___awmod@dividend+1,f,c
  6943  004988  0E01               	movlw	1
  6944  00498A  6E19               	movwf	___awmod@sign,c
  6945  00498C                     l5629:
  6946  00498C  AE17               	btfss	___awmod@divisor+1,7,c
  6947  00498E  D004               	goto	l5633
  6948  004990  6C16               	negf	___awmod@divisor,c
  6949  004992  1E17               	comf	___awmod@divisor+1,f,c
  6950  004994  B0D8               	btfsc	status,0,c
  6951  004996  2A17               	incf	___awmod@divisor+1,f,c
  6952  004998                     l5633:
  6953  004998  5016               	movf	___awmod@divisor,w,c
  6954  00499A  1017               	iorwf	___awmod@divisor+1,w,c
  6955  00499C  B4D8               	btfsc	status,2,c
  6956  00499E  D018               	goto	l5649
  6957  0049A0  0E01               	movlw	1
  6958  0049A2  6E18               	movwf	___awmod@counter,c
  6959  0049A4  D004               	goto	l5639
  6960  0049A6                     l5637:
  6961  0049A6  90D8               	bcf	status,0,c
  6962  0049A8  3616               	rlcf	___awmod@divisor,f,c
  6963  0049AA  3617               	rlcf	___awmod@divisor+1,f,c
  6964  0049AC  2A18               	incf	___awmod@counter,f,c
  6965  0049AE                     l5639:
  6966  0049AE  AE17               	btfss	___awmod@divisor+1,7,c
  6967  0049B0  D7FA               	goto	l5637
  6968  0049B2                     u7250:
  6969  0049B2  5016               	movf	___awmod@divisor,w,c
  6970  0049B4  5C14               	subwf	___awmod@dividend,w,c
  6971  0049B6  5017               	movf	___awmod@divisor+1,w,c
  6972  0049B8  5815               	subwfb	___awmod@dividend+1,w,c
  6973  0049BA  A0D8               	btfss	status,0,c
  6974  0049BC  D004               	goto	l5645
  6975  0049BE  5016               	movf	___awmod@divisor,w,c
  6976  0049C0  5E14               	subwf	___awmod@dividend,f,c
  6977  0049C2  5017               	movf	___awmod@divisor+1,w,c
  6978  0049C4  5A15               	subwfb	___awmod@dividend+1,f,c
  6979  0049C6                     l5645:
  6980  0049C6  90D8               	bcf	status,0,c
  6981  0049C8  3217               	rrcf	___awmod@divisor+1,f,c
  6982  0049CA  3216               	rrcf	___awmod@divisor,f,c
  6983  0049CC  2E18               	decfsz	___awmod@counter,f,c
  6984  0049CE  D7F1               	goto	u7250
  6985  0049D0                     l5649:
  6986  0049D0  5019               	movf	___awmod@sign,w,c
  6987  0049D2  B4D8               	btfsc	status,2,c
  6988  0049D4  D004               	goto	l5653
  6989  0049D6  6C14               	negf	___awmod@dividend,c
  6990  0049D8  1E15               	comf	___awmod@dividend+1,f,c
  6991  0049DA  B0D8               	btfsc	status,0,c
  6992  0049DC  2A15               	incf	___awmod@dividend+1,f,c
  6993  0049DE                     l5653:
  6994  0049DE  0060  F050  F014   	movff	___awmod@dividend,?___awmod
  6995  0049E4  0060  F054  F015   	movff	___awmod@dividend+1,?___awmod+1
  6996  0049EA  0012               	return		;funcret
  6997  0049EC                     __end_of___awmod:
  6998                           	opt callstack 0
  6999                           
  7000 ;; *************** function ___awdiv *****************
  7001 ;; Defined at:
  7002 ;;		line 7 in file "/opt/microchip/xc8/v2.05/pic/sources/c99/common/awdiv.c"
  7003 ;; Parameters:    Size  Location     Type
  7004 ;;  dividend        2   19[COMRAM] int 
  7005 ;;  divisor         2   21[COMRAM] int 
  7006 ;; Auto vars:     Size  Location     Type
  7007 ;;  quotient        2   25[COMRAM] int 
  7008 ;;  sign            1   24[COMRAM] unsigned char 
  7009 ;;  counter         1   23[COMRAM] unsigned char 
  7010 ;; Return value:  Size  Location     Type
  7011 ;;                  2   19[COMRAM] int 
  7012 ;; Registers used:
  7013 ;;		wreg, status,2, status,0
  7014 ;; Tracked objects:
  7015 ;;		On entry : 0/0
  7016 ;;		On exit  : 0/0
  7017 ;;		Unchanged: 0/0
  7018 ;; Data sizes:     COMRAM   BANK0   BANK1   BANK2   BANK3   BANK4   BANK5   BANK6   BANK7   BANK8   BANK9  BANK10  BANK1
      +1  BANK12  BANK13  BANK14  BANK15  BANK16  BANK17  BANK18  BANK19  BANK20  BANK21  BANK22  BANK23  BANK24  BANK25  BANK2
      +6  BANK27  BANK28  BANK29  BANK30  BANK31
  7019 ;;      Params:         4       0       0       0       0       0       0       0       0       0       0       0       
      +0       0       0       0       0       0       0       0       0       0       0       0       0       0       0       
      +0       0       0       0       0       0
  7020 ;;      Locals:         4       0       0       0       0       0       0       0       0       0       0       0       
      +0       0       0       0       0       0       0       0       0       0       0       0       0       0       0       
      +0       0       0       0       0       0
  7021 ;;      Temps:          0       0       0       0       0       0       0       0       0       0       0       0       
      +0       0       0       0       0       0       0       0       0       0       0       0       0       0       0       
      +0       0       0       0       0       0
  7022 ;;      Totals:         8       0       0       0       0       0       0       0       0       0       0       0       
      +0       0       0       0       0       0       0       0       0       0       0       0       0       0       0       
      +0       0       0       0       0       0
  7023 ;;Total ram usage:        8 bytes
  7024 ;; Hardware stack levels used:    1
  7025 ;; Hardware stack levels required when called:    2
  7026 ;; This function calls:
  7027 ;;		Nothing
  7028 ;; This function is called by:
  7029 ;;		_efgtoa
  7030 ;; This function uses a non-reentrant model
  7031 ;;
  7032                           
  7033                           	psect	text27
  7034  00486E                     __ptext27:
  7035                           	opt callstack 0
  7036  00486E                     ___awdiv:
  7037                           	opt callstack 23
  7038                           
  7039                           ;incstack = 0
  7040  00486E  0E00               	movlw	0
  7041  004870  6E19               	movwf	___awdiv@sign,c
  7042  004872  AE17               	btfss	___awdiv@divisor+1,7,c
  7043  004874  D006               	goto	l5585
  7044  004876  6C16               	negf	___awdiv@divisor,c
  7045  004878  1E17               	comf	___awdiv@divisor+1,f,c
  7046  00487A  B0D8               	btfsc	status,0,c
  7047  00487C  2A17               	incf	___awdiv@divisor+1,f,c
  7048  00487E  0E01               	movlw	1
  7049  004880  6E19               	movwf	___awdiv@sign,c
  7050  004882                     l5585:
  7051  004882  AE15               	btfss	___awdiv@dividend+1,7,c
  7052  004884  D006               	goto	l5591
  7053  004886  6C14               	negf	___awdiv@dividend,c
  7054  004888  1E15               	comf	___awdiv@dividend+1,f,c
  7055  00488A  B0D8               	btfsc	status,0,c
  7056  00488C  2A15               	incf	___awdiv@dividend+1,f,c
  7057  00488E  0E01               	movlw	1
  7058  004890  1A19               	xorwf	___awdiv@sign,f,c
  7059  004892                     l5591:
  7060  004892  0E00               	movlw	0
  7061  004894  6E1B               	movwf	___awdiv@quotient+1,c
  7062  004896  0E00               	movlw	0
  7063  004898  6E1A               	movwf	___awdiv@quotient,c
  7064  00489A  5016               	movf	___awdiv@divisor,w,c
  7065  00489C  1017               	iorwf	___awdiv@divisor+1,w,c
  7066  00489E  B4D8               	btfsc	status,2,c
  7067  0048A0  D01C               	goto	l5613
  7068  0048A2  0E01               	movlw	1
  7069  0048A4  6E18               	movwf	___awdiv@counter,c
  7070  0048A6  D004               	goto	l5599
  7071  0048A8                     l5597:
  7072  0048A8  90D8               	bcf	status,0,c
  7073  0048AA  3616               	rlcf	___awdiv@divisor,f,c
  7074  0048AC  3617               	rlcf	___awdiv@divisor+1,f,c
  7075  0048AE  2A18               	incf	___awdiv@counter,f,c
  7076  0048B0                     l5599:
  7077  0048B0  AE17               	btfss	___awdiv@divisor+1,7,c
  7078  0048B2  D7FA               	goto	l5597
  7079  0048B4                     u7190:
  7080  0048B4  90D8               	bcf	status,0,c
  7081  0048B6  361A               	rlcf	___awdiv@quotient,f,c
  7082  0048B8  361B               	rlcf	___awdiv@quotient+1,f,c
  7083  0048BA  5016               	movf	___awdiv@divisor,w,c
  7084  0048BC  5C14               	subwf	___awdiv@dividend,w,c
  7085  0048BE  5017               	movf	___awdiv@divisor+1,w,c
  7086  0048C0  5815               	subwfb	___awdiv@dividend+1,w,c
  7087  0048C2  A0D8               	btfss	status,0,c
  7088  0048C4  D005               	goto	l5609
  7089  0048C6  5016               	movf	___awdiv@divisor,w,c
  7090  0048C8  5E14               	subwf	___awdiv@dividend,f,c
  7091  0048CA  5017               	movf	___awdiv@divisor+1,w,c
  7092  0048CC  5A15               	subwfb	___awdiv@dividend+1,f,c
  7093  0048CE  801A               	bsf	___awdiv@quotient,0,c
  7094  0048D0                     l5609:
  7095  0048D0  90D8               	bcf	status,0,c
  7096  0048D2  3217               	rrcf	___awdiv@divisor+1,f,c
  7097  0048D4  3216               	rrcf	___awdiv@divisor,f,c
  7098  0048D6  2E18               	decfsz	___awdiv@counter,f,c
  7099  0048D8  D7ED               	goto	u7190
  7100  0048DA                     l5613:
  7101  0048DA  5019               	movf	___awdiv@sign,w,c
  7102  0048DC  B4D8               	btfsc	status,2,c
  7103  0048DE  D004               	goto	l5617
  7104  0048E0  6C1A               	negf	___awdiv@quotient,c
  7105  0048E2  1E1B               	comf	___awdiv@quotient+1,f,c
  7106  0048E4  B0D8               	btfsc	status,0,c
  7107  0048E6  2A1B               	incf	___awdiv@quotient+1,f,c
  7108  0048E8                     l5617:
  7109  0048E8  0060  F068  F014   	movff	___awdiv@quotient,?___awdiv
  7110  0048EE  0060  F06C  F015   	movff	___awdiv@quotient+1,?___awdiv+1
  7111  0048F4  0012               	return		;funcret
  7112  0048F6                     __end_of___awdiv:
  7113                           	opt callstack 0
  7114                           
  7115 ;; *************** function _memset *****************
  7116 ;; Defined at:
  7117 ;;		line 285 in file "main.c"
  7118 ;; Parameters:    Size  Location     Type
  7119 ;;  st              2   19[COMRAM] PTR unsigned char 
  7120 ;;		 -> tx_buffer(55), 
  7121 ;;  x               1   21[COMRAM] unsigned char 
  7122 ;;  size            2   22[COMRAM] int 
  7123 ;; Auto vars:     Size  Location     Type
  7124 ;;  i               2   25[COMRAM] int 
  7125 ;; Return value:  Size  Location     Type
  7126 ;;                  1    wreg      void 
  7127 ;; Registers used:
  7128 ;;		wreg, fsr2l, fsr2h, status,2, status,0
  7129 ;; Tracked objects:
  7130 ;;		On entry : 0/0
  7131 ;;		On exit  : 0/0
  7132 ;;		Unchanged: 0/0
  7133 ;; Data sizes:     COMRAM   BANK0   BANK1   BANK2   BANK3   BANK4   BANK5   BANK6   BANK7   BANK8   BANK9  BANK10  BANK1
      +1  BANK12  BANK13  BANK14  BANK15  BANK16  BANK17  BANK18  BANK19  BANK20  BANK21  BANK22  BANK23  BANK24  BANK25  BANK2
      +6  BANK27  BANK28  BANK29  BANK30  BANK31
  7134 ;;      Params:         5       0       0       0       0       0       0       0       0       0       0       0       
      +0       0       0       0       0       0       0       0       0       0       0       0       0       0       0       
      +0       0       0       0       0       0
  7135 ;;      Locals:         2       0       0       0       0       0       0       0       0       0       0       0       
      +0       0       0       0       0       0       0       0       0       0       0       0       0       0       0       
      +0       0       0       0       0       0
  7136 ;;      Temps:          1       0       0       0       0       0       0       0       0       0       0       0       
      +0       0       0       0       0       0       0       0       0       0       0       0       0       0       0       
      +0       0       0       0       0       0
  7137 ;;      Totals:         8       0       0       0       0       0       0       0       0       0       0       0       
      +0       0       0       0       0       0       0       0       0       0       0       0       0       0       0       
      +0       0       0       0       0       0
  7138 ;;Total ram usage:        8 bytes
  7139 ;; Hardware stack levels used:    1
  7140 ;; Hardware stack levels required when called:    2
  7141 ;; This function calls:
  7142 ;;		Nothing
  7143 ;; This function is called by:
  7144 ;;		_UART_handler
  7145 ;; This function uses a non-reentrant model
  7146 ;;
  7147                           
  7148                           	psect	text28
  7149  004DA6                     __ptext28:
  7150                           	opt callstack 0
  7151  004DA6                     _memset:
  7152                           	opt callstack 27
  7153                           
  7154                           ;main.c: 286:     for(int i=0;i<size;i++){
  7155                           
  7156                           ;incstack = 0
  7157  004DA6  0E00               	movlw	0
  7158  004DA8  6E1B               	movwf	memset@i+1,c
  7159  004DAA  0E00               	movlw	0
  7160  004DAC  6E1A               	movwf	memset@i,c
  7161  004DAE  D00B               	goto	l4387
  7162  004DB0                     l4383:
  7163                           
  7164                           ;main.c: 287:         st[i] = x;
  7165  004DB0  501A               	movf	memset@i,w,c
  7166  004DB2  2414               	addwf	memset@st,w,c
  7167  004DB4  6ED9               	movwf	fsr2l,c
  7168  004DB6  501B               	movf	memset@i+1,w,c
  7169  004DB8  2015               	addwfc	memset@st+1,w,c
  7170  004DBA  6EDA               	movwf	fsr2h,c
  7171  004DBC  0060  F05B  FFDF   	movff	memset@x,indf2
  7172                           
  7173                           ;main.c: 288:     }
  7174  004DC2  4A1A               	infsnz	memset@i,f,c
  7175  004DC4  2A1B               	incf	memset@i+1,f,c
  7176  004DC6                     l4387:
  7177  004DC6  5017               	movf	memset@size,w,c
  7178  004DC8  5C1A               	subwf	memset@i,w,c
  7179  004DCA  501B               	movf	memset@i+1,w,c
  7180  004DCC  0A80               	xorlw	128
  7181  004DCE  6E19               	movwf	??_memset& (0+255),c
  7182  004DD0  5018               	movf	memset@size+1,w,c
  7183  004DD2  0A80               	xorlw	128
  7184  004DD4  5819               	subwfb	??_memset& (0+255),w,c
  7185  004DD6  B0D8               	btfsc	status,0,c
  7186  004DD8  0012               	return	
  7187  004DDA  D7EA               	goto	l4383
  7188  004DDC                     __end_of_memset:
  7189                           	opt callstack 0
  7190                           
  7191 ;; *************** function _UART1_SendString *****************
  7192 ;; Defined at:
  7193 ;;		line 58 in file "UART1.c"
  7194 ;; Parameters:    Size  Location     Type
  7195 ;;  str             2   23[COMRAM] PTR unsigned char 
  7196 ;;		 -> tx_buffer(55), 
  7197 ;;  size            2   25[COMRAM] int 
  7198 ;; Auto vars:     Size  Location     Type
  7199 ;;  attempts        2   29[COMRAM] unsigned int 
  7200 ;;  i               2   27[COMRAM] unsigned int 
  7201 ;; Return value:  Size  Location     Type
  7202 ;;                  1    wreg      unsigned char 
  7203 ;; Registers used:
  7204 ;;		wreg, fsr2l, fsr2h, status,2, status,0, cstack
  7205 ;; Tracked objects:
  7206 ;;		On entry : 0/0
  7207 ;;		On exit  : 0/0
  7208 ;;		Unchanged: 0/0
  7209 ;; Data sizes:     COMRAM   BANK0   BANK1   BANK2   BANK3   BANK4   BANK5   BANK6   BANK7   BANK8   BANK9  BANK10  BANK1
      +1  BANK12  BANK13  BANK14  BANK15  BANK16  BANK17  BANK18  BANK19  BANK20  BANK21  BANK22  BANK23  BANK24  BANK25  BANK2
      +6  BANK27  BANK28  BANK29  BANK30  BANK31
  7210 ;;      Params:         4       0       0       0       0       0       0       0       0       0       0       0       
      +0       0       0       0       0       0       0       0       0       0       0       0       0       0       0       
      +0       0       0       0       0       0
  7211 ;;      Locals:         4       0       0       0       0       0       0       0       0       0       0       0       
      +0       0       0       0       0       0       0       0       0       0       0       0       0       0       0       
      +0       0       0       0       0       0
  7212 ;;      Temps:          0       0       0       0       0       0       0       0       0       0       0       0       
      +0       0       0       0       0       0       0       0       0       0       0       0       0       0       0       
      +0       0       0       0       0       0
  7213 ;;      Totals:         8       0       0       0       0       0       0       0       0       0       0       0       
      +0       0       0       0       0       0       0       0       0       0       0       0       0       0       0       
      +0       0       0       0       0       0
  7214 ;;Total ram usage:        8 bytes
  7215 ;; Hardware stack levels used:    1
  7216 ;; Hardware stack levels required when called:    3
  7217 ;; This function calls:
  7218 ;;		_UART1_SendByte
  7219 ;; This function is called by:
  7220 ;;		_UART_handler
  7221 ;; This function uses a non-reentrant model
  7222 ;;
  7223                           
  7224                           	psect	text29
  7225  00474C                     __ptext29:
  7226                           	opt callstack 0
  7227  00474C                     _UART1_SendString:
  7228                           	opt callstack 26
  7229                           
  7230                           ;UART1.c: 59:     unsigned int attempts = 65000,i;
  7231                           
  7232                           ;incstack = 0
  7233  00474C  0EFD               	movlw	253
  7234  00474E  6E1F               	movwf	UART1_SendString@attempts+1,c
  7235  004750  0EE8               	movlw	232
  7236  004752  6E1E               	movwf	UART1_SendString@attempts,c
  7237                           
  7238                           ;UART1.c: 60:     for(i=0;i<size;i++){
  7239  004754  0E00               	movlw	0
  7240  004756  6E1D               	movwf	UART1_SendString@i+1,c
  7241  004758  0E00               	movlw	0
  7242  00475A  6E1C               	movwf	UART1_SendString@i,c
  7243  00475C  D01C               	goto	l4437
  7244  00475E                     l4425:
  7245                           
  7246                           ;UART1.c: 61:         if(!UART1_SendByte(*(str + i))){
  7247  00475E  501C               	movf	UART1_SendString@i,w,c
  7248  004760  2418               	addwf	UART1_SendString@str,w,c
  7249  004762  6ED9               	movwf	fsr2l,c
  7250  004764  501D               	movf	UART1_SendString@i+1,w,c
  7251  004766  2019               	addwfc	UART1_SendString@str+1,w,c
  7252  004768  6EDA               	movwf	fsr2h,c
  7253  00476A  50DF               	movf	indf2,w,c
  7254  00476C  EC6F  F027         	call	_UART1_SendByte
  7255  004770  0900               	iorlw	0
  7256  004772  A4D8               	btfss	status,2,c
  7257  004774  D006               	goto	l4429
  7258                           
  7259                           ;UART1.c: 62:             attempts --;
  7260  004776  061E               	decf	UART1_SendString@attempts,f,c
  7261  004778  A0D8               	btfss	status,0,c
  7262  00477A  061F               	decf	UART1_SendString@attempts+1,f,c
  7263                           
  7264                           ;UART1.c: 63:             i --;
  7265  00477C  061C               	decf	UART1_SendString@i,f,c
  7266  00477E  A0D8               	btfss	status,0,c
  7267  004780  061D               	decf	UART1_SendString@i+1,f,c
  7268  004782                     l4429:
  7269                           
  7270                           ;UART1.c: 65:         if(!attempts)
  7271  004782  501E               	movf	UART1_SendString@attempts,w,c
  7272  004784  101F               	iorwf	UART1_SendString@attempts+1,w,c
  7273  004786  B4D8               	btfsc	status,2,c
  7274  004788  0012               	return	
  7275                           
  7276                           ;UART1.c: 67:         attempts = 65000;
  7277  00478A  0EFD               	movlw	253
  7278  00478C  6E1F               	movwf	UART1_SendString@attempts+1,c
  7279  00478E  0EE8               	movlw	232
  7280  004790  6E1E               	movwf	UART1_SendString@attempts,c
  7281                           
  7282                           ;UART1.c: 68:     }
  7283  004792  4A1C               	infsnz	UART1_SendString@i,f,c
  7284  004794  2A1D               	incf	UART1_SendString@i+1,f,c
  7285  004796                     l4437:
  7286  004796  501A               	movf	UART1_SendString@size,w,c
  7287  004798  5C1C               	subwf	UART1_SendString@i,w,c
  7288  00479A  501B               	movf	UART1_SendString@size+1,w,c
  7289  00479C  581D               	subwfb	UART1_SendString@i+1,w,c
  7290  00479E  A0D8               	btfss	status,0,c
  7291  0047A0  D7DE               	goto	l4425
  7292                           
  7293                           ;UART1.c: 69:     attempts =65000;
  7294  0047A2  0EFD               	movlw	253
  7295  0047A4  6E1F               	movwf	UART1_SendString@attempts+1,c
  7296  0047A6  0EE8               	movlw	232
  7297  0047A8  6E1E               	movwf	UART1_SendString@attempts,c
  7298  0047AA                     l4441:
  7299  0047AA  0E0D               	movlw	13
  7300  0047AC  EC6F  F027         	call	_UART1_SendByte
  7301  0047B0  0900               	iorlw	0
  7302  0047B2  A4D8               	btfss	status,2,c
  7303  0047B4  D008               	goto	u5240
  7304  0047B6  061E               	decf	UART1_SendString@attempts,f,c
  7305  0047B8  A0D8               	btfss	status,0,c
  7306  0047BA  061F               	decf	UART1_SendString@attempts+1,f,c
  7307  0047BC  281E               	incf	UART1_SendString@attempts,w,c
  7308  0047BE  E1F5               	bnz	l4441
  7309  0047C0  281F               	incf	UART1_SendString@attempts+1,w,c
  7310  0047C2  A4D8               	btfss	status,2,c
  7311  0047C4  D7F2               	goto	l4441
  7312  0047C6                     u5240:
  7313  0047C6                     l4445:
  7314  0047C6  0E0A               	movlw	10
  7315  0047C8  EC6F  F027         	call	_UART1_SendByte
  7316  0047CC  0900               	iorlw	0
  7317  0047CE  A4D8               	btfss	status,2,c
  7318  0047D0  0012               	return	
  7319  0047D2  061E               	decf	UART1_SendString@attempts,f,c
  7320  0047D4  A0D8               	btfss	status,0,c
  7321  0047D6  061F               	decf	UART1_SendString@attempts+1,f,c
  7322  0047D8  281E               	incf	UART1_SendString@attempts,w,c
  7323  0047DA  E1F5               	bnz	l4445
  7324  0047DC  281F               	incf	UART1_SendString@attempts+1,w,c
  7325  0047DE  B4D8               	btfsc	status,2,c
  7326  0047E0  0012               	return	
  7327  0047E2  D7F1               	goto	u5240
  7328  0047E4                     __end_of_UART1_SendString:
  7329                           	opt callstack 0
  7330                           
  7331 ;; *************** function _UART1_SendByte *****************
  7332 ;; Defined at:
  7333 ;;		line 49 in file "UART1.c"
  7334 ;; Parameters:    Size  Location     Type
  7335 ;;  byte            1    wreg     unsigned char 
  7336 ;; Auto vars:     Size  Location     Type
  7337 ;;  byte            1   19[COMRAM] unsigned char 
  7338 ;; Return value:  Size  Location     Type
  7339 ;;                  1    wreg      unsigned char 
  7340 ;; Registers used:
  7341 ;;		wreg
  7342 ;; Tracked objects:
  7343 ;;		On entry : 0/0
  7344 ;;		On exit  : 0/0
  7345 ;;		Unchanged: 0/0
  7346 ;; Data sizes:     COMRAM   BANK0   BANK1   BANK2   BANK3   BANK4   BANK5   BANK6   BANK7   BANK8   BANK9  BANK10  BANK1
      +1  BANK12  BANK13  BANK14  BANK15  BANK16  BANK17  BANK18  BANK19  BANK20  BANK21  BANK22  BANK23  BANK24  BANK25  BANK2
      +6  BANK27  BANK28  BANK29  BANK30  BANK31
  7347 ;;      Params:         0       0       0       0       0       0       0       0       0       0       0       0       
      +0       0       0       0       0       0       0       0       0       0       0       0       0       0       0       
      +0       0       0       0       0       0
  7348 ;;      Locals:         1       0       0       0       0       0       0       0       0       0       0       0       
      +0       0       0       0       0       0       0       0       0       0       0       0       0       0       0       
      +0       0       0       0       0       0
  7349 ;;      Temps:          0       0       0       0       0       0       0       0       0       0       0       0       
      +0       0       0       0       0       0       0       0       0       0       0       0       0       0       0       
      +0       0       0       0       0       0
  7350 ;;      Totals:         1       0       0       0       0       0       0       0       0       0       0       0       
      +0       0       0       0       0       0       0       0       0       0       0       0       0       0       0       
      +0       0       0       0       0       0
  7351 ;;Total ram usage:        1 bytes
  7352 ;; Hardware stack levels used:    1
  7353 ;; Hardware stack levels required when called:    2
  7354 ;; This function calls:
  7355 ;;		Nothing
  7356 ;; This function is called by:
  7357 ;;		_UART1_SendString
  7358 ;; This function uses a non-reentrant model
  7359 ;;
  7360                           
  7361                           	psect	text30
  7362  004EDE                     __ptext30:
  7363                           	opt callstack 0
  7364  004EDE                     _UART1_SendByte:
  7365                           	opt callstack 26
  7366                           
  7367                           ;incstack = 0
  7368                           ;UART1_SendByte@byte stored from wreg
  7369  004EDE  6E14               	movwf	UART1_SendByte@byte,c
  7370                           
  7371                           ;UART1.c: 50:     if(!PIE3bits.U1TXIE){
  7372  004EE0  0139               	movlb	57	; () banked
  7373  004EE2  B993               	btfsc	147,4,b	;volatile
  7374  004EE4  D006               	goto	l4369
  7375                           
  7376                           ; BSR set to: 57
  7377                           ;UART1.c: 51:         tx_byte = byte;
  7378  004EE6  0060  F050  F04A   	movff	UART1_SendByte@byte,_tx_byte
  7379                           
  7380                           ; BSR set to: 57
  7381                           ;UART1.c: 52:         PIE3bits.U1TXIE = 1;
  7382  004EEC  8993               	bsf	147,4,b	;volatile
  7383                           
  7384                           ;UART1.c: 53:         return 1;
  7385  004EEE  0E01               	movlw	1
  7386  004EF0  0012               	return	
  7387  004EF2                     l4369:
  7388                           
  7389                           ; BSR set to: 57
  7390                           ;UART1.c: 55:     return 0;
  7391  004EF2  0E00               	movlw	0
  7392                           
  7393                           ; BSR set to: 57
  7394  004EF4  0012               	return		;funcret
  7395  004EF6                     __end_of_UART1_SendByte:
  7396                           	opt callstack 0
  7397                           
  7398 ;; *************** function _I2C_handler *****************
  7399 ;; Defined at:
  7400 ;;		line 89 in file "I2C.c"
  7401 ;; Parameters:    Size  Location     Type
  7402 ;;  value           2   31[COMRAM] int 
  7403 ;; Auto vars:     Size  Location     Type
  7404 ;;		None
  7405 ;; Return value:  Size  Location     Type
  7406 ;;                  1    wreg      void 
  7407 ;; Registers used:
  7408 ;;		wreg, fsr1l, fsr1h, fsr2l, fsr2h, status,2, status,0, cstack
  7409 ;; Tracked objects:
  7410 ;;		On entry : 0/0
  7411 ;;		On exit  : 0/0
  7412 ;;		Unchanged: 0/0
  7413 ;; Data sizes:     COMRAM   BANK0   BANK1   BANK2   BANK3   BANK4   BANK5   BANK6   BANK7   BANK8   BANK9  BANK10  BANK1
      +1  BANK12  BANK13  BANK14  BANK15  BANK16  BANK17  BANK18  BANK19  BANK20  BANK21  BANK22  BANK23  BANK24  BANK25  BANK2
      +6  BANK27  BANK28  BANK29  BANK30  BANK31
  7414 ;;      Params:         2       0       0       0       0       0       0       0       0       0       0       0       
      +0       0       0       0       0       0       0       0       0       0       0       0       0       0       0       
      +0       0       0       0       0       0
  7415 ;;      Locals:         0       0       0       0       0       0       0       0       0       0       0       0       
      +0       0       0       0       0       0       0       0       0       0       0       0       0       0       0       
      +0       0       0       0       0       0
  7416 ;;      Temps:          0       0       0       0       0       0       0       0       0       0       0       0       
      +0       0       0       0       0       0       0       0       0       0       0       0       0       0       0       
      +0       0       0       0       0       0
  7417 ;;      Totals:         2       0       0       0       0       0       0       0       0       0       0       0       
      +0       0       0       0       0       0       0       0       0       0       0       0       0       0       0       
      +0       0       0       0       0       0
  7418 ;;Total ram usage:        2 bytes
  7419 ;; Hardware stack levels used:    1
  7420 ;; Hardware stack levels required when called:    3
  7421 ;; This function calls:
  7422 ;;		_I2C_Transmit
  7423 ;; This function is called by:
  7424 ;;		_UART_handler
  7425 ;; This function uses a non-reentrant model
  7426 ;;
  7427                           
  7428                           	psect	text31
  7429  004E70                     __ptext31:
  7430                           	opt callstack 0
  7431  004E70                     _I2C_handler:
  7432                           	opt callstack 26
  7433                           
  7434                           ;I2C.c: 90:     AD5272_COMMANDS[0] = (unsigned char)(AD5272_COMMANDS[0] | (value >> 8));
  7435                           
  7436                           ; BSR set to: 57
  7437                           ;incstack = 0
  7438  004E70  5021               	movf	I2C_handler@value+1,w,c
  7439  004E72  0100               	movlb	0	; () banked
  7440  004E74  11FB               	iorwf	_AD5272_COMMANDS& (0+255),w,b
  7441  004E76  6FFB               	movwf	_AD5272_COMMANDS& (0+255),b
  7442                           
  7443                           ; BSR set to: 0
  7444                           ;I2C.c: 91:     AD5272_COMMANDS[1] = (unsigned char)value;
  7445  004E78  0060  F080  F0FC   	movff	I2C_handler@value,_AD5272_COMMANDS+1
  7446                           
  7447                           ; BSR set to: 0
  7448  004E7E  0EFB               	movlw	low _AD5272_COMMANDS
  7449  004E80  6E14               	movwf	I2C_Transmit@buffer,c
  7450  004E82  0E00               	movlw	high _AD5272_COMMANDS
  7451  004E84  6E15               	movwf	I2C_Transmit@buffer+1,c
  7452  004E86  0E02               	movlw	2
  7453  004E88  6E16               	movwf	I2C_Transmit@buffer_size,c
  7454  004E8A  0E5E               	movlw	94
  7455  004E8C  6E17               	movwf	I2C_Transmit@address,c
  7456  004E8E  EC07  F023         	call	_I2C_Transmit	;wreg free
  7457  004E92                     l4407:
  7458  004E92  0100               	movlb	0	; () banked
  7459  004E94  51F8               	movf	_I2C_STOP_DETECTED& (0+255),w,b
  7460  004E96  A4D8               	btfss	status,2,c
  7461  004E98  0012               	return	
  7462  004E9A  D7FB               	goto	l4407
  7463  004E9C                     __end_of_I2C_handler:
  7464                           	opt callstack 0
  7465                           
  7466 ;; *************** function _I2C_Transmit *****************
  7467 ;; Defined at:
  7468 ;;		line 49 in file "I2C.c"
  7469 ;; Parameters:    Size  Location     Type
  7470 ;;  buffer          2   19[COMRAM] PTR unsigned char 
  7471 ;;		 -> AD5272_COMMANDS(2), 
  7472 ;;  buffer_size     1   21[COMRAM] unsigned char 
  7473 ;;  address         1   22[COMRAM] unsigned char 
  7474 ;; Auto vars:     Size  Location     Type
  7475 ;;  i               1   30[COMRAM] unsigned char 
  7476 ;; Return value:  Size  Location     Type
  7477 ;;                  1    wreg      unsigned char 
  7478 ;; Registers used:
  7479 ;;		wreg, fsr1l, fsr1h, fsr2l, fsr2h, status,2, status,0
  7480 ;; Tracked objects:
  7481 ;;		On entry : 0/0
  7482 ;;		On exit  : 0/0
  7483 ;;		Unchanged: 0/0
  7484 ;; Data sizes:     COMRAM   BANK0   BANK1   BANK2   BANK3   BANK4   BANK5   BANK6   BANK7   BANK8   BANK9  BANK10  BANK1
      +1  BANK12  BANK13  BANK14  BANK15  BANK16  BANK17  BANK18  BANK19  BANK20  BANK21  BANK22  BANK23  BANK24  BANK25  BANK2
      +6  BANK27  BANK28  BANK29  BANK30  BANK31
  7485 ;;      Params:         4       0       0       0       0       0       0       0       0       0       0       0       
      +0       0       0       0       0       0       0       0       0       0       0       0       0       0       0       
      +0       0       0       0       0       0
  7486 ;;      Locals:         1       0       0       0       0       0       0       0       0       0       0       0       
      +0       0       0       0       0       0       0       0       0       0       0       0       0       0       0       
      +0       0       0       0       0       0
  7487 ;;      Temps:          7       0       0       0       0       0       0       0       0       0       0       0       
      +0       0       0       0       0       0       0       0       0       0       0       0       0       0       0       
      +0       0       0       0       0       0
  7488 ;;      Totals:        12       0       0       0       0       0       0       0       0       0       0       0       
      +0       0       0       0       0       0       0       0       0       0       0       0       0       0       0       
      +0       0       0       0       0       0
  7489 ;;Total ram usage:       12 bytes
  7490 ;; Hardware stack levels used:    1
  7491 ;; Hardware stack levels required when called:    2
  7492 ;; This function calls:
  7493 ;;		Nothing
  7494 ;; This function is called by:
  7495 ;;		_main
  7496 ;;		_I2C_handler
  7497 ;; This function uses a non-reentrant model
  7498 ;;
  7499                           
  7500                           	psect	text32
  7501  00460E                     __ptext32:
  7502                           	opt callstack 0
  7503  00460E                     _I2C_Transmit:
  7504                           	opt callstack 26
  7505                           
  7506                           ;I2C.c: 50:     if(I2C_STOP_DETECTED && I2C1STAT0bits.BFRE && I2C1CNT == 0){
  7507                           
  7508                           ; BSR set to: 0
  7509                           ;incstack = 0
  7510  00460E  0100               	movlb	0	; () banked
  7511  004610  51F8               	movf	_I2C_STOP_DETECTED& (0+255),w,b
  7512  004612  B4D8               	btfsc	status,2,c
  7513  004614  0012               	return	
  7514                           
  7515                           ; BSR set to: 0
  7516  004616  013D               	movlb	61	; () banked
  7517  004618  AF77               	btfss	119,7,b	;volatile
  7518  00461A  0012               	return	
  7519                           
  7520                           ; BSR set to: 61
  7521  00461C  516C               	movf	108,w,b	;volatile
  7522  00461E  A4D8               	btfss	status,2,c
  7523  004620  0012               	return	
  7524                           
  7525                           ; BSR set to: 61
  7526                           ;I2C.c: 51:         I2C_STOP_DETECTED = 0;
  7527  004622  0E00               	movlw	0
  7528  004624  0100               	movlb	0	; () banked
  7529  004626  6FF8               	movwf	_I2C_STOP_DETECTED& (0+255),b
  7530                           
  7531                           ;I2C.c: 52:         for(unsigned char i=0;i<(buffer_size-1);i++){
  7532  004628  0E00               	movlw	0
  7533  00462A  6E1F               	movwf	I2C_Transmit@i,c
  7534  00462C  D016               	goto	l4351
  7535  00462E                     l4347:
  7536                           
  7537                           ;I2C.c: 53:             I2C_TX_BUFFER[i] = buffer[i+1];
  7538  00462E  501F               	movf	I2C_Transmit@i,w,c
  7539  004630  2414               	addwf	I2C_Transmit@buffer,w,c
  7540  004632  6E18               	movwf	??_I2C_Transmit& (0+255),c
  7541  004634  0E00               	movlw	0
  7542  004636  2015               	addwfc	I2C_Transmit@buffer+1,w,c
  7543  004638  6E19               	movwf	(??_I2C_Transmit+1)& (0+255),c
  7544  00463A  0E01               	movlw	1
  7545  00463C  2418               	addwf	??_I2C_Transmit,w,c
  7546  00463E  6ED9               	movwf	fsr2l,c
  7547  004640  0E00               	movlw	0
  7548  004642  2019               	addwfc	??_I2C_Transmit+1,w,c
  7549  004644  6EDA               	movwf	fsr2h,c
  7550  004646  0EDD               	movlw	low _I2C_TX_BUFFER
  7551  004648  241F               	addwf	I2C_Transmit@i,w,c
  7552  00464A  6EE1               	movwf	fsr1l,c
  7553  00464C  6AE2               	clrf	fsr1h,c
  7554  00464E  0E00               	movlw	high _I2C_TX_BUFFER
  7555  004650  22E2               	addwfc	fsr1h,f,c
  7556  004652  006F FF7F FFE7     	movff	indf2,indf1
  7557                           
  7558                           ;I2C.c: 54:         }
  7559  004658  2A1F               	incf	I2C_Transmit@i,f,c
  7560  00465A                     l4351:
  7561  00465A  0EFF               	movlw	255
  7562  00465C  6E18               	movwf	??_I2C_Transmit& (0+255),c
  7563  00465E  0EFF               	movlw	255
  7564  004660  6E19               	movwf	(??_I2C_Transmit+1)& (0+255),c
  7565  004662  5016               	movf	I2C_Transmit@buffer_size,w,c
  7566  004664  6E1A               	movwf	(??_I2C_Transmit+2)& (0+255),c
  7567  004666  6A1B               	clrf	(??_I2C_Transmit+3)& (0+255),c
  7568  004668  5018               	movf	??_I2C_Transmit,w,c
  7569  00466A  261A               	addwf	??_I2C_Transmit+2,f,c
  7570  00466C  5019               	movf	??_I2C_Transmit+1,w,c
  7571  00466E  221B               	addwfc	??_I2C_Transmit+3,f,c
  7572  004670  501F               	movf	I2C_Transmit@i,w,c
  7573  004672  6E1C               	movwf	(??_I2C_Transmit+4)& (0+255),c
  7574  004674  6A1D               	clrf	(??_I2C_Transmit+5)& (0+255),c
  7575  004676  501A               	movf	??_I2C_Transmit+2,w,c
  7576  004678  5C1C               	subwf	??_I2C_Transmit+4,w,c
  7577  00467A  501D               	movf	??_I2C_Transmit+5,w,c
  7578  00467C  0A80               	xorlw	128
  7579  00467E  6E1E               	movwf	(??_I2C_Transmit+6)& (0+255),c
  7580  004680  501B               	movf	??_I2C_Transmit+3,w,c
  7581  004682  0A80               	xorlw	128
  7582  004684  581E               	subwfb	(??_I2C_Transmit+6)& (0+255),w,c
  7583  004686  A0D8               	btfss	status,0,c
  7584  004688  D7D2               	goto	l4347
  7585                           
  7586                           ;I2C.c: 55:         I2C1ADB1 = address;
  7587  00468A  0060  F05F  FD6E   	movff	I2C_Transmit@address,15726	;volatile
  7588                           
  7589                           ;I2C.c: 56:         I2C1CNT = buffer_size;
  7590  004690  0060  F05B  FD6C   	movff	I2C_Transmit@buffer_size,15724	;volatile
  7591                           
  7592                           ;I2C.c: 57:         I2C1TXB = buffer[0];
  7593  004696  0060  F053  FFD9   	movff	I2C_Transmit@buffer,fsr2l
  7594  00469C  0060  F057  FFDA   	movff	I2C_Transmit@buffer+1,fsr2h
  7595  0046A2  50DF               	movf	indf2,w,c
  7596  0046A4  013D               	movlb	61	; () banked
  7597  0046A6  6F6B               	movwf	107,b	;volatile
  7598                           
  7599                           ; BSR set to: 61
  7600                           ;I2C.c: 58:         I2C_TX_COUNTER = 0;
  7601  0046A8  0E00               	movlw	0
  7602  0046AA  6E49               	movwf	_I2C_TX_COUNTER,c
  7603                           
  7604                           ; BSR set to: 61
  7605                           ;I2C.c: 59:         I2C1CON0bits.S = 1;
  7606  0046AC  8B73               	bsf	115,5,b	;volatile
  7607  0046AE  0012               	return		;funcret
  7608  0046B0                     __end_of_I2C_Transmit:
  7609                           	opt callstack 0
  7610                           
  7611 ;; *************** function _GetStringSize *****************
  7612 ;; Defined at:
  7613 ;;		line 275 in file "main.c"
  7614 ;; Parameters:    Size  Location     Type
  7615 ;;		None
  7616 ;; Auto vars:     Size  Location     Type
  7617 ;;  i               2   21[COMRAM] int 
  7618 ;; Return value:  Size  Location     Type
  7619 ;;                  2   19[COMRAM] int 
  7620 ;; Registers used:
  7621 ;;		wreg, fsr2l, fsr2h, status,2, status,0
  7622 ;; Tracked objects:
  7623 ;;		On entry : 0/0
  7624 ;;		On exit  : 0/0
  7625 ;;		Unchanged: 0/0
  7626 ;; Data sizes:     COMRAM   BANK0   BANK1   BANK2   BANK3   BANK4   BANK5   BANK6   BANK7   BANK8   BANK9  BANK10  BANK1
      +1  BANK12  BANK13  BANK14  BANK15  BANK16  BANK17  BANK18  BANK19  BANK20  BANK21  BANK22  BANK23  BANK24  BANK25  BANK2
      +6  BANK27  BANK28  BANK29  BANK30  BANK31
  7627 ;;      Params:         2       0       0       0       0       0       0       0       0       0       0       0       
      +0       0       0       0       0       0       0       0       0       0       0       0       0       0       0       
      +0       0       0       0       0       0
  7628 ;;      Locals:         2       0       0       0       0       0       0       0       0       0       0       0       
      +0       0       0       0       0       0       0       0       0       0       0       0       0       0       0       
      +0       0       0       0       0       0
  7629 ;;      Temps:          0       0       0       0       0       0       0       0       0       0       0       0       
      +0       0       0       0       0       0       0       0       0       0       0       0       0       0       0       
      +0       0       0       0       0       0
  7630 ;;      Totals:         4       0       0       0       0       0       0       0       0       0       0       0       
      +0       0       0       0       0       0       0       0       0       0       0       0       0       0       0       
      +0       0       0       0       0       0
  7631 ;;Total ram usage:        4 bytes
  7632 ;; Hardware stack levels used:    1
  7633 ;; Hardware stack levels required when called:    2
  7634 ;; This function calls:
  7635 ;;		Nothing
  7636 ;; This function is called by:
  7637 ;;		_UART_handler
  7638 ;; This function uses a non-reentrant model
  7639 ;;
  7640                           
  7641                           	psect	text33
  7642  004D34                     __ptext33:
  7643                           	opt callstack 0
  7644  004D34                     _GetStringSize:
  7645                           	opt callstack 27
  7646                           
  7647                           ;main.c: 276:     int i;;main.c: 277:     for(i=0;i<55;i++){
  7648                           
  7649                           ;incstack = 0
  7650  004D34  0E00               	movlw	0
  7651  004D36  6E17               	movwf	GetStringSize@i+1,c
  7652  004D38  0E00               	movlw	0
  7653  004D3A  6E16               	movwf	GetStringSize@i,c
  7654  004D3C                     l4415:
  7655                           
  7656                           ;main.c: 278:         if(tx_buffer[i] == 0){
  7657  004D3C  0E70               	movlw	low _tx_buffer
  7658  004D3E  2416               	addwf	GetStringSize@i,w,c
  7659  004D40  6ED9               	movwf	fsr2l,c
  7660  004D42  0E01               	movlw	high _tx_buffer
  7661  004D44  2017               	addwfc	GetStringSize@i+1,w,c
  7662  004D46  6EDA               	movwf	fsr2h,c
  7663  004D48  50DF               	movf	indf2,w,c
  7664  004D4A  B4D8               	btfsc	status,2,c
  7665  004D4C  D00A               	goto	u5190
  7666                           
  7667                           ;main.c: 281:     }
  7668  004D4E  4A16               	infsnz	GetStringSize@i,f,c
  7669  004D50  2A17               	incf	GetStringSize@i+1,f,c
  7670  004D52  BE17               	btfsc	GetStringSize@i+1,7,c
  7671  004D54  D7F3               	goto	l4415
  7672  004D56  5017               	movf	GetStringSize@i+1,w,c
  7673  004D58  E104               	bnz	u5190
  7674  004D5A  0E37               	movlw	55
  7675  004D5C  5C16               	subwf	GetStringSize@i,w,c
  7676  004D5E  A0D8               	btfss	status,0,c
  7677  004D60  D7ED               	goto	l4415
  7678  004D62                     u5190:
  7679                           
  7680                           ;main.c: 282:     return i;
  7681  004D62  0060  F058  F014   	movff	GetStringSize@i,?_GetStringSize
  7682  004D68  0060  F05C  F015   	movff	GetStringSize@i+1,?_GetStringSize+1
  7683  004D6E  0012               	return		;funcret
  7684  004D70                     __end_of_GetStringSize:
  7685                           	opt callstack 0
  7686                           
  7687 ;; *************** function _UART1_ReceiveCommand *****************
  7688 ;; Defined at:
  7689 ;;		line 84 in file "UART1.c"
  7690 ;; Parameters:    Size  Location     Type
  7691 ;;		None
  7692 ;; Auto vars:     Size  Location     Type
  7693 ;;		None
  7694 ;; Return value:  Size  Location     Type
  7695 ;;                  1    wreg      unsigned char 
  7696 ;; Registers used:
  7697 ;;		wreg, status,2, status,0, prodl, prodh, cstack
  7698 ;; Tracked objects:
  7699 ;;		On entry : 0/0
  7700 ;;		On exit  : 0/0
  7701 ;;		Unchanged: 0/0
  7702 ;; Data sizes:     COMRAM   BANK0   BANK1   BANK2   BANK3   BANK4   BANK5   BANK6   BANK7   BANK8   BANK9  BANK10  BANK1
      +1  BANK12  BANK13  BANK14  BANK15  BANK16  BANK17  BANK18  BANK19  BANK20  BANK21  BANK22  BANK23  BANK24  BANK25  BANK2
      +6  BANK27  BANK28  BANK29  BANK30  BANK31
  7703 ;;      Params:         0       0       0       0       0       0       0       0       0       0       0       0       
      +0       0       0       0       0       0       0       0       0       0       0       0       0       0       0       
      +0       0       0       0       0       0
  7704 ;;      Locals:         0       0       0       0       0       0       0       0       0       0       0       0       
      +0       0       0       0       0       0       0       0       0       0       0       0       0       0       0       
      +0       0       0       0       0       0
  7705 ;;      Temps:          2       0       0       0       0       0       0       0       0       0       0       0       
      +0       0       0       0       0       0       0       0       0       0       0       0       0       0       0       
      +0       0       0       0       0       0
  7706 ;;      Totals:         2       0       0       0       0       0       0       0       0       0       0       0       
      +0       0       0       0       0       0       0       0       0       0       0       0       0       0       0       
      +0       0       0       0       0       0
  7707 ;;Total ram usage:        2 bytes
  7708 ;; Hardware stack levels used:    1
  7709 ;; Hardware stack levels required when called:    3
  7710 ;; This function calls:
  7711 ;;		___wmul
  7712 ;; This function is called by:
  7713 ;;		_main
  7714 ;; This function uses a non-reentrant model
  7715 ;;
  7716                           
  7717                           	psect	text34
  7718  003D64                     __ptext34:
  7719                           	opt callstack 0
  7720  003D64                     _UART1_ReceiveCommand:
  7721                           	opt callstack 27
  7722                           
  7723                           ;UART1.c: 85:     if(rx_counter == 0)
  7724                           
  7725                           ;incstack = 0
  7726  003D64  504B               	movf	_rx_counter,w,c
  7727  003D66  A4D8               	btfss	status,2,c
  7728  003D68  D002               	goto	l4551
  7729  003D6A                     u5280:
  7730                           
  7731                           ;UART1.c: 86:         return 0;
  7732  003D6A  0E00               	movlw	0
  7733  003D6C  0012               	return	
  7734  003D6E                     l4551:
  7735                           
  7736                           ;UART1.c: 87:     if(rx_counter == 1 && rx_buffer[0] != 'W' && rx_buffer[0] != 'R'){
  7737  003D6E  044B               	decf	_rx_counter,w,c
  7738  003D70  A4D8               	btfss	status,2,c
  7739  003D72  D00C               	goto	l4563
  7740  003D74  0E57               	movlw	87
  7741  003D76  0101               	movlb	1	; () banked
  7742  003D78  1900               	xorwf	_rx_buffer& (0+255),w,b
  7743  003D7A  B4D8               	btfsc	status,2,c
  7744  003D7C  D007               	goto	l4563
  7745                           
  7746                           ; BSR set to: 1
  7747  003D7E  0E52               	movlw	82
  7748  003D80  1900               	xorwf	_rx_buffer& (0+255),w,b
  7749  003D82  B4D8               	btfsc	status,2,c
  7750  003D84  D003               	goto	l4563
  7751  003D86                     u5310:
  7752                           
  7753                           ; BSR set to: 1
  7754                           ;UART1.c: 88:         rx_counter = 0;
  7755  003D86  0E00               	movlw	0
  7756  003D88  6E4B               	movwf	_rx_counter,c
  7757  003D8A  D7EF               	goto	u5280
  7758  003D8C                     l4563:
  7759                           
  7760                           ;UART1.c: 91:     if(rx_buffer[0] == 'R') {
  7761  003D8C  0E52               	movlw	82
  7762  003D8E  0101               	movlb	1	; () banked
  7763  003D90  1900               	xorwf	_rx_buffer& (0+255),w,b
  7764  003D92  A4D8               	btfss	status,2,c
  7765  003D94  D035               	goto	l4607
  7766                           
  7767                           ; BSR set to: 1
  7768                           ;UART1.c: 92:         if(rx_counter == 2 && ((rx_buffer[1] < 48) || (rx_buffer[1] > 57))
      +                          ){
  7769  003D96  0E02               	movlw	2
  7770  003D98  184B               	xorwf	_rx_counter,w,c
  7771  003D9A  A4D8               	btfss	status,2,c
  7772  003D9C  D007               	goto	l4573
  7773                           
  7774                           ; BSR set to: 1
  7775  003D9E  0E2F               	movlw	47
  7776  003DA0  6501               	cpfsgt	(_rx_buffer+1)& (0+255),b
  7777  003DA2  D7F1               	goto	u5310
  7778                           
  7779                           ; BSR set to: 1
  7780  003DA4  0E39               	movlw	57
  7781  003DA6  6501               	cpfsgt	(_rx_buffer+1)& (0+255),b
  7782  003DA8  D001               	goto	l4573
  7783  003DAA  D7ED               	goto	u5310
  7784  003DAC                     l4573:
  7785                           
  7786                           ; BSR set to: 1
  7787  003DAC  0E03               	movlw	3
  7788  003DAE  184B               	xorwf	_rx_counter,w,c
  7789  003DB0  A4D8               	btfss	status,2,c
  7790  003DB2  D004               	goto	l4579
  7791                           
  7792                           ; BSR set to: 1
  7793  003DB4  0E0D               	movlw	13
  7794  003DB6  1902               	xorwf	(_rx_buffer+2)& (0+255),w,b
  7795  003DB8  A4D8               	btfss	status,2,c
  7796  003DBA  D7E5               	goto	u5310
  7797  003DBC                     l4579:
  7798                           
  7799                           ; BSR set to: 1
  7800  003DBC  0E04               	movlw	4
  7801  003DBE  184B               	xorwf	_rx_counter,w,c
  7802  003DC0  A4D8               	btfss	status,2,c
  7803  003DC2  D7D3               	goto	u5280
  7804                           
  7805                           ; BSR set to: 1
  7806                           ;UART1.c: 97:             if(rx_buffer[0] != 'R' || (rx_buffer[1] < 48) || (rx_buffer[1]
      +                           > 57) || rx_buffer[2] != '\r' || rx_buffer[3] != '\n'){
  7807  003DC4  0E52               	movlw	82
  7808  003DC6  1900               	xorwf	_rx_buffer& (0+255),w,b
  7809  003DC8  A4D8               	btfss	status,2,c
  7810  003DCA  D7DD               	goto	u5310
  7811                           
  7812                           ; BSR set to: 1
  7813  003DCC  0E2F               	movlw	47
  7814  003DCE  6501               	cpfsgt	(_rx_buffer+1)& (0+255),b
  7815  003DD0  D7DA               	goto	u5310
  7816                           
  7817                           ; BSR set to: 1
  7818  003DD2  0E3A               	movlw	58
  7819  003DD4  6101               	cpfslt	(_rx_buffer+1)& (0+255),b
  7820  003DD6  D7D7               	goto	u5310
  7821                           
  7822                           ; BSR set to: 1
  7823  003DD8  0E0D               	movlw	13
  7824  003DDA  1902               	xorwf	(_rx_buffer+2)& (0+255),w,b
  7825  003DDC  A4D8               	btfss	status,2,c
  7826  003DDE  D7D3               	goto	u5310
  7827                           
  7828                           ; BSR set to: 1
  7829  003DE0  0E0A               	movlw	10
  7830  003DE2  1903               	xorwf	(_rx_buffer+3)& (0+255),w,b
  7831  003DE4  A4D8               	btfss	status,2,c
  7832  003DE6  D7CF               	goto	u5310
  7833                           
  7834                           ; BSR set to: 1
  7835                           ;UART1.c: 101:             COMMAND_WR = 1;
  7836  003DE8  0E01               	movlw	1
  7837  003DEA  0100               	movlb	0	; () banked
  7838  003DEC  6FFA               	movwf	_COMMAND_WR& (0+255),b
  7839                           
  7840                           ; BSR set to: 0
  7841                           ;UART1.c: 102:             COMMAND = rx_buffer[1]-48;
  7842  003DEE  0101               	movlb	1	; () banked
  7843  003DF0  5101               	movf	(_rx_buffer+1)& (0+255),w,b
  7844  003DF2  0FD0               	addlw	208
  7845  003DF4  0100               	movlb	0	; () banked
  7846  003DF6  6FF9               	movwf	_COMMAND& (0+255),b
  7847  003DF8                     l4601:
  7848                           
  7849                           ; BSR set to: 0
  7850                           ;UART1.c: 103:             rx_counter = 0;
  7851  003DF8  0E00               	movlw	0
  7852  003DFA  6E4B               	movwf	_rx_counter,c
  7853                           
  7854                           ; BSR set to: 0
  7855                           ;UART1.c: 104:             return 1;
  7856  003DFC  0E01               	movlw	1
  7857  003DFE  0012               	return	
  7858  003E00                     l4607:
  7859                           
  7860                           ; BSR set to: 1
  7861  003E00  0E57               	movlw	87
  7862  003E02  1900               	xorwf	_rx_buffer& (0+255),w,b
  7863  003E04  A4D8               	btfss	status,2,c
  7864  003E06  D7B1               	goto	u5280
  7865                           
  7866                           ; BSR set to: 1
  7867                           ;UART1.c: 107:         if(rx_counter == 2 && ((rx_buffer[1] < 48) || (rx_buffer[1] > 57)
      +                          )){
  7868  003E08  0E02               	movlw	2
  7869  003E0A  184B               	xorwf	_rx_counter,w,c
  7870  003E0C  A4D8               	btfss	status,2,c
  7871  003E0E  D007               	goto	l4617
  7872                           
  7873                           ; BSR set to: 1
  7874  003E10  0E2F               	movlw	47
  7875  003E12  6501               	cpfsgt	(_rx_buffer+1)& (0+255),b
  7876  003E14  D7B8               	goto	u5310
  7877                           
  7878                           ; BSR set to: 1
  7879  003E16  0E39               	movlw	57
  7880  003E18  6501               	cpfsgt	(_rx_buffer+1)& (0+255),b
  7881  003E1A  D001               	goto	l4617
  7882  003E1C  D7B4               	goto	u5310
  7883  003E1E                     l4617:
  7884                           
  7885                           ; BSR set to: 1
  7886  003E1E  0E03               	movlw	3
  7887  003E20  184B               	xorwf	_rx_counter,w,c
  7888  003E22  A4D8               	btfss	status,2,c
  7889  003E24  D007               	goto	l4625
  7890                           
  7891                           ; BSR set to: 1
  7892  003E26  0E2F               	movlw	47
  7893  003E28  6502               	cpfsgt	(_rx_buffer+2)& (0+255),b
  7894  003E2A  D7AD               	goto	u5310
  7895                           
  7896                           ; BSR set to: 1
  7897  003E2C  0E39               	movlw	57
  7898  003E2E  6502               	cpfsgt	(_rx_buffer+2)& (0+255),b
  7899  003E30  D001               	goto	l4625
  7900  003E32  D7A9               	goto	u5310
  7901  003E34                     l4625:
  7902                           
  7903                           ; BSR set to: 1
  7904  003E34  0E04               	movlw	4
  7905  003E36  184B               	xorwf	_rx_counter,w,c
  7906  003E38  A4D8               	btfss	status,2,c
  7907  003E3A  D007               	goto	l4633
  7908                           
  7909                           ; BSR set to: 1
  7910  003E3C  0E2F               	movlw	47
  7911  003E3E  6503               	cpfsgt	(_rx_buffer+3)& (0+255),b
  7912  003E40  D7A2               	goto	u5310
  7913                           
  7914                           ; BSR set to: 1
  7915  003E42  0E39               	movlw	57
  7916  003E44  6503               	cpfsgt	(_rx_buffer+3)& (0+255),b
  7917  003E46  D001               	goto	l4633
  7918  003E48  D79E               	goto	u5310
  7919  003E4A                     l4633:
  7920                           
  7921                           ; BSR set to: 1
  7922  003E4A  0E05               	movlw	5
  7923  003E4C  184B               	xorwf	_rx_counter,w,c
  7924  003E4E  A4D8               	btfss	status,2,c
  7925  003E50  D007               	goto	l4641
  7926                           
  7927                           ; BSR set to: 1
  7928  003E52  0E2F               	movlw	47
  7929  003E54  6504               	cpfsgt	(_rx_buffer+4)& (0+255),b
  7930  003E56  D797               	goto	u5310
  7931                           
  7932                           ; BSR set to: 1
  7933  003E58  0E39               	movlw	57
  7934  003E5A  6504               	cpfsgt	(_rx_buffer+4)& (0+255),b
  7935  003E5C  D001               	goto	l4641
  7936  003E5E  D793               	goto	u5310
  7937  003E60                     l4641:
  7938                           
  7939                           ; BSR set to: 1
  7940  003E60  0E06               	movlw	6
  7941  003E62  184B               	xorwf	_rx_counter,w,c
  7942  003E64  A4D8               	btfss	status,2,c
  7943  003E66  D007               	goto	l4649
  7944                           
  7945                           ; BSR set to: 1
  7946  003E68  0E2F               	movlw	47
  7947  003E6A  6505               	cpfsgt	(_rx_buffer+5)& (0+255),b
  7948  003E6C  D78C               	goto	u5310
  7949                           
  7950                           ; BSR set to: 1
  7951  003E6E  0E39               	movlw	57
  7952  003E70  6505               	cpfsgt	(_rx_buffer+5)& (0+255),b
  7953  003E72  D001               	goto	l4649
  7954  003E74  D788               	goto	u5310
  7955  003E76                     l4649:
  7956                           
  7957                           ; BSR set to: 1
  7958  003E76  0E07               	movlw	7
  7959  003E78  184B               	xorwf	_rx_counter,w,c
  7960  003E7A  A4D8               	btfss	status,2,c
  7961  003E7C  D004               	goto	l4655
  7962                           
  7963                           ; BSR set to: 1
  7964  003E7E  0E0D               	movlw	13
  7965  003E80  1906               	xorwf	(_rx_buffer+6)& (0+255),w,b
  7966  003E82  A4D8               	btfss	status,2,c
  7967  003E84  D780               	goto	u5310
  7968  003E86                     l4655:
  7969                           
  7970                           ; BSR set to: 1
  7971  003E86  0E08               	movlw	8
  7972  003E88  184B               	xorwf	_rx_counter,w,c
  7973  003E8A  A4D8               	btfss	status,2,c
  7974  003E8C  D76E               	goto	u5280
  7975                           
  7976                           ; BSR set to: 1
  7977                           ;UART1.c: 120:             if(rx_buffer[0] != 'W' || (rx_buffer[1] < 48) || (rx_buffer[1
      +                          ] > 57) || (rx_buffer[2] < 48) || (rx_buffer[2] > 57) || (rx_buffer[3] < 48) || (rx_buff
      +                          er[3] > 57) || (rx_buffer[4] < 48) || (rx_buffer[4] > 57) || (rx_buffer[5] < 48) || (rx_
      +                          buffer[5] > 57) || rx_buffer[6] != '\r' || rx_buffer[7] != '\n'){
  7978  003E8E  0E57               	movlw	87
  7979  003E90  1900               	xorwf	_rx_buffer& (0+255),w,b
  7980  003E92  A4D8               	btfss	status,2,c
  7981  003E94  D778               	goto	u5310
  7982                           
  7983                           ; BSR set to: 1
  7984  003E96  0E2F               	movlw	47
  7985  003E98  6501               	cpfsgt	(_rx_buffer+1)& (0+255),b
  7986  003E9A  D775               	goto	u5310
  7987                           
  7988                           ; BSR set to: 1
  7989  003E9C  0E3A               	movlw	58
  7990  003E9E  6101               	cpfslt	(_rx_buffer+1)& (0+255),b
  7991  003EA0  D772               	goto	u5310
  7992                           
  7993                           ; BSR set to: 1
  7994  003EA2  0E2F               	movlw	47
  7995  003EA4  6502               	cpfsgt	(_rx_buffer+2)& (0+255),b
  7996  003EA6  D76F               	goto	u5310
  7997                           
  7998                           ; BSR set to: 1
  7999  003EA8  0E3A               	movlw	58
  8000  003EAA  6102               	cpfslt	(_rx_buffer+2)& (0+255),b
  8001  003EAC  D76C               	goto	u5310
  8002                           
  8003                           ; BSR set to: 1
  8004  003EAE  0E2F               	movlw	47
  8005  003EB0  6503               	cpfsgt	(_rx_buffer+3)& (0+255),b
  8006  003EB2  D769               	goto	u5310
  8007                           
  8008                           ; BSR set to: 1
  8009  003EB4  0E3A               	movlw	58
  8010  003EB6  6103               	cpfslt	(_rx_buffer+3)& (0+255),b
  8011  003EB8  D766               	goto	u5310
  8012                           
  8013                           ; BSR set to: 1
  8014  003EBA  0E2F               	movlw	47
  8015  003EBC  6504               	cpfsgt	(_rx_buffer+4)& (0+255),b
  8016  003EBE  D763               	goto	u5310
  8017                           
  8018                           ; BSR set to: 1
  8019  003EC0  0E3A               	movlw	58
  8020  003EC2  6104               	cpfslt	(_rx_buffer+4)& (0+255),b
  8021  003EC4  D760               	goto	u5310
  8022                           
  8023                           ; BSR set to: 1
  8024  003EC6  0E2F               	movlw	47
  8025  003EC8  6505               	cpfsgt	(_rx_buffer+5)& (0+255),b
  8026  003ECA  D75D               	goto	u5310
  8027                           
  8028                           ; BSR set to: 1
  8029  003ECC  0E3A               	movlw	58
  8030  003ECE  6105               	cpfslt	(_rx_buffer+5)& (0+255),b
  8031  003ED0  D75A               	goto	u5310
  8032                           
  8033                           ; BSR set to: 1
  8034  003ED2  0E0D               	movlw	13
  8035  003ED4  1906               	xorwf	(_rx_buffer+6)& (0+255),w,b
  8036  003ED6  A4D8               	btfss	status,2,c
  8037  003ED8  D756               	goto	u5310
  8038                           
  8039                           ; BSR set to: 1
  8040  003EDA  0E0A               	movlw	10
  8041  003EDC  1907               	xorwf	(_rx_buffer+7)& (0+255),w,b
  8042  003EDE  A4D8               	btfss	status,2,c
  8043  003EE0  D752               	goto	u5310
  8044                           
  8045                           ; BSR set to: 1
  8046                           ;UART1.c: 124:             COMMAND_WR = 0;
  8047  003EE2  0E00               	movlw	0
  8048  003EE4  0100               	movlb	0	; () banked
  8049  003EE6  6FFA               	movwf	_COMMAND_WR& (0+255),b
  8050                           
  8051                           ; BSR set to: 0
  8052                           ;UART1.c: 125:             COMMAND = rx_buffer[1]-48;
  8053  003EE8  0101               	movlb	1	; () banked
  8054  003EEA  5101               	movf	(_rx_buffer+1)& (0+255),w,b
  8055  003EEC  0FD0               	addlw	208
  8056  003EEE  0100               	movlb	0	; () banked
  8057  003EF0  6FF9               	movwf	_COMMAND& (0+255),b
  8058                           
  8059                           ; BSR set to: 0
  8060                           ;UART1.c: 126:             COMMAND_WRITE_NUMBER = ((rx_buffer[2]-48) * 1000) + ((rx_buff
      +                          er[3]-48) * 100) + ((rx_buffer[4]-48) * 10) + (rx_buffer[5]-48);
  8061  003EF2  0060  F408  F014   	movff	_rx_buffer+2,___wmul@multiplier
  8062  003EF8  6A15               	clrf	___wmul@multiplier+1,c
  8063  003EFA  0E03               	movlw	3
  8064  003EFC  6E17               	movwf	___wmul@multiplicand+1,c
  8065  003EFE  0EE8               	movlw	232
  8066  003F00  6E16               	movwf	___wmul@multiplicand,c
  8067  003F02  EC21  F027         	call	___wmul	;wreg free
  8068  003F06  0101               	movlb	1	; () banked
  8069  003F08  5103               	movf	(_rx_buffer+3)& (0+255),w,b
  8070  003F0A  0D64               	mullw	100
  8071  003F0C  006F FFCC  F01A    	movff	prodl,??_UART1_ReceiveCommand
  8072  003F12  006F FFD0  F01B    	movff	prodh,??_UART1_ReceiveCommand+1
  8073  003F18  5104               	movf	(_rx_buffer+4)& (0+255),w,b
  8074  003F1A  0D0A               	mullw	10
  8075  003F1C  50F3               	movf	prodl,w,c
  8076  003F1E  261A               	addwf	??_UART1_ReceiveCommand,f,c
  8077  003F20  50F4               	movf	prodh,w,c
  8078  003F22  221B               	addwfc	??_UART1_ReceiveCommand+1,f,c
  8079  003F24  5014               	movf	?___wmul,w,c
  8080  003F26  261A               	addwf	??_UART1_ReceiveCommand,f,c
  8081  003F28  5015               	movf	?___wmul+1,w,c
  8082  003F2A  221B               	addwfc	??_UART1_ReceiveCommand+1,f,c
  8083  003F2C  5105               	movf	(_rx_buffer+5)& (0+255),w,b
  8084  003F2E  261A               	addwf	??_UART1_ReceiveCommand,f,c
  8085  003F30  0E00               	movlw	0
  8086  003F32  221B               	addwfc	??_UART1_ReceiveCommand+1,f,c
  8087  003F34  0EB0               	movlw	176
  8088  003F36  241A               	addwf	??_UART1_ReceiveCommand,w,c
  8089  003F38  0100               	movlb	0	; () banked
  8090  003F3A  6FF5               	movwf	_COMMAND_WRITE_NUMBER& (0+255),b
  8091  003F3C  0E2F               	movlw	47
  8092  003F3E  201B               	addwfc	??_UART1_ReceiveCommand+1,w,c
  8093  003F40  6FF6               	movwf	(_COMMAND_WRITE_NUMBER+1)& (0+255),b
  8094  003F42  D75A               	goto	l4601
  8095  003F44                     __end_of_UART1_ReceiveCommand:
  8096                           	opt callstack 0
  8097                           
  8098 ;; *************** function ___wmul *****************
  8099 ;; Defined at:
  8100 ;;		line 15 in file "/opt/microchip/xc8/v2.05/pic/sources/c99/common/Umul16.c"
  8101 ;; Parameters:    Size  Location     Type
  8102 ;;  multiplier      2   19[COMRAM] unsigned int 
  8103 ;;  multiplicand    2   21[COMRAM] unsigned int 
  8104 ;; Auto vars:     Size  Location     Type
  8105 ;;  product         2   23[COMRAM] unsigned int 
  8106 ;; Return value:  Size  Location     Type
  8107 ;;                  2   19[COMRAM] unsigned int 
  8108 ;; Registers used:
  8109 ;;		wreg, status,2, status,0, prodl, prodh
  8110 ;; Tracked objects:
  8111 ;;		On entry : 0/0
  8112 ;;		On exit  : 0/0
  8113 ;;		Unchanged: 0/0
  8114 ;; Data sizes:     COMRAM   BANK0   BANK1   BANK2   BANK3   BANK4   BANK5   BANK6   BANK7   BANK8   BANK9  BANK10  BANK1
      +1  BANK12  BANK13  BANK14  BANK15  BANK16  BANK17  BANK18  BANK19  BANK20  BANK21  BANK22  BANK23  BANK24  BANK25  BANK2
      +6  BANK27  BANK28  BANK29  BANK30  BANK31
  8115 ;;      Params:         4       0       0       0       0       0       0       0       0       0       0       0       
      +0       0       0       0       0       0       0       0       0       0       0       0       0       0       0       
      +0       0       0       0       0       0
  8116 ;;      Locals:         2       0       0       0       0       0       0       0       0       0       0       0       
      +0       0       0       0       0       0       0       0       0       0       0       0       0       0       0       
      +0       0       0       0       0       0
  8117 ;;      Temps:          0       0       0       0       0       0       0       0       0       0       0       0       
      +0       0       0       0       0       0       0       0       0       0       0       0       0       0       0       
      +0       0       0       0       0       0
  8118 ;;      Totals:         6       0       0       0       0       0       0       0       0       0       0       0       
      +0       0       0       0       0       0       0       0       0       0       0       0       0       0       0       
      +0       0       0       0       0       0
  8119 ;;Total ram usage:        6 bytes
  8120 ;; Hardware stack levels used:    1
  8121 ;; Hardware stack levels required when called:    2
  8122 ;; This function calls:
  8123 ;;		Nothing
  8124 ;; This function is called by:
  8125 ;;		_UART1_ReceiveCommand
  8126 ;; This function uses a non-reentrant model
  8127 ;;
  8128                           
  8129                           	psect	text35
  8130  004E42                     __ptext35:
  8131                           	opt callstack 0
  8132  004E42                     ___wmul:
  8133                           	opt callstack 27
  8134                           
  8135                           ;incstack = 0
  8136  004E42  5014               	movf	___wmul@multiplier,w,c
  8137  004E44  0216               	mulwf	___wmul@multiplicand,c
  8138  004E46  006F FFCC  F018    	movff	prodl,___wmul@product
  8139  004E4C  006F FFD0  F019    	movff	prodh,___wmul@product+1
  8140  004E52  5014               	movf	___wmul@multiplier,w,c
  8141  004E54  0217               	mulwf	___wmul@multiplicand+1,c
  8142  004E56  50F3               	movf	prodl,w,c
  8143  004E58  2619               	addwf	___wmul@product+1,f,c
  8144  004E5A  5015               	movf	___wmul@multiplier+1,w,c
  8145  004E5C  0216               	mulwf	___wmul@multiplicand,c
  8146  004E5E  50F3               	movf	prodl,w,c
  8147  004E60  2619               	addwf	___wmul@product+1,f,c
  8148  004E62  0060  F060  F014   	movff	___wmul@product,?___wmul
  8149  004E68  0060  F064  F015   	movff	___wmul@product+1,?___wmul+1
  8150  004E6E  0012               	return		;funcret
  8151  004E70                     __end_of___wmul:
  8152                           	opt callstack 0
  8153                           
  8154 ;; *************** function _UART1_Init *****************
  8155 ;; Defined at:
  8156 ;;		line 5 in file "UART1.c"
  8157 ;; Parameters:    Size  Location     Type
  8158 ;;  baud_rate       1    wreg     unsigned char 
  8159 ;; Auto vars:     Size  Location     Type
  8160 ;;  baud_rate       1   21[COMRAM] unsigned char 
  8161 ;; Return value:  Size  Location     Type
  8162 ;;                  1    wreg      void 
  8163 ;; Registers used:
  8164 ;;		wreg, status,2, status,0
  8165 ;; Tracked objects:
  8166 ;;		On entry : 0/0
  8167 ;;		On exit  : 0/0
  8168 ;;		Unchanged: 0/0
  8169 ;; Data sizes:     COMRAM   BANK0   BANK1   BANK2   BANK3   BANK4   BANK5   BANK6   BANK7   BANK8   BANK9  BANK10  BANK1
      +1  BANK12  BANK13  BANK14  BANK15  BANK16  BANK17  BANK18  BANK19  BANK20  BANK21  BANK22  BANK23  BANK24  BANK25  BANK2
      +6  BANK27  BANK28  BANK29  BANK30  BANK31
  8170 ;;      Params:         0       0       0       0       0       0       0       0       0       0       0       0       
      +0       0       0       0       0       0       0       0       0       0       0       0       0       0       0       
      +0       0       0       0       0       0
  8171 ;;      Locals:         1       0       0       0       0       0       0       0       0       0       0       0       
      +0       0       0       0       0       0       0       0       0       0       0       0       0       0       0       
      +0       0       0       0       0       0
  8172 ;;      Temps:          2       0       0       0       0       0       0       0       0       0       0       0       
      +0       0       0       0       0       0       0       0       0       0       0       0       0       0       0       
      +0       0       0       0       0       0
  8173 ;;      Totals:         3       0       0       0       0       0       0       0       0       0       0       0       
      +0       0       0       0       0       0       0       0       0       0       0       0       0       0       0       
      +0       0       0       0       0       0
  8174 ;;Total ram usage:        3 bytes
  8175 ;; Hardware stack levels used:    1
  8176 ;; Hardware stack levels required when called:    2
  8177 ;; This function calls:
  8178 ;;		Nothing
  8179 ;; This function is called by:
  8180 ;;		_main
  8181 ;; This function uses a non-reentrant model
  8182 ;;
  8183                           
  8184                           	psect	text36
  8185  0048F6                     __ptext36:
  8186                           	opt callstack 0
  8187  0048F6                     _UART1_Init:
  8188                           	opt callstack 28
  8189                           
  8190                           ;incstack = 0
  8191                           ;UART1_Init@baud_rate stored from wreg
  8192  0048F6  6E16               	movwf	UART1_Init@baud_rate,c
  8193                           
  8194                           ;UART1.c: 7:     TRISCbits.TRISC6 = 1;
  8195  0048F8  8CC4               	bsf	16324,6,c	;volatile
  8196                           
  8197                           ;UART1.c: 8:     TRISCbits.TRISC7 = 0;
  8198  0048FA  9EC4               	bcf	16324,7,c	;volatile
  8199                           
  8200                           ;UART1.c: 9:     ANSELCbits.ANSELC6 = 0;
  8201  0048FC  013A               	movlb	58	; () banked
  8202  0048FE  9D60               	bcf	96,6,b	;volatile
  8203                           
  8204                           ;UART1.c: 10:     ANSELCbits.ANSELC7 = 0;
  8205  004900  9F60               	bcf	96,7,b	;volatile
  8206                           
  8207                           ; BSR set to: 58
  8208                           ;UART1.c: 11:     U1RXPPS = 0x16;
  8209  004902  0E16               	movlw	22
  8210  004904  6FE5               	movwf	229,b	;volatile
  8211                           
  8212                           ;UART1.c: 12:     RC7PPS = 0x13;
  8213  004906  0E13               	movlw	19
  8214  004908  6F17               	movwf	23,b	;volatile
  8215                           
  8216                           ;UART1.c: 15:     switch(baud_rate){
  8217  00490A  D010               	goto	l4485
  8218  00490C                     l4475:
  8219                           
  8220                           ; BSR set to: 58
  8221                           ;UART1.c: 17:             U1BRGH = 0x03;
  8222  00490C  0E03               	movlw	3
  8223  00490E  013D               	movlb	61	; () banked
  8224  004910  6FF6               	movwf	246,b	;volatile
  8225                           
  8226                           ;UART1.c: 18:             U1BRGL = 0x40;
  8227  004912  0E40               	movlw	64
  8228  004914  D009               	goto	L14
  8229  004916                     l4477:
  8230                           
  8231                           ; BSR set to: 58
  8232                           ;UART1.c: 21:             U1BRGH = 0x01;
  8233  004916  0E01               	movlw	1
  8234  004918  013D               	movlb	61	; () banked
  8235  00491A  6FF6               	movwf	246,b	;volatile
  8236                           
  8237                           ;UART1.c: 22:             U1BRGL = 0x14;
  8238  00491C  0E14               	movlw	20
  8239  00491E  D004               	goto	L14
  8240  004920                     l4479:
  8241                           
  8242                           ; BSR set to: 58
  8243                           ;UART1.c: 25:             U1BRGH = 0x00;
  8244  004920  0E00               	movlw	0
  8245  004922  013D               	movlb	61	; () banked
  8246  004924  6FF6               	movwf	246,b	;volatile
  8247                           
  8248                           ;UART1.c: 26:             U1BRGL = 0x89;
  8249  004926  0E89               	movlw	137
  8250  004928                     L14:
  8251  004928  6FF5               	movwf	245,b	;volatile
  8252                           
  8253                           ;UART1.c: 27:             break;
  8254  00492A  D010               	goto	l4487
  8255  00492C                     l4485:
  8256                           
  8257                           ; BSR set to: 58
  8258  00492C  5016               	movf	UART1_Init@baud_rate,w,c
  8259  00492E  6E14               	movwf	??_UART1_Init& (0+255),c
  8260  004930  6A15               	clrf	(??_UART1_Init+1)& (0+255),c
  8261                           
  8262                           ; Switch on 2 bytes has been partitioned into a top level switch of size 1, and 1 sub-sw
      +                          itches
  8263                           ; Switch size 1, requested type "simple"
  8264                           ; Number of cases is 1, Range of values is 0 to 0
  8265                           ; switch strategies available:
  8266                           ; Name         Instructions Cycles
  8267                           ; simple_byte            4     3 (average)
  8268                           ;	Chosen strategy is simple_byte
  8269  004932  5015               	movf	??_UART1_Init+1,w,c
  8270  004934  0A00               	xorlw	0	; case 0
  8271  004936  A4D8               	btfss	status,2,c
  8272  004938  D7F3               	goto	l4479
  8273                           
  8274                           ; BSR set to: 58
  8275                           ; Switch size 1, requested type "simple"
  8276                           ; Number of cases is 3, Range of values is 1 to 3
  8277                           ; switch strategies available:
  8278                           ; Name         Instructions Cycles
  8279                           ; simple_byte           10     6 (average)
  8280                           ;	Chosen strategy is simple_byte
  8281  00493A  5014               	movf	??_UART1_Init,w,c
  8282  00493C  0A01               	xorlw	1	; case 1
  8283  00493E  B4D8               	btfsc	status,2,c
  8284  004940  D7E5               	goto	l4475
  8285  004942  0A03               	xorlw	3	; case 2
  8286  004944  B4D8               	btfsc	status,2,c
  8287  004946  D7E7               	goto	l4477
  8288  004948  0A01               	xorlw	1	; case 3
  8289  00494A  D7EA               	goto	l4479
  8290  00494C                     l4487:
  8291                           
  8292                           ; BSR set to: 61
  8293                           ;UART1.c: 34:     rx_counter = 0;
  8294  00494C  0E00               	movlw	0
  8295  00494E  6E4B               	movwf	_rx_counter,c
  8296                           
  8297                           ;UART1.c: 36:     U1CON0 = 0xB0;
  8298  004950  0EB0               	movlw	176
  8299  004952  6FF2               	movwf	242,b	;volatile
  8300                           
  8301                           ;UART1.c: 37:     U1CON1 = 0x00;
  8302  004954  0E00               	movlw	0
  8303  004956  6FF3               	movwf	243,b	;volatile
  8304                           
  8305                           ;UART1.c: 38:     U2CON2 = 0x80;
  8306  004958  0E80               	movlw	128
  8307  00495A  6FDC               	movwf	220,b	;volatile
  8308                           
  8309                           ;UART1.c: 39:     U1ERRIE = 0x00;
  8310  00495C  0E00               	movlw	0
  8311  00495E  6FFA               	movwf	250,b	;volatile
  8312                           
  8313                           ;UART1.c: 40:     U1UIR = 0x00;
  8314  004960  0E00               	movlw	0
  8315  004962  6FF8               	movwf	248,b	;volatile
  8316                           
  8317                           ; BSR set to: 61
  8318                           ;UART1.c: 41:     PIE3bits.U1RXIE = 1;
  8319  004964  0139               	movlb	57	; () banked
  8320  004966  8793               	bsf	147,3,b	;volatile
  8321                           
  8322                           ; BSR set to: 57
  8323                           ;UART1.c: 42:     PIE3bits.U1TXIE =1;
  8324  004968  8993               	bsf	147,4,b	;volatile
  8325                           
  8326                           ; BSR set to: 57
  8327                           ;UART1.c: 43:     IPR3bits.U1RXIP = 1;
  8328  00496A  8783               	bsf	131,3,b	;volatile
  8329                           
  8330                           ; BSR set to: 57
  8331                           ;UART1.c: 44:     IPR3bits.U1TXIP = 1;
  8332  00496C  8983               	bsf	131,4,b	;volatile
  8333                           
  8334                           ;UART1.c: 45:     PIR3 = 0x00;
  8335  00496E  0E00               	movlw	0
  8336  004970  6FA3               	movwf	163,b	;volatile
  8337                           
  8338                           ; BSR set to: 57
  8339                           ;UART1.c: 46:     U1CON1bits.ON = 1;
  8340  004972  013D               	movlb	61	; () banked
  8341  004974  8FF3               	bsf	243,7,b	;volatile
  8342                           
  8343                           ; BSR set to: 61
  8344  004976  0012               	return		;funcret
  8345  004978                     __end_of_UART1_Init:
  8346                           	opt callstack 0
  8347                           
  8348 ;; *************** function _I2C_Init *****************
  8349 ;; Defined at:
  8350 ;;		line 4 in file "I2C.c"
  8351 ;; Parameters:    Size  Location     Type
  8352 ;;		None
  8353 ;; Auto vars:     Size  Location     Type
  8354 ;;		None
  8355 ;; Return value:  Size  Location     Type
  8356 ;;                  1    wreg      void 
  8357 ;; Registers used:
  8358 ;;		wreg, status,2
  8359 ;; Tracked objects:
  8360 ;;		On entry : 0/0
  8361 ;;		On exit  : 0/0
  8362 ;;		Unchanged: 0/0
  8363 ;; Data sizes:     COMRAM   BANK0   BANK1   BANK2   BANK3   BANK4   BANK5   BANK6   BANK7   BANK8   BANK9  BANK10  BANK1
      +1  BANK12  BANK13  BANK14  BANK15  BANK16  BANK17  BANK18  BANK19  BANK20  BANK21  BANK22  BANK23  BANK24  BANK25  BANK2
      +6  BANK27  BANK28  BANK29  BANK30  BANK31
  8364 ;;      Params:         0       0       0       0       0       0       0       0       0       0       0       0       
      +0       0       0       0       0       0       0       0       0       0       0       0       0       0       0       
      +0       0       0       0       0       0
  8365 ;;      Locals:         0       0       0       0       0       0       0       0       0       0       0       0       
      +0       0       0       0       0       0       0       0       0       0       0       0       0       0       0       
      +0       0       0       0       0       0
  8366 ;;      Temps:          0       0       0       0       0       0       0       0       0       0       0       0       
      +0       0       0       0       0       0       0       0       0       0       0       0       0       0       0       
      +0       0       0       0       0       0
  8367 ;;      Totals:         0       0       0       0       0       0       0       0       0       0       0       0       
      +0       0       0       0       0       0       0       0       0       0       0       0       0       0       0       
      +0       0       0       0       0       0
  8368 ;;Total ram usage:        0 bytes
  8369 ;; Hardware stack levels used:    1
  8370 ;; Hardware stack levels required when called:    2
  8371 ;; This function calls:
  8372 ;;		Nothing
  8373 ;; This function is called by:
  8374 ;;		_main
  8375 ;; This function uses a non-reentrant model
  8376 ;;
  8377                           
  8378                           	psect	text37
  8379  004A5A                     __ptext37:
  8380                           	opt callstack 0
  8381  004A5A                     _I2C_Init:
  8382                           	opt callstack 28
  8383                           
  8384                           ;I2C.c: 6:     TRISBbits.TRISB1 = 0;
  8385                           
  8386                           ; BSR set to: 61
  8387                           ;incstack = 0
  8388  004A5A  92C3               	bcf	16323,1,c	;volatile
  8389                           
  8390                           ;I2C.c: 7:     TRISBbits.TRISB0 = 0;
  8391  004A5C  90C3               	bcf	16323,0,c	;volatile
  8392                           
  8393                           ;I2C.c: 8:     LATBbits.LATB1 = 0;
  8394  004A5E  92BB               	bcf	16315,1,c	;volatile
  8395                           
  8396                           ;I2C.c: 9:     LATBbits.LATB0 = 0;
  8397  004A60  90BB               	bcf	16315,0,c	;volatile
  8398                           
  8399                           ;I2C.c: 10:     ANSELBbits.ANSELB1 = 0;
  8400  004A62  013A               	movlb	58	; () banked
  8401  004A64  9350               	bcf	80,1,b	;volatile
  8402                           
  8403                           ;I2C.c: 11:     ANSELBbits.ANSELB0 = 0;
  8404  004A66  9150               	bcf	80,0,b	;volatile
  8405                           
  8406                           ;I2C.c: 12:     ODCONBbits.ODCB1 = 1;
  8407  004A68  8352               	bsf	82,1,b	;volatile
  8408                           
  8409                           ;I2C.c: 13:     ODCONBbits.ODCB0 = 1;
  8410  004A6A  8152               	bsf	82,0,b	;volatile
  8411                           
  8412                           ; BSR set to: 58
  8413                           ;I2C.c: 14:     RB1I2C = 0x01;
  8414  004A6C  0E01               	movlw	1
  8415  004A6E  6F5A               	movwf	90,b	;volatile
  8416                           
  8417                           ; BSR set to: 58
  8418                           ;I2C.c: 15:     SLRCONBbits.SLRB1 = 0;
  8419  004A70  9353               	bcf	83,1,b	;volatile
  8420                           
  8421                           ; BSR set to: 58
  8422                           ;I2C.c: 16:     SLRCONBbits.SLRB0 = 0;
  8423  004A72  9153               	bcf	83,0,b	;volatile
  8424                           
  8425                           ;I2C.c: 17:     I2C1SCLPPS = 0x09;
  8426  004A74  0E09               	movlw	9
  8427  004A76  6FE1               	movwf	225,b	;volatile
  8428                           
  8429                           ;I2C.c: 18:     I2C1SDAPPS = 0x08;
  8430  004A78  0E08               	movlw	8
  8431  004A7A  6FE2               	movwf	226,b	;volatile
  8432                           
  8433                           ;I2C.c: 19:     RB1PPS = 0x21;
  8434  004A7C  0E21               	movlw	33
  8435  004A7E  6F09               	movwf	9,b	;volatile
  8436                           
  8437                           ;I2C.c: 20:     RB0PPS = 0x22;
  8438  004A80  0E22               	movlw	34
  8439  004A82  6F08               	movwf	8,b	;volatile
  8440                           
  8441                           ;I2C.c: 22:     I2C1CON0 = 0x04;
  8442  004A84  0E04               	movlw	4
  8443  004A86  013D               	movlb	61	; () banked
  8444  004A88  6F73               	movwf	115,b	;volatile
  8445                           
  8446                           ;I2C.c: 23:     I2C1CON1 = 0x80;
  8447  004A8A  0E80               	movlw	128
  8448  004A8C  6F74               	movwf	116,b	;volatile
  8449                           
  8450                           ;I2C.c: 24:     I2C1CON2 = 0x24;
  8451  004A8E  0E24               	movlw	36
  8452  004A90  6F75               	movwf	117,b	;volatile
  8453                           
  8454                           ;I2C.c: 25:     I2C1CLK = 0x03;
  8455  004A92  0E03               	movlw	3
  8456  004A94  6F7B               	movwf	123,b	;volatile
  8457                           
  8458                           ;I2C.c: 27:     I2C1PIR = 0x00;
  8459  004A96  0E00               	movlw	0
  8460  004A98  6F79               	movwf	121,b	;volatile
  8461                           
  8462                           ;I2C.c: 28:     I2C1ERR = 0x00;
  8463  004A9A  0E00               	movlw	0
  8464  004A9C  6F76               	movwf	118,b	;volatile
  8465                           
  8466                           ;I2C.c: 30:     I2C_STOP_DETECTED = 1;
  8467  004A9E  0E01               	movlw	1
  8468  004AA0  0100               	movlb	0	; () banked
  8469  004AA2  6FF8               	movwf	_I2C_STOP_DETECTED& (0+255),b
  8470                           
  8471                           ; BSR set to: 0
  8472                           ;I2C.c: 32:     IPR3bits.I2C1TXIP = 0;
  8473  004AA4  0139               	movlb	57	; () banked
  8474  004AA6  9183               	bcf	131,0,b	;volatile
  8475                           
  8476                           ; BSR set to: 57
  8477                           ;I2C.c: 33:     IPR2bits.I2C1RXIP = 0;
  8478  004AA8  9F82               	bcf	130,7,b	;volatile
  8479                           
  8480                           ; BSR set to: 57
  8481                           ;I2C.c: 34:     PIR3bits.I2C1TXIF = 0;
  8482  004AAA  91A3               	bcf	163,0,b	;volatile
  8483                           
  8484                           ; BSR set to: 57
  8485                           ;I2C.c: 35:     PIR2bits.I2C1RXIF = 0;
  8486  004AAC  9FA2               	bcf	162,7,b	;volatile
  8487                           
  8488                           ; BSR set to: 57
  8489                           ;I2C.c: 36:     PIE3bits.I2C1TXIE = 1;
  8490  004AAE  8193               	bsf	147,0,b	;volatile
  8491                           
  8492                           ; BSR set to: 57
  8493                           ;I2C.c: 37:     PIE2bits.I2C1RXIE = 1;
  8494  004AB0  8F92               	bsf	146,7,b	;volatile
  8495                           
  8496                           ; BSR set to: 57
  8497                           ;I2C.c: 40:     I2C1PIRbits.PC1IF = 0;
  8498  004AB2  013D               	movlb	61	; () banked
  8499  004AB4  9579               	bcf	121,2,b	;volatile
  8500                           
  8501                           ; BSR set to: 61
  8502                           ;I2C.c: 41:     I2C1PIEbits.PC1IE = 1;
  8503  004AB6  857A               	bsf	122,2,b	;volatile
  8504                           
  8505                           ; BSR set to: 61
  8506                           ;I2C.c: 42:     IPR3bits.I2C1IP = 0;
  8507  004AB8  0139               	movlb	57	; () banked
  8508  004ABA  9383               	bcf	131,1,b	;volatile
  8509                           
  8510                           ; BSR set to: 57
  8511                           ;I2C.c: 43:     PIR3bits.I2C1IF = 0;
  8512  004ABC  93A3               	bcf	163,1,b	;volatile
  8513                           
  8514                           ; BSR set to: 57
  8515                           ;I2C.c: 44:     PIE3bits.I2C1IE = 1;
  8516  004ABE  8393               	bsf	147,1,b	;volatile
  8517                           
  8518                           ; BSR set to: 57
  8519                           ;I2C.c: 46:     I2C1CON0bits.EN = 1;
  8520  004AC0  013D               	movlb	61	; () banked
  8521  004AC2  8F73               	bsf	115,7,b	;volatile
  8522                           
  8523                           ; BSR set to: 61
  8524  004AC4  0012               	return		;funcret
  8525  004AC6                     __end_of_I2C_Init:
  8526                           	opt callstack 0
  8527                           
  8528 ;; *************** function _ADC_Init *****************
  8529 ;; Defined at:
  8530 ;;		line 251 in file "main.c"
  8531 ;; Parameters:    Size  Location     Type
  8532 ;;		None
  8533 ;; Auto vars:     Size  Location     Type
  8534 ;;		None
  8535 ;; Return value:  Size  Location     Type
  8536 ;;                  1    wreg      void 
  8537 ;; Registers used:
  8538 ;;		wreg, status,2
  8539 ;; Tracked objects:
  8540 ;;		On entry : 0/0
  8541 ;;		On exit  : 0/0
  8542 ;;		Unchanged: 0/0
  8543 ;; Data sizes:     COMRAM   BANK0   BANK1   BANK2   BANK3   BANK4   BANK5   BANK6   BANK7   BANK8   BANK9  BANK10  BANK1
      +1  BANK12  BANK13  BANK14  BANK15  BANK16  BANK17  BANK18  BANK19  BANK20  BANK21  BANK22  BANK23  BANK24  BANK25  BANK2
      +6  BANK27  BANK28  BANK29  BANK30  BANK31
  8544 ;;      Params:         0       0       0       0       0       0       0       0       0       0       0       0       
      +0       0       0       0       0       0       0       0       0       0       0       0       0       0       0       
      +0       0       0       0       0       0
  8545 ;;      Locals:         0       0       0       0       0       0       0       0       0       0       0       0       
      +0       0       0       0       0       0       0       0       0       0       0       0       0       0       0       
      +0       0       0       0       0       0
  8546 ;;      Temps:          0       0       0       0       0       0       0       0       0       0       0       0       
      +0       0       0       0       0       0       0       0       0       0       0       0       0       0       0       
      +0       0       0       0       0       0
  8547 ;;      Totals:         0       0       0       0       0       0       0       0       0       0       0       0       
      +0       0       0       0       0       0       0       0       0       0       0       0       0       0       0       
      +0       0       0       0       0       0
  8548 ;;Total ram usage:        0 bytes
  8549 ;; Hardware stack levels used:    1
  8550 ;; Hardware stack levels required when called:    2
  8551 ;; This function calls:
  8552 ;;		Nothing
  8553 ;; This function is called by:
  8554 ;;		_main
  8555 ;; This function uses a non-reentrant model
  8556 ;;
  8557                           
  8558                           	psect	text38
  8559  004E9C                     __ptext38:
  8560                           	opt callstack 0
  8561  004E9C                     _ADC_Init:
  8562                           	opt callstack 28
  8563                           
  8564                           ;main.c: 253:     TRISBbits.TRISB4 = 1;
  8565                           
  8566                           ; BSR set to: 61
  8567                           ;incstack = 0
  8568  004E9C  88C3               	bsf	16323,4,c	;volatile
  8569                           
  8570                           ;main.c: 254:     ANSELBbits.ANSELB4 = 1;
  8571  004E9E  013A               	movlb	58	; () banked
  8572  004EA0  8950               	bsf	80,4,b	;volatile
  8573                           
  8574                           ; BSR set to: 58
  8575                           ;main.c: 255:     ADCON0 = 0x94;
  8576  004EA2  0E94               	movlw	148
  8577  004EA4  013E               	movlb	62	; () banked
  8578  004EA6  6FF8               	movwf	248,b	;volatile
  8579                           
  8580                           ;main.c: 256:     ADCON1 = 0x00;
  8581  004EA8  0E00               	movlw	0
  8582  004EAA  6FF9               	movwf	249,b	;volatile
  8583                           
  8584                           ;main.c: 257:     ADCON2 = 0x00;
  8585  004EAC  0E00               	movlw	0
  8586  004EAE  6FFA               	movwf	250,b	;volatile
  8587                           
  8588                           ;main.c: 258:     ADREF = 0x00;
  8589  004EB0  0E00               	movlw	0
  8590  004EB2  6FFD               	movwf	253,b	;volatile
  8591                           
  8592                           ; BSR set to: 62
  8593                           ;main.c: 259:     IPR1bits.ADIP = 0;
  8594  004EB4  0139               	movlb	57	; () banked
  8595  004EB6  9581               	bcf	129,2,b	;volatile
  8596                           
  8597                           ; BSR set to: 57
  8598                           ;main.c: 260:     PIE1bits.ADIE = 1;
  8599  004EB8  8591               	bsf	145,2,b	;volatile
  8600                           
  8601                           ; BSR set to: 57
  8602                           ;main.c: 261:     PIR1bits.ADIF = 0;
  8603  004EBA  95A1               	bcf	161,2,b	;volatile
  8604                           
  8605                           ; BSR set to: 57
  8606  004EBC  0012               	return		;funcret
  8607  004EBE                     __end_of_ADC_Init:
  8608                           	opt callstack 0
  8609                           
  8610 ;; *************** function _TIMER0_ISR *****************
  8611 ;; Defined at:
  8612 ;;		line 64 in file "main.c"
  8613 ;; Parameters:    Size  Location     Type
  8614 ;;		None
  8615 ;; Auto vars:     Size  Location     Type
  8616 ;;		None
  8617 ;; Return value:  Size  Location     Type
  8618 ;;                  1    wreg      void 
  8619 ;; Registers used:
  8620 ;;		wreg, status,2, status,0, cstack
  8621 ;; Tracked objects:
  8622 ;;		On entry : 0/0
  8623 ;;		On exit  : 0/0
  8624 ;;		Unchanged: 0/0
  8625 ;; Data sizes:     COMRAM   BANK0   BANK1   BANK2   BANK3   BANK4   BANK5   BANK6   BANK7   BANK8   BANK9  BANK10  BANK1
      +1  BANK12  BANK13  BANK14  BANK15  BANK16  BANK17  BANK18  BANK19  BANK20  BANK21  BANK22  BANK23  BANK24  BANK25  BANK2
      +6  BANK27  BANK28  BANK29  BANK30  BANK31
  8626 ;;      Params:         0       0       0       0       0       0       0       0       0       0       0       0       
      +0       0       0       0       0       0       0       0       0       0       0       0       0       0       0       
      +0       0       0       0       0       0
  8627 ;;      Locals:         0       0       0       0       0       0       0       0       0       0       0       0       
      +0       0       0       0       0       0       0       0       0       0       0       0       0       0       0       
      +0       0       0       0       0       0
  8628 ;;      Temps:          0       0       0       0       0       0       0       0       0       0       0       0       
      +0       0       0       0       0       0       0       0       0       0       0       0       0       0       0       
      +0       0       0       0       0       0
  8629 ;;      Totals:         0       0       0       0       0       0       0       0       0       0       0       0       
      +0       0       0       0       0       0       0       0       0       0       0       0       0       0       0       
      +0       0       0       0       0       0
  8630 ;;Total ram usage:        0 bytes
  8631 ;; Hardware stack levels used:    1
  8632 ;; Hardware stack levels required when called:    1
  8633 ;; This function calls:
  8634 ;;		_ADC_Start
  8635 ;; This function is called by:
  8636 ;;		Interrupt level 2
  8637 ;; This function uses a non-reentrant model
  8638 ;;
  8639                           
  8640                           	psect	text39
  8641  004C4C                     __ptext39:
  8642                           	opt callstack 0
  8643  004C4C                     _TIMER0_ISR:
  8644                           	opt callstack 20
  8645                           
  8646                           ;main.c: 65:     T0CON0bits.EN = 0;
  8647                           
  8648                           ; BSR set to: 57
  8649                           ;incstack = 0
  8650  004C4C  9EB8               	bcf	16312,7,c	;volatile
  8651                           
  8652                           ;main.c: 66:     counter_timer0 ++;
  8653  004C4E  2A47               	incf	_counter_timer0,f,c
  8654                           
  8655                           ;main.c: 67:     if(counter_timer0 == 2){
  8656  004C50  0E02               	movlw	2
  8657  004C52  1847               	xorwf	_counter_timer0,w,c
  8658  004C54  A4D8               	btfss	status,2,c
  8659  004C56  D002               	goto	i2l4813
  8660                           
  8661                           ;main.c: 68:         LATAbits.LA0 = 0;
  8662  004C58  90BA               	bcf	16314,0,c	;volatile
  8663                           
  8664                           ;main.c: 69:     }else if(counter_timer0 == 40){
  8665  004C5A  D00A               	goto	i2l152
  8666  004C5C                     i2l4813:
  8667  004C5C  0E28               	movlw	40
  8668  004C5E  1847               	xorwf	_counter_timer0,w,c
  8669  004C60  A4D8               	btfss	status,2,c
  8670  004C62  D006               	goto	i2l152
  8671                           
  8672                           ;main.c: 70:         if(led_enable)
  8673  004C64  0100               	movlb	0	; () banked
  8674  004C66  51F7               	movf	_led_enable& (0+255),w,b
  8675  004C68  A4D8               	btfss	status,2,c
  8676                           
  8677                           ; BSR set to: 0
  8678                           ;main.c: 71:             LATAbits.LA0 = 1;
  8679  004C6A  80BA               	bsf	16314,0,c	;volatile
  8680                           
  8681                           ; BSR set to: 0
  8682                           ;main.c: 72:         counter_timer0 = 0;
  8683  004C6C  0E00               	movlw	0
  8684  004C6E  6E47               	movwf	_counter_timer0,c
  8685  004C70                     i2l152:
  8686                           
  8687                           ;main.c: 74:     TMR0L = 0xB0;
  8688  004C70  0EB0               	movlw	176
  8689  004C72  6EB6               	movwf	16310,c	;volatile
  8690                           
  8691                           ;main.c: 75:     TMR0H = 0x3C;
  8692  004C74  0E3C               	movlw	60
  8693  004C76  6EB7               	movwf	16311,c	;volatile
  8694                           
  8695                           ;main.c: 76:     if(measur_vol_or_cur)
  8696  004C78  504C               	movf	_measur_vol_or_cur,w,c
  8697  004C7A  B4D8               	btfsc	status,2,c
  8698  004C7C  D004               	goto	i2l4823
  8699                           
  8700                           ;main.c: 77:         ADC_Start(12);
  8701  004C7E  0E0C               	movlw	12
  8702  004C80  ECAA  F027         	call	_ADC_Start
  8703  004C84  D003               	goto	i2l4825
  8704  004C86                     i2l4823:
  8705                           
  8706                           ;main.c: 79:         ADC_Start(13);
  8707  004C86  0E0D               	movlw	13
  8708  004C88  ECAA  F027         	call	_ADC_Start
  8709  004C8C                     i2l4825:
  8710                           
  8711                           ;main.c: 80:     measur_vol_or_cur = !measur_vol_or_cur;
  8712  004C8C  504C               	movf	_measur_vol_or_cur,w,c
  8713  004C8E  A4D8               	btfss	status,2,c
  8714  004C90  D002               	goto	i2u592_40
  8715  004C92  0E01               	movlw	1
  8716  004C94  D001               	goto	i2u593_40
  8717  004C96                     i2u592_40:
  8718  004C96  0E00               	movlw	0
  8719  004C98                     i2u593_40:
  8720  004C98  6E4C               	movwf	_measur_vol_or_cur,c
  8721                           
  8722                           ;main.c: 81:     PIR3bits.TMR0IF = 0;
  8723  004C9A  0139               	movlb	57	; () banked
  8724  004C9C  9FA3               	bcf	163,7,b	;volatile
  8725                           
  8726                           ; BSR set to: 57
  8727                           ;main.c: 82:     T0CON0bits.EN = 1;
  8728  004C9E  8EB8               	bsf	16312,7,c	;volatile
  8729                           
  8730                           ; BSR set to: 57
  8731  004CA0  0011               	retfie		f
  8732  004CA2                     __end_of_TIMER0_ISR:
  8733                           	opt callstack 0
  8734                           
  8735 ;; *************** function _ADC_Start *****************
  8736 ;; Defined at:
  8737 ;;		line 265 in file "main.c"
  8738 ;; Parameters:    Size  Location     Type
  8739 ;;  pin             1    wreg     unsigned char 
  8740 ;; Auto vars:     Size  Location     Type
  8741 ;;  pin             1    0[COMRAM] unsigned char 
  8742 ;; Return value:  Size  Location     Type
  8743 ;;                  1    wreg      void 
  8744 ;; Registers used:
  8745 ;;		wreg
  8746 ;; Tracked objects:
  8747 ;;		On entry : 0/0
  8748 ;;		On exit  : 0/0
  8749 ;;		Unchanged: 0/0
  8750 ;; Data sizes:     COMRAM   BANK0   BANK1   BANK2   BANK3   BANK4   BANK5   BANK6   BANK7   BANK8   BANK9  BANK10  BANK1
      +1  BANK12  BANK13  BANK14  BANK15  BANK16  BANK17  BANK18  BANK19  BANK20  BANK21  BANK22  BANK23  BANK24  BANK25  BANK2
      +6  BANK27  BANK28  BANK29  BANK30  BANK31
  8751 ;;      Params:         0       0       0       0       0       0       0       0       0       0       0       0       
      +0       0       0       0       0       0       0       0       0       0       0       0       0       0       0       
      +0       0       0       0       0       0
  8752 ;;      Locals:         1       0       0       0       0       0       0       0       0       0       0       0       
      +0       0       0       0       0       0       0       0       0       0       0       0       0       0       0       
      +0       0       0       0       0       0
  8753 ;;      Temps:          0       0       0       0       0       0       0       0       0       0       0       0       
      +0       0       0       0       0       0       0       0       0       0       0       0       0       0       0       
      +0       0       0       0       0       0
  8754 ;;      Totals:         1       0       0       0       0       0       0       0       0       0       0       0       
      +0       0       0       0       0       0       0       0       0       0       0       0       0       0       0       
      +0       0       0       0       0       0
  8755 ;;Total ram usage:        1 bytes
  8756 ;; Hardware stack levels used:    1
  8757 ;; This function calls:
  8758 ;;		Nothing
  8759 ;; This function is called by:
  8760 ;;		_TIMER0_ISR
  8761 ;; This function uses a non-reentrant model
  8762 ;;
  8763                           
  8764                           	psect	text40
  8765  004F54                     __ptext40:
  8766                           	opt callstack 0
  8767  004F54                     _ADC_Start:
  8768                           	opt callstack 20
  8769                           
  8770                           ; BSR set to: 57
  8771                           ;incstack = 0
  8772                           ;ADC_Start@pin stored from wreg
  8773  004F54  6E01               	movwf	ADC_Start@pin,c
  8774                           
  8775                           ;main.c: 266:     if(!ADCON0bits.GO){
  8776  004F56  013E               	movlb	62	; () banked
  8777  004F58  B1F8               	btfsc	248,0,b	;volatile
  8778  004F5A  0012               	return	
  8779                           
  8780                           ; BSR set to: 62
  8781                           ;main.c: 267:         ADPCH = pin;
  8782  004F5C  0060  F007  FEF1   	movff	ADC_Start@pin,16113	;volatile
  8783                           
  8784                           ; BSR set to: 62
  8785                           ;main.c: 268:         ADCON0bits.GO = 1;
  8786  004F62  81F8               	bsf	248,0,b	;volatile
  8787                           
  8788                           ; BSR set to: 62
  8789  004F64  0012               	return		;funcret
  8790  004F66                     __end_of_ADC_Start:
  8791                           	opt callstack 0
  8792                           
  8793 ;; *************** function _UART1_TX_ISR *****************
  8794 ;; Defined at:
  8795 ;;		line 85 in file "main.c"
  8796 ;; Parameters:    Size  Location     Type
  8797 ;;		None
  8798 ;; Auto vars:     Size  Location     Type
  8799 ;;		None
  8800 ;; Return value:  Size  Location     Type
  8801 ;;                  1    wreg      void 
  8802 ;; Registers used:
  8803 ;;		None
  8804 ;; Tracked objects:
  8805 ;;		On entry : 0/0
  8806 ;;		On exit  : 0/0
  8807 ;;		Unchanged: 0/0
  8808 ;; Data sizes:     COMRAM   BANK0   BANK1   BANK2   BANK3   BANK4   BANK5   BANK6   BANK7   BANK8   BANK9  BANK10  BANK1
      +1  BANK12  BANK13  BANK14  BANK15  BANK16  BANK17  BANK18  BANK19  BANK20  BANK21  BANK22  BANK23  BANK24  BANK25  BANK2
      +6  BANK27  BANK28  BANK29  BANK30  BANK31
  8809 ;;      Params:         0       0       0       0       0       0       0       0       0       0       0       0       
      +0       0       0       0       0       0       0       0       0       0       0       0       0       0       0       
      +0       0       0       0       0       0
  8810 ;;      Locals:         0       0       0       0       0       0       0       0       0       0       0       0       
      +0       0       0       0       0       0       0       0       0       0       0       0       0       0       0       
      +0       0       0       0       0       0
  8811 ;;      Temps:          0       0       0       0       0       0       0       0       0       0       0       0       
      +0       0       0       0       0       0       0       0       0       0       0       0       0       0       0       
      +0       0       0       0       0       0
  8812 ;;      Totals:         0       0       0       0       0       0       0       0       0       0       0       0       
      +0       0       0       0       0       0       0       0       0       0       0       0       0       0       0       
      +0       0       0       0       0       0
  8813 ;;Total ram usage:        0 bytes
  8814 ;; Hardware stack levels used:    1
  8815 ;; This function calls:
  8816 ;;		Nothing
  8817 ;; This function is called by:
  8818 ;;		Interrupt level 2
  8819 ;; This function uses a non-reentrant model
  8820 ;;
  8821                           
  8822                           	psect	text41
  8823  004F68                     __ptext41:
  8824                           	opt callstack 0
  8825  004F68                     _UART1_TX_ISR:
  8826                           	opt callstack 21
  8827                           
  8828                           ;main.c: 87:     U1TXB = tx_byte;
  8829                           
  8830                           ; BSR set to: 62
  8831                           ;incstack = 0
  8832  004F68  0060  F12B  FDEA   	movff	_tx_byte,15850	;volatile
  8833                           
  8834                           ;main.c: 88:     PIE3bits.U1TXIE = 0;
  8835  004F6E  0139               	movlb	57	; () banked
  8836  004F70  9993               	bcf	147,4,b	;volatile
  8837                           
  8838                           ; BSR set to: 57
  8839  004F72  0011               	retfie		f
  8840  004F74                     __end_of_UART1_TX_ISR:
  8841                           	opt callstack 0
  8842                           
  8843 ;; *************** function _UART1_RX_ISR *****************
  8844 ;; Defined at:
  8845 ;;		line 91 in file "main.c"
  8846 ;; Parameters:    Size  Location     Type
  8847 ;;		None
  8848 ;; Auto vars:     Size  Location     Type
  8849 ;;		None
  8850 ;; Return value:  Size  Location     Type
  8851 ;;                  1    wreg      void 
  8852 ;; Registers used:
  8853 ;;		wreg, fsr2l, fsr2h, status,2, status,0
  8854 ;; Tracked objects:
  8855 ;;		On entry : 0/0
  8856 ;;		On exit  : 0/0
  8857 ;;		Unchanged: 0/0
  8858 ;; Data sizes:     COMRAM   BANK0   BANK1   BANK2   BANK3   BANK4   BANK5   BANK6   BANK7   BANK8   BANK9  BANK10  BANK1
      +1  BANK12  BANK13  BANK14  BANK15  BANK16  BANK17  BANK18  BANK19  BANK20  BANK21  BANK22  BANK23  BANK24  BANK25  BANK2
      +6  BANK27  BANK28  BANK29  BANK30  BANK31
  8859 ;;      Params:         0       0       0       0       0       0       0       0       0       0       0       0       
      +0       0       0       0       0       0       0       0       0       0       0       0       0       0       0       
      +0       0       0       0       0       0
  8860 ;;      Locals:         0       0       0       0       0       0       0       0       0       0       0       0       
      +0       0       0       0       0       0       0       0       0       0       0       0       0       0       0       
      +0       0       0       0       0       0
  8861 ;;      Temps:          0       0       0       0       0       0       0       0       0       0       0       0       
      +0       0       0       0       0       0       0       0       0       0       0       0       0       0       0       
      +0       0       0       0       0       0
  8862 ;;      Totals:         0       0       0       0       0       0       0       0       0       0       0       0       
      +0       0       0       0       0       0       0       0       0       0       0       0       0       0       0       
      +0       0       0       0       0       0
  8863 ;;Total ram usage:        0 bytes
  8864 ;; Hardware stack levels used:    1
  8865 ;; This function calls:
  8866 ;;		Nothing
  8867 ;; This function is called by:
  8868 ;;		Interrupt level 2
  8869 ;; This function uses a non-reentrant model
  8870 ;;
  8871                           
  8872                           	psect	text42
  8873  004EF8                     __ptext42:
  8874                           	opt callstack 0
  8875  004EF8                     _UART1_RX_ISR:
  8876                           	opt callstack 21
  8877                           
  8878                           ;main.c: 92:     rx_buffer[rx_counter] = U1RXB;
  8879                           
  8880                           ; BSR set to: 57
  8881                           ;incstack = 0
  8882  004EF8  0E00               	movlw	low _rx_buffer
  8883  004EFA  244B               	addwf	_rx_counter,w,c
  8884  004EFC  6ED9               	movwf	fsr2l,c
  8885  004EFE  6ADA               	clrf	fsr2h,c
  8886  004F00  0E01               	movlw	high _rx_buffer
  8887  004F02  22DA               	addwfc	fsr2h,f,c
  8888  004F04  006F F7A3 FFDF     	movff	15848,indf2	;volatile
  8889                           
  8890                           ;main.c: 93:     rx_counter ++;
  8891  004F0A  2A4B               	incf	_rx_counter,f,c
  8892  004F0C  0011               	retfie		f
  8893  004F0E                     __end_of_UART1_RX_ISR:
  8894                           	opt callstack 0
  8895                           
  8896 ;; *************** function _ADC_ISR *****************
  8897 ;; Defined at:
  8898 ;;		line 96 in file "main.c"
  8899 ;; Parameters:    Size  Location     Type
  8900 ;;		None
  8901 ;; Auto vars:     Size  Location     Type
  8902 ;;  adc_result      2   17[COMRAM] int 
  8903 ;; Return value:  Size  Location     Type
  8904 ;;                  1    wreg      void 
  8905 ;; Registers used:
  8906 ;;		wreg, status,2, status,0, cstack
  8907 ;; Tracked objects:
  8908 ;;		On entry : 0/0
  8909 ;;		On exit  : 0/0
  8910 ;;		Unchanged: 0/0
  8911 ;; Data sizes:     COMRAM   BANK0   BANK1   BANK2   BANK3   BANK4   BANK5   BANK6   BANK7   BANK8   BANK9  BANK10  BANK1
      +1  BANK12  BANK13  BANK14  BANK15  BANK16  BANK17  BANK18  BANK19  BANK20  BANK21  BANK22  BANK23  BANK24  BANK25  BANK2
      +6  BANK27  BANK28  BANK29  BANK30  BANK31
  8912 ;;      Params:         0       0       0       0       0       0       0       0       0       0       0       0       
      +0       0       0       0       0       0       0       0       0       0       0       0       0       0       0       
      +0       0       0       0       0       0
  8913 ;;      Locals:         2       0       0       0       0       0       0       0       0       0       0       0       
      +0       0       0       0       0       0       0       0       0       0       0       0       0       0       0       
      +0       0       0       0       0       0
  8914 ;;      Temps:          2       0       0       0       0       0       0       0       0       0       0       0       
      +0       0       0       0       0       0       0       0       0       0       0       0       0       0       0       
      +0       0       0       0       0       0
  8915 ;;      Totals:         4       0       0       0       0       0       0       0       0       0       0       0       
      +0       0       0       0       0       0       0       0       0       0       0       0       0       0       0       
      +0       0       0       0       0       0
  8916 ;;Total ram usage:        4 bytes
  8917 ;; Hardware stack levels used:    1
  8918 ;; Hardware stack levels required when called:    1
  8919 ;; This function calls:
  8920 ;;		___xxtofl
  8921 ;; This function is called by:
  8922 ;;		Interrupt level 2
  8923 ;; This function uses a non-reentrant model
  8924 ;;
  8925                           
  8926                           	psect	text43
  8927  0046B0                     __ptext43:
  8928                           	opt callstack 0
  8929  0046B0                     _ADC_ISR:
  8930                           	opt callstack 20
  8931                           
  8932                           ;main.c: 97:     int adc_result = ADRESL;
  8933                           
  8934                           ;incstack = 0
  8935  0046B0  006F FBBC  F012    	movff	16111,ADC_ISR@adc_result	;volatile
  8936  0046B6  6A13               	clrf	ADC_ISR@adc_result+1,c
  8937                           
  8938                           ;main.c: 98:     adc_result = adc_result | (ADRESH <<8);
  8939  0046B8  013E               	movlb	62	; () banked
  8940  0046BA  51F0               	movf	240,w,b	;volatile
  8941  0046BC  6E11               	movwf	(??_ADC_ISR+1)& (0+255),c
  8942  0046BE  6A10               	clrf	??_ADC_ISR& (0+255),c
  8943  0046C0  5012               	movf	ADC_ISR@adc_result,w,c
  8944  0046C2  1010               	iorwf	??_ADC_ISR,w,c
  8945  0046C4  6E12               	movwf	ADC_ISR@adc_result,c
  8946  0046C6  5013               	movf	ADC_ISR@adc_result+1,w,c
  8947  0046C8  1011               	iorwf	??_ADC_ISR+1,w,c
  8948  0046CA  6E13               	movwf	ADC_ISR@adc_result+1,c
  8949                           
  8950                           ;main.c: 99:     if(ADPCH == 12)
  8951  0046CC  0E0C               	movlw	12
  8952  0046CE  19F1               	xorwf	241,w,b	;volatile
  8953  0046D0  A4D8               	btfss	status,2,c
  8954  0046D2  D01B               	goto	i2l4841
  8955                           
  8956                           ; BSR set to: 62
  8957                           ;main.c: 100:         ADC_VOLTAGE_RESULT = (float)adc_result;
  8958  0046D4  0060  F048  F002   	movff	ADC_ISR@adc_result,___xxtofl@val
  8959  0046DA  0060  F04C  F003   	movff	ADC_ISR@adc_result+1,___xxtofl@val+1
  8960  0046E0  0E00               	movlw	0
  8961  0046E2  BE03               	btfsc	___xxtofl@val+1,7,c
  8962  0046E4  0EFF               	movlw	-1
  8963  0046E6  6E04               	movwf	___xxtofl@val+2,c
  8964  0046E8  6E05               	movwf	___xxtofl@val+3,c
  8965  0046EA  0E01               	movlw	1
  8966  0046EC  ECA2  F01F         	call	___xxtofl
  8967  0046F0  0060  F008  F0EF   	movff	?___xxtofl,_ADC_VOLTAGE_RESULT
  8968  0046F6  0060  F00C  F0F0   	movff	?___xxtofl+1,_ADC_VOLTAGE_RESULT+1
  8969  0046FC  0060  F010  F0F1   	movff	?___xxtofl+2,_ADC_VOLTAGE_RESULT+2
  8970  004702  0060  F014  F0F2   	movff	?___xxtofl+3,_ADC_VOLTAGE_RESULT+3
  8971  004708  D01E               	goto	i2l4845
  8972  00470A                     i2l4841:
  8973                           
  8974                           ; BSR set to: 62
  8975  00470A  0E0D               	movlw	13
  8976  00470C  19F1               	xorwf	241,w,b	;volatile
  8977  00470E  A4D8               	btfss	status,2,c
  8978  004710  D01A               	goto	i2l4845
  8979                           
  8980                           ; BSR set to: 62
  8981                           ;main.c: 102:         ADC_CURRENT_RESULT = (float)adc_result;
  8982  004712  0060  F048  F002   	movff	ADC_ISR@adc_result,___xxtofl@val
  8983  004718  0060  F04C  F003   	movff	ADC_ISR@adc_result+1,___xxtofl@val+1
  8984  00471E  0E00               	movlw	0
  8985  004720  BE03               	btfsc	___xxtofl@val+1,7,c
  8986  004722  0EFF               	movlw	-1
  8987  004724  6E04               	movwf	___xxtofl@val+2,c
  8988  004726  6E05               	movwf	___xxtofl@val+3,c
  8989  004728  0E01               	movlw	1
  8990  00472A  ECA2  F01F         	call	___xxtofl
  8991  00472E  0060  F008  F0EB   	movff	?___xxtofl,_ADC_CURRENT_RESULT
  8992  004734  0060  F00C  F0EC   	movff	?___xxtofl+1,_ADC_CURRENT_RESULT+1
  8993  00473A  0060  F010  F0ED   	movff	?___xxtofl+2,_ADC_CURRENT_RESULT+2
  8994  004740  0060  F014  F0EE   	movff	?___xxtofl+3,_ADC_CURRENT_RESULT+3
  8995  004746                     i2l4845:
  8996                           
  8997                           ;main.c: 103:     PIR1bits.ADIF = 0;
  8998  004746  0139               	movlb	57	; () banked
  8999  004748  95A1               	bcf	161,2,b	;volatile
  9000                           
  9001                           ; BSR set to: 57
  9002  00474A  0011               	retfie		f
  9003  00474C                     __end_of_ADC_ISR:
  9004                           	opt callstack 0
  9005                           
  9006 ;; *************** function ___xxtofl *****************
  9007 ;; Defined at:
  9008 ;;		line 10 in file "/opt/microchip/xc8/v2.05/pic/sources/c99/common/xxtofl.c"
  9009 ;; Parameters:    Size  Location     Type
  9010 ;;  sign            1    wreg     unsigned char 
  9011 ;;  val             4    1[COMRAM] long 
  9012 ;; Auto vars:     Size  Location     Type
  9013 ;;  sign            1    9[COMRAM] unsigned char 
  9014 ;;  arg             4   11[COMRAM] unsigned long 
  9015 ;;  exp             1   10[COMRAM] unsigned char 
  9016 ;; Return value:  Size  Location     Type
  9017 ;;                  4    1[COMRAM] unsigned char 
  9018 ;; Registers used:
  9019 ;;		wreg, status,2, status,0
  9020 ;; Tracked objects:
  9021 ;;		On entry : 0/0
  9022 ;;		On exit  : 0/0
  9023 ;;		Unchanged: 0/0
  9024 ;; Data sizes:     COMRAM   BANK0   BANK1   BANK2   BANK3   BANK4   BANK5   BANK6   BANK7   BANK8   BANK9  BANK10  BANK1
      +1  BANK12  BANK13  BANK14  BANK15  BANK16  BANK17  BANK18  BANK19  BANK20  BANK21  BANK22  BANK23  BANK24  BANK25  BANK2
      +6  BANK27  BANK28  BANK29  BANK30  BANK31
  9025 ;;      Params:         4       0       0       0       0       0       0       0       0       0       0       0       
      +0       0       0       0       0       0       0       0       0       0       0       0       0       0       0       
      +0       0       0       0       0       0
  9026 ;;      Locals:         6       0       0       0       0       0       0       0       0       0       0       0       
      +0       0       0       0       0       0       0       0       0       0       0       0       0       0       0       
      +0       0       0       0       0       0
  9027 ;;      Temps:          4       0       0       0       0       0       0       0       0       0       0       0       
      +0       0       0       0       0       0       0       0       0       0       0       0       0       0       0       
      +0       0       0       0       0       0
  9028 ;;      Totals:        14       0       0       0       0       0       0       0       0       0       0       0       
      +0       0       0       0       0       0       0       0       0       0       0       0       0       0       0       
      +0       0       0       0       0       0
  9029 ;;Total ram usage:       14 bytes
  9030 ;; Hardware stack levels used:    1
  9031 ;; This function calls:
  9032 ;;		Nothing
  9033 ;; This function is called by:
  9034 ;;		_ADC_ISR
  9035 ;; This function uses a non-reentrant model
  9036 ;;
  9037                           
  9038                           	psect	text44
  9039  003F44                     __ptext44:
  9040                           	opt callstack 0
  9041  003F44                     ___xxtofl:
  9042                           	opt callstack 20
  9043                           
  9044                           ; BSR set to: 57
  9045                           ;incstack = 0
  9046                           ;___xxtofl@sign stored from wreg
  9047  003F44  6E0A               	movwf	___xxtofl@sign,c
  9048  003F46  500A               	movf	___xxtofl@sign,w,c
  9049  003F48  A4D8               	btfss	status,2,c
  9050  003F4A  AE05               	btfss	___xxtofl@val+3,7,c
  9051  003F4C  D022               	goto	i2l1273
  9052  003F4E  0060  F008  F006   	movff	___xxtofl@val,??___xxtofl
  9053  003F54  0060  F00C  F007   	movff	___xxtofl@val+1,??___xxtofl+1
  9054  003F5A  0060  F010  F008   	movff	___xxtofl@val+2,??___xxtofl+2
  9055  003F60  0060  F014  F009   	movff	___xxtofl@val+3,??___xxtofl+3
  9056  003F66  1E06               	comf	??___xxtofl,f,c
  9057  003F68  1E07               	comf	??___xxtofl+1,f,c
  9058  003F6A  1E08               	comf	??___xxtofl+2,f,c
  9059  003F6C  1E09               	comf	??___xxtofl+3,f,c
  9060  003F6E  2A06               	incf	??___xxtofl,f,c
  9061  003F70  0E00               	movlw	0
  9062  003F72  2207               	addwfc	??___xxtofl+1,f,c
  9063  003F74  2208               	addwfc	??___xxtofl+2,f,c
  9064  003F76  2209               	addwfc	??___xxtofl+3,f,c
  9065  003F78  0060  F018  F00C   	movff	??___xxtofl,___xxtofl@arg
  9066  003F7E  0060  F01C  F00D   	movff	??___xxtofl+1,___xxtofl@arg+1
  9067  003F84  0060  F020  F00E   	movff	??___xxtofl+2,___xxtofl@arg+2
  9068  003F8A  0060  F024  F00F   	movff	??___xxtofl+3,___xxtofl@arg+3
  9069  003F90  D00C               	goto	i2l4765
  9070  003F92                     i2l1273:
  9071  003F92  0060  F008  F00C   	movff	___xxtofl@val,___xxtofl@arg
  9072  003F98  0060  F00C  F00D   	movff	___xxtofl@val+1,___xxtofl@arg+1
  9073  003F9E  0060  F010  F00E   	movff	___xxtofl@val+2,___xxtofl@arg+2
  9074  003FA4  0060  F014  F00F   	movff	___xxtofl@val+3,___xxtofl@arg+3
  9075  003FAA                     i2l4765:
  9076  003FAA  5002               	movf	___xxtofl@val,w,c
  9077  003FAC  1003               	iorwf	___xxtofl@val+1,w,c
  9078  003FAE  1004               	iorwf	___xxtofl@val+2,w,c
  9079  003FB0  1005               	iorwf	___xxtofl@val+3,w,c
  9080  003FB2  A4D8               	btfss	status,2,c
  9081  003FB4  D009               	goto	i2l4771
  9082  003FB6  0E00               	movlw	0
  9083  003FB8  6E02               	movwf	?___xxtofl,c
  9084  003FBA  0E00               	movlw	0
  9085  003FBC  6E03               	movwf	?___xxtofl+1,c
  9086  003FBE  0E00               	movlw	0
  9087  003FC0  6E04               	movwf	?___xxtofl+2,c
  9088  003FC2  0E00               	movlw	0
  9089  003FC4  6E05               	movwf	?___xxtofl+3,c
  9090  003FC6  0012               	return	
  9091  003FC8                     i2l4771:
  9092  003FC8  0E96               	movlw	150
  9093  003FCA  6E0B               	movwf	___xxtofl@exp,c
  9094  003FCC  D006               	goto	i2l4775
  9095  003FCE                     i2l4773:
  9096  003FCE  2A0B               	incf	___xxtofl@exp,f,c
  9097  003FD0  90D8               	bcf	status,0,c
  9098  003FD2  320F               	rrcf	___xxtofl@arg+3,f,c
  9099  003FD4  320E               	rrcf	___xxtofl@arg+2,f,c
  9100  003FD6  320D               	rrcf	___xxtofl@arg+1,f,c
  9101  003FD8  320C               	rrcf	___xxtofl@arg,f,c
  9102  003FDA                     i2l4775:
  9103  003FDA  0E00               	movlw	0
  9104  003FDC  140C               	andwf	___xxtofl@arg,w,c
  9105  003FDE  6E06               	movwf	??___xxtofl& (0+255),c
  9106  003FE0  0E00               	movlw	0
  9107  003FE2  140D               	andwf	___xxtofl@arg+1,w,c
  9108  003FE4  6E07               	movwf	(??___xxtofl+1)& (0+255),c
  9109  003FE6  0E00               	movlw	0
  9110  003FE8  140E               	andwf	___xxtofl@arg+2,w,c
  9111  003FEA  6E08               	movwf	(??___xxtofl+2)& (0+255),c
  9112  003FEC  0EFE               	movlw	254
  9113  003FEE  140F               	andwf	___xxtofl@arg+3,w,c
  9114  003FF0  6E09               	movwf	(??___xxtofl+3)& (0+255),c
  9115  003FF2  5006               	movf	??___xxtofl,w,c
  9116  003FF4  1007               	iorwf	??___xxtofl+1,w,c
  9117  003FF6  1008               	iorwf	??___xxtofl+2,w,c
  9118  003FF8  1009               	iorwf	??___xxtofl+3,w,c
  9119  003FFA  B4D8               	btfsc	status,2,c
  9120  003FFC  D00D               	goto	i2l1280
  9121  003FFE  D7E7               	goto	i2l4773
  9122  004000                     i2l4777:
  9123  004000  2A0B               	incf	___xxtofl@exp,f,c
  9124  004002  0E01               	movlw	1
  9125  004004  260C               	addwf	___xxtofl@arg,f,c
  9126  004006  0E00               	movlw	0
  9127  004008  220D               	addwfc	___xxtofl@arg+1,f,c
  9128  00400A  220E               	addwfc	___xxtofl@arg+2,f,c
  9129  00400C  220F               	addwfc	___xxtofl@arg+3,f,c
  9130  00400E  90D8               	bcf	status,0,c
  9131  004010  320F               	rrcf	___xxtofl@arg+3,f,c
  9132  004012  320E               	rrcf	___xxtofl@arg+2,f,c
  9133  004014  320D               	rrcf	___xxtofl@arg+1,f,c
  9134  004016  320C               	rrcf	___xxtofl@arg,f,c
  9135  004018                     i2l1280:
  9136  004018  0E00               	movlw	0
  9137  00401A  140C               	andwf	___xxtofl@arg,w,c
  9138  00401C  6E06               	movwf	??___xxtofl& (0+255),c
  9139  00401E  0E00               	movlw	0
  9140  004020  140D               	andwf	___xxtofl@arg+1,w,c
  9141  004022  6E07               	movwf	(??___xxtofl+1)& (0+255),c
  9142  004024  0E00               	movlw	0
  9143  004026  140E               	andwf	___xxtofl@arg+2,w,c
  9144  004028  6E08               	movwf	(??___xxtofl+2)& (0+255),c
  9145  00402A  0EFF               	movlw	255
  9146  00402C  140F               	andwf	___xxtofl@arg+3,w,c
  9147  00402E  6E09               	movwf	(??___xxtofl+3)& (0+255),c
  9148  004030  5006               	movf	??___xxtofl,w,c
  9149  004032  1007               	iorwf	??___xxtofl+1,w,c
  9150  004034  1008               	iorwf	??___xxtofl+2,w,c
  9151  004036  1009               	iorwf	??___xxtofl+3,w,c
  9152  004038  B4D8               	btfsc	status,2,c
  9153  00403A  D007               	goto	i2l4785
  9154  00403C  D7E1               	goto	i2l4777
  9155  00403E                     i2l4783:
  9156  00403E  060B               	decf	___xxtofl@exp,f,c
  9157  004040  90D8               	bcf	status,0,c
  9158  004042  360C               	rlcf	___xxtofl@arg,f,c
  9159  004044  360D               	rlcf	___xxtofl@arg+1,f,c
  9160  004046  360E               	rlcf	___xxtofl@arg+2,f,c
  9161  004048  360F               	rlcf	___xxtofl@arg+3,f,c
  9162  00404A                     i2l4785:
  9163  00404A  BE0E               	btfsc	___xxtofl@arg+2,7,c
  9164  00404C  D003               	goto	i2u584_40
  9165  00404E  0E02               	movlw	2
  9166  004050  600B               	cpfslt	___xxtofl@exp,c
  9167  004052  D7F5               	goto	i2l4783
  9168  004054                     i2u584_40:
  9169  004054  A00B               	btfss	___xxtofl@exp,0,c
  9170  004056  9E0E               	bcf	___xxtofl@arg+2,7,c
  9171  004058  90D8               	bcf	status,0,c
  9172  00405A  320B               	rrcf	___xxtofl@exp,f,c
  9173  00405C  0060  F02C  F006   	movff	___xxtofl@exp,??___xxtofl
  9174  004062  6A07               	clrf	(??___xxtofl+1)& (0+255),c
  9175  004064  6A08               	clrf	(??___xxtofl+2)& (0+255),c
  9176  004066  6A09               	clrf	(??___xxtofl+3)& (0+255),c
  9177  004068  0060  F018  F009   	movff	??___xxtofl,??___xxtofl+3
  9178  00406E  6A08               	clrf	??___xxtofl+2,c
  9179  004070  6A07               	clrf	??___xxtofl+1,c
  9180  004072  6A06               	clrf	??___xxtofl,c
  9181  004074  5006               	movf	??___xxtofl,w,c
  9182  004076  120C               	iorwf	___xxtofl@arg,f,c
  9183  004078  5007               	movf	??___xxtofl+1,w,c
  9184  00407A  120D               	iorwf	___xxtofl@arg+1,f,c
  9185  00407C  5008               	movf	??___xxtofl+2,w,c
  9186  00407E  120E               	iorwf	___xxtofl@arg+2,f,c
  9187  004080  5009               	movf	??___xxtofl+3,w,c
  9188  004082  120F               	iorwf	___xxtofl@arg+3,f,c
  9189  004084  500A               	movf	___xxtofl@sign,w,c
  9190  004086  A4D8               	btfss	status,2,c
  9191  004088  AE05               	btfss	___xxtofl@val+3,7,c
  9192  00408A  D001               	goto	i2l4801
  9193  00408C  8E0F               	bsf	___xxtofl@arg+3,7,c
  9194  00408E                     i2l4801:
  9195  00408E  0060  F030  F002   	movff	___xxtofl@arg,?___xxtofl
  9196  004094  0060  F034  F003   	movff	___xxtofl@arg+1,?___xxtofl+1
  9197  00409A  0060  F038  F004   	movff	___xxtofl@arg+2,?___xxtofl+2
  9198  0040A0  0060  F03C  F005   	movff	___xxtofl@arg+3,?___xxtofl+3
  9199  0040A6  0012               	return		;funcret
  9200  0040A8                     __end_of___xxtofl:
  9201                           	opt callstack 0
  9202                           
  9203 ;; *************** function _I2C_TX_ISR *****************
  9204 ;; Defined at:
  9205 ;;		line 106 in file "main.c"
  9206 ;; Parameters:    Size  Location     Type
  9207 ;;		None
  9208 ;; Auto vars:     Size  Location     Type
  9209 ;;		None
  9210 ;; Return value:  Size  Location     Type
  9211 ;;                  1    wreg      void 
  9212 ;; Registers used:
  9213 ;;		wreg, fsr2l, fsr2h, status,2, status,0
  9214 ;; Tracked objects:
  9215 ;;		On entry : 0/0
  9216 ;;		On exit  : 0/0
  9217 ;;		Unchanged: 0/0
  9218 ;; Data sizes:     COMRAM   BANK0   BANK1   BANK2   BANK3   BANK4   BANK5   BANK6   BANK7   BANK8   BANK9  BANK10  BANK1
      +1  BANK12  BANK13  BANK14  BANK15  BANK16  BANK17  BANK18  BANK19  BANK20  BANK21  BANK22  BANK23  BANK24  BANK25  BANK2
      +6  BANK27  BANK28  BANK29  BANK30  BANK31
  9219 ;;      Params:         0       0       0       0       0       0       0       0       0       0       0       0       
      +0       0       0       0       0       0       0       0       0       0       0       0       0       0       0       
      +0       0       0       0       0       0
  9220 ;;      Locals:         0       0       0       0       0       0       0       0       0       0       0       0       
      +0       0       0       0       0       0       0       0       0       0       0       0       0       0       0       
      +0       0       0       0       0       0
  9221 ;;      Temps:          0       0       0       0       0       0       0       0       0       0       0       0       
      +0       0       0       0       0       0       0       0       0       0       0       0       0       0       0       
      +0       0       0       0       0       0
  9222 ;;      Totals:         0       0       0       0       0       0       0       0       0       0       0       0       
      +0       0       0       0       0       0       0       0       0       0       0       0       0       0       0       
      +0       0       0       0       0       0
  9223 ;;Total ram usage:        0 bytes
  9224 ;; Hardware stack levels used:    1
  9225 ;; This function calls:
  9226 ;;		Nothing
  9227 ;; This function is called by:
  9228 ;;		Interrupt level 2
  9229 ;; This function uses a non-reentrant model
  9230 ;;
  9231                           
  9232                           	psect	text45
  9233  004F10                     __ptext45:
  9234                           	opt callstack 0
  9235  004F10                     _I2C_TX_ISR:
  9236                           	opt callstack 21
  9237                           
  9238                           ;main.c: 107:     I2C1TXB = I2C_TX_BUFFER[I2C_TX_COUNTER];
  9239                           
  9240                           ;incstack = 0
  9241  004F10  0EDD               	movlw	low _I2C_TX_BUFFER
  9242  004F12  2449               	addwf	_I2C_TX_COUNTER,w,c
  9243  004F14  6ED9               	movwf	fsr2l,c
  9244  004F16  6ADA               	clrf	fsr2h,c
  9245  004F18  0E00               	movlw	high _I2C_TX_BUFFER
  9246  004F1A  22DA               	addwfc	fsr2h,f,c
  9247  004F1C  50DF               	movf	indf2,w,c
  9248  004F1E  013D               	movlb	61	; () banked
  9249  004F20  6F6B               	movwf	107,b	;volatile
  9250                           
  9251                           ; BSR set to: 61
  9252                           ;main.c: 108:     I2C_TX_COUNTER ++;
  9253  004F22  2A49               	incf	_I2C_TX_COUNTER,f,c
  9254                           
  9255                           ; BSR set to: 61
  9256  004F24  0011               	retfie		f
  9257  004F26                     __end_of_I2C_TX_ISR:
  9258                           	opt callstack 0
  9259                           
  9260 ;; *************** function _I2C_RX_ISR *****************
  9261 ;; Defined at:
  9262 ;;		line 110 in file "main.c"
  9263 ;; Parameters:    Size  Location     Type
  9264 ;;		None
  9265 ;; Auto vars:     Size  Location     Type
  9266 ;;		None
  9267 ;; Return value:  Size  Location     Type
  9268 ;;                  1    wreg      void 
  9269 ;; Registers used:
  9270 ;;		wreg, fsr2l, fsr2h, status,2, status,0
  9271 ;; Tracked objects:
  9272 ;;		On entry : 0/0
  9273 ;;		On exit  : 0/0
  9274 ;;		Unchanged: 0/0
  9275 ;; Data sizes:     COMRAM   BANK0   BANK1   BANK2   BANK3   BANK4   BANK5   BANK6   BANK7   BANK8   BANK9  BANK10  BANK1
      +1  BANK12  BANK13  BANK14  BANK15  BANK16  BANK17  BANK18  BANK19  BANK20  BANK21  BANK22  BANK23  BANK24  BANK25  BANK2
      +6  BANK27  BANK28  BANK29  BANK30  BANK31
  9276 ;;      Params:         0       0       0       0       0       0       0       0       0       0       0       0       
      +0       0       0       0       0       0       0       0       0       0       0       0       0       0       0       
      +0       0       0       0       0       0
  9277 ;;      Locals:         0       0       0       0       0       0       0       0       0       0       0       0       
      +0       0       0       0       0       0       0       0       0       0       0       0       0       0       0       
      +0       0       0       0       0       0
  9278 ;;      Temps:          0       0       0       0       0       0       0       0       0       0       0       0       
      +0       0       0       0       0       0       0       0       0       0       0       0       0       0       0       
      +0       0       0       0       0       0
  9279 ;;      Totals:         0       0       0       0       0       0       0       0       0       0       0       0       
      +0       0       0       0       0       0       0       0       0       0       0       0       0       0       0       
      +0       0       0       0       0       0
  9280 ;;Total ram usage:        0 bytes
  9281 ;; Hardware stack levels used:    1
  9282 ;; This function calls:
  9283 ;;		Nothing
  9284 ;; This function is called by:
  9285 ;;		Interrupt level 2
  9286 ;; This function uses a non-reentrant model
  9287 ;;
  9288                           
  9289                           	psect	text46
  9290  004F28                     __ptext46:
  9291                           	opt callstack 0
  9292  004F28                     _I2C_RX_ISR:
  9293                           	opt callstack 21
  9294                           
  9295                           ;main.c: 111:     I2C_RX_BUFFER[I2C_RX_COUNTER] = I2C1RXB;
  9296                           
  9297                           ; BSR set to: 61
  9298                           ;incstack = 0
  9299  004F28  0ED3               	movlw	low _I2C_RX_BUFFER
  9300  004F2A  2448               	addwf	_I2C_RX_COUNTER,w,c
  9301  004F2C  6ED9               	movwf	fsr2l,c
  9302  004F2E  6ADA               	clrf	fsr2h,c
  9303  004F30  0E00               	movlw	high _I2C_RX_BUFFER
  9304  004F32  22DA               	addwfc	fsr2h,f,c
  9305  004F34  006F F5AB FFDF     	movff	15722,indf2	;volatile
  9306                           
  9307                           ;main.c: 112:     I2C_RX_COUNTER ++;
  9308  004F3A  2A48               	incf	_I2C_RX_COUNTER,f,c
  9309  004F3C  0011               	retfie		f
  9310  004F3E                     __end_of_I2C_RX_ISR:
  9311                           	opt callstack 0
  9312                           
  9313 ;; *************** function _I2C_GENERAL_ISR *****************
  9314 ;; Defined at:
  9315 ;;		line 115 in file "main.c"
  9316 ;; Parameters:    Size  Location     Type
  9317 ;;		None
  9318 ;; Auto vars:     Size  Location     Type
  9319 ;;		None
  9320 ;; Return value:  Size  Location     Type
  9321 ;;                  1    wreg      void 
  9322 ;; Registers used:
  9323 ;;		wreg, status,2
  9324 ;; Tracked objects:
  9325 ;;		On entry : 0/0
  9326 ;;		On exit  : 0/0
  9327 ;;		Unchanged: 0/0
  9328 ;; Data sizes:     COMRAM   BANK0   BANK1   BANK2   BANK3   BANK4   BANK5   BANK6   BANK7   BANK8   BANK9  BANK10  BANK1
      +1  BANK12  BANK13  BANK14  BANK15  BANK16  BANK17  BANK18  BANK19  BANK20  BANK21  BANK22  BANK23  BANK24  BANK25  BANK2
      +6  BANK27  BANK28  BANK29  BANK30  BANK31
  9329 ;;      Params:         0       0       0       0       0       0       0       0       0       0       0       0       
      +0       0       0       0       0       0       0       0       0       0       0       0       0       0       0       
      +0       0       0       0       0       0
  9330 ;;      Locals:         0       0       0       0       0       0       0       0       0       0       0       0       
      +0       0       0       0       0       0       0       0       0       0       0       0       0       0       0       
      +0       0       0       0       0       0
  9331 ;;      Temps:          0       0       0       0       0       0       0       0       0       0       0       0       
      +0       0       0       0       0       0       0       0       0       0       0       0       0       0       0       
      +0       0       0       0       0       0
  9332 ;;      Totals:         0       0       0       0       0       0       0       0       0       0       0       0       
      +0       0       0       0       0       0       0       0       0       0       0       0       0       0       0       
      +0       0       0       0       0       0
  9333 ;;Total ram usage:        0 bytes
  9334 ;; Hardware stack levels used:    1
  9335 ;; This function calls:
  9336 ;;		Nothing
  9337 ;; This function is called by:
  9338 ;;		Interrupt level 2
  9339 ;; This function uses a non-reentrant model
  9340 ;;
  9341                           
  9342                           	psect	text47
  9343  004F40                     __ptext47:
  9344                           	opt callstack 0
  9345  004F40                     _I2C_GENERAL_ISR:
  9346                           	opt callstack 21
  9347                           
  9348                           ;main.c: 116:     if(I2C1PIRbits.PC1IF)
  9349                           
  9350                           ;incstack = 0
  9351  004F40  013D               	movlb	61	; () banked
  9352  004F42  A579               	btfss	121,2,b	;volatile
  9353  004F44  D003               	goto	i2l190
  9354                           
  9355                           ; BSR set to: 61
  9356                           ;main.c: 117:         I2C_STOP_DETECTED = 1;
  9357  004F46  0E01               	movlw	1
  9358  004F48  0100               	movlb	0	; () banked
  9359  004F4A  6FF8               	movwf	_I2C_STOP_DETECTED& (0+255),b
  9360  004F4C                     i2l190:
  9361                           
  9362                           ;main.c: 118:     I2C1PIR = 0x00;
  9363  004F4C  0E00               	movlw	0
  9364  004F4E  013D               	movlb	61	; () banked
  9365  004F50  6F79               	movwf	121,b	;volatile
  9366                           
  9367                           ; BSR set to: 61
  9368  004F52  0011               	retfie		f
  9369  004F54                     __end_of_I2C_GENERAL_ISR:
  9370                           	opt callstack 0
  9371                           
  9372 ;; *************** function _DEFAULT_ISR *****************
  9373 ;; Defined at:
  9374 ;;		line 121 in file "main.c"
  9375 ;; Parameters:    Size  Location     Type
  9376 ;;		None
  9377 ;; Auto vars:     Size  Location     Type
  9378 ;;		None
  9379 ;; Return value:  Size  Location     Type
  9380 ;;                  1    wreg      void 
  9381 ;; Registers used:
  9382 ;;		None
  9383 ;; Tracked objects:
  9384 ;;		On entry : 0/0
  9385 ;;		On exit  : 0/0
  9386 ;;		Unchanged: 0/0
  9387 ;; Data sizes:     COMRAM   BANK0   BANK1   BANK2   BANK3   BANK4   BANK5   BANK6   BANK7   BANK8   BANK9  BANK10  BANK1
      +1  BANK12  BANK13  BANK14  BANK15  BANK16  BANK17  BANK18  BANK19  BANK20  BANK21  BANK22  BANK23  BANK24  BANK25  BANK2
      +6  BANK27  BANK28  BANK29  BANK30  BANK31
  9388 ;;      Params:         0       0       0       0       0       0       0       0       0       0       0       0       
      +0       0       0       0       0       0       0       0       0       0       0       0       0       0       0       
      +0       0       0       0       0       0
  9389 ;;      Locals:         0       0       0       0       0       0       0       0       0       0       0       0       
      +0       0       0       0       0       0       0       0       0       0       0       0       0       0       0       
      +0       0       0       0       0       0
  9390 ;;      Temps:          0       0       0       0       0       0       0       0       0       0       0       0       
      +0       0       0       0       0       0       0       0       0       0       0       0       0       0       0       
      +0       0       0       0       0       0
  9391 ;;      Totals:         0       0       0       0       0       0       0       0       0       0       0       0       
      +0       0       0       0       0       0       0       0       0       0       0       0       0       0       0       
      +0       0       0       0       0       0
  9392 ;;Total ram usage:        0 bytes
  9393 ;; Hardware stack levels used:    1
  9394 ;; This function calls:
  9395 ;;		Nothing
  9396 ;; This function is called by:
  9397 ;;		Interrupt level 2
  9398 ;; This function uses a non-reentrant model
  9399 ;;
  9400                           
  9401                           	psect	text48
  9402  004F78                     __ptext48:
  9403                           	opt callstack 0
  9404  004F78                     _DEFAULT_ISR:
  9405                           	opt callstack 21
  9406                           
  9407                           ; BSR set to: 61
  9408                           ;incstack = 0
  9409  004F78  0011               	retfie		f
  9410  004F7A                     __end_of_DEFAULT_ISR:
  9411                           	opt callstack 0
  9412                           
  9413                           ;
  9414                           ; Interrupt Vector Table @ 0x8
  9415                           ;
  9416                           
  9417                           	psect	ivt0x8
  9418  000008                     __pivt0x8:
  9419                           	opt callstack 0
  9420  000008                     ivt0x8_base:
  9421                           	opt callstack 0
  9422                           
  9423                           ; Vector 0 : SWINT
  9424  000008  13DE               	dw	_DEFAULT_ISR shr (0+2)
  9425                           
  9426                           ; Vector 1 : HLVD
  9427  00000A  13DE               	dw	_DEFAULT_ISR shr (0+2)
  9428                           
  9429                           ; Vector 2 : OSF
  9430  00000C  13DE               	dw	_DEFAULT_ISR shr (0+2)
  9431                           
  9432                           ; Vector 3 : CSW
  9433  00000E  13DE               	dw	_DEFAULT_ISR shr (0+2)
  9434                           
  9435                           ; Vector 4 : NVM
  9436  000010  13DE               	dw	_DEFAULT_ISR shr (0+2)
  9437                           
  9438                           ; Vector 5 : SCAN
  9439  000012  13DE               	dw	_DEFAULT_ISR shr (0+2)
  9440                           
  9441                           ; Vector 6 : CRC
  9442  000014  13DE               	dw	_DEFAULT_ISR shr (0+2)
  9443                           
  9444                           ; Vector 7 : IOC
  9445  000016  13DE               	dw	_DEFAULT_ISR shr (0+2)
  9446                           
  9447                           ; Vector 8 : INT0
  9448  000018  13DE               	dw	_DEFAULT_ISR shr (0+2)
  9449                           
  9450                           ; Vector 9 : ZCD
  9451  00001A  13DE               	dw	_DEFAULT_ISR shr (0+2)
  9452                           
  9453                           ; Vector 10 : AD
  9454  00001C  11AC               	dw	_ADC_ISR shr (0+2)
  9455                           
  9456                           ; Vector 11 : ADT
  9457  00001E  13DE               	dw	_DEFAULT_ISR shr (0+2)
  9458                           
  9459                           ; Vector 12 : CMP1
  9460  000020  13DE               	dw	_DEFAULT_ISR shr (0+2)
  9461                           
  9462                           ; Vector 13 : SMT1
  9463  000022  13DE               	dw	_DEFAULT_ISR shr (0+2)
  9464                           
  9465                           ; Vector 14 : SMT1PRA
  9466  000024  13DE               	dw	_DEFAULT_ISR shr (0+2)
  9467                           
  9468                           ; Vector 15 : SMT1PRW
  9469  000026  13DE               	dw	_DEFAULT_ISR shr (0+2)
  9470                           
  9471                           ; Vector 16 : DMA1SCNT
  9472  000028  13DE               	dw	_DEFAULT_ISR shr (0+2)
  9473                           
  9474                           ; Vector 17 : DMA1DCNT
  9475  00002A  13DE               	dw	_DEFAULT_ISR shr (0+2)
  9476                           
  9477                           ; Vector 18 : DMA1OR
  9478  00002C  13DE               	dw	_DEFAULT_ISR shr (0+2)
  9479                           
  9480                           ; Vector 19 : DMA1A
  9481  00002E  13DE               	dw	_DEFAULT_ISR shr (0+2)
  9482                           
  9483                           ; Vector 20 : SPI1RX
  9484  000030  13DE               	dw	_DEFAULT_ISR shr (0+2)
  9485                           
  9486                           ; Vector 21 : SPI1TX
  9487  000032  13DE               	dw	_DEFAULT_ISR shr (0+2)
  9488                           
  9489                           ; Vector 22 : SPI1
  9490  000034  13DE               	dw	_DEFAULT_ISR shr (0+2)
  9491                           
  9492                           ; Vector 23 : I2C1RX
  9493  000036  13CA               	dw	_I2C_RX_ISR shr (0+2)
  9494                           
  9495                           ; Vector 24 : I2C1TX
  9496  000038  13C4               	dw	_I2C_TX_ISR shr (0+2)
  9497                           
  9498                           ; Vector 25 : I2C1
  9499  00003A  13D0               	dw	_I2C_GENERAL_ISR shr (0+2)
  9500                           
  9501                           ; Vector 26 : I2C1E
  9502  00003C  13DE               	dw	_DEFAULT_ISR shr (0+2)
  9503                           
  9504                           ; Vector 27 : U1RX
  9505  00003E  13BE               	dw	_UART1_RX_ISR shr (0+2)
  9506                           
  9507                           ; Vector 28 : U1TX
  9508  000040  13DA               	dw	_UART1_TX_ISR shr (0+2)
  9509                           
  9510                           ; Vector 29 : U1E
  9511  000042  13DE               	dw	_DEFAULT_ISR shr (0+2)
  9512                           
  9513                           ; Vector 30 : U1
  9514  000044  13DE               	dw	_DEFAULT_ISR shr (0+2)
  9515                           
  9516                           ; Vector 31 : TMR0
  9517  000046  1313               	dw	_TIMER0_ISR shr (0+2)
  9518                           
  9519                           ; Vector 32 : TMR1
  9520  000048  13DE               	dw	_DEFAULT_ISR shr (0+2)
  9521                           
  9522                           ; Vector 33 : TMR1G
  9523  00004A  13DE               	dw	_DEFAULT_ISR shr (0+2)
  9524                           
  9525                           ; Vector 34 : TMR2
  9526  00004C  13DE               	dw	_DEFAULT_ISR shr (0+2)
  9527                           
  9528                           ; Vector 35 : CCP1
  9529  00004E  13DE               	dw	_DEFAULT_ISR shr (0+2)
  9530                           
  9531                           ; Vector 36 : Undefined
  9532  000050  002B               	dw	ivt0x8_undefint shr (0+2)
  9533                           
  9534                           ; Vector 37 : NCO1
  9535  000052  13DE               	dw	_DEFAULT_ISR shr (0+2)
  9536                           
  9537                           ; Vector 38 : CWG1
  9538  000054  13DE               	dw	_DEFAULT_ISR shr (0+2)
  9539                           
  9540                           ; Vector 39 : CLC1
  9541  000056  13DE               	dw	_DEFAULT_ISR shr (0+2)
  9542                           
  9543                           ; Vector 40 : INT1
  9544  000058  13DE               	dw	_DEFAULT_ISR shr (0+2)
  9545                           
  9546                           ; Vector 41 : CMP2
  9547  00005A  13DE               	dw	_DEFAULT_ISR shr (0+2)
  9548                           
  9549                           ; Vector 42 : DMA2SCNT
  9550  00005C  13DE               	dw	_DEFAULT_ISR shr (0+2)
  9551                           
  9552                           ; Vector 43 : DMA2DCNT
  9553  00005E  13DE               	dw	_DEFAULT_ISR shr (0+2)
  9554                           
  9555                           ; Vector 44 : DMA2OR
  9556  000060  13DE               	dw	_DEFAULT_ISR shr (0+2)
  9557                           
  9558                           ; Vector 45 : DMA2A
  9559  000062  13DE               	dw	_DEFAULT_ISR shr (0+2)
  9560                           
  9561                           ; Vector 46 : I2C2RX
  9562  000064  13DE               	dw	_DEFAULT_ISR shr (0+2)
  9563                           
  9564                           ; Vector 47 : I2C2TX
  9565  000066  13DE               	dw	_DEFAULT_ISR shr (0+2)
  9566                           
  9567                           ; Vector 48 : I2C2
  9568  000068  13DE               	dw	_DEFAULT_ISR shr (0+2)
  9569                           
  9570                           ; Vector 49 : I2C2E
  9571  00006A  13DE               	dw	_DEFAULT_ISR shr (0+2)
  9572                           
  9573                           ; Vector 50 : U2RX
  9574  00006C  13DE               	dw	_DEFAULT_ISR shr (0+2)
  9575                           
  9576                           ; Vector 51 : U2TX
  9577  00006E  13DE               	dw	_DEFAULT_ISR shr (0+2)
  9578                           
  9579                           ; Vector 52 : U2E
  9580  000070  13DE               	dw	_DEFAULT_ISR shr (0+2)
  9581                           
  9582                           ; Vector 53 : U2
  9583  000072  13DE               	dw	_DEFAULT_ISR shr (0+2)
  9584                           
  9585                           ; Vector 54 : TMR3
  9586  000074  13DE               	dw	_DEFAULT_ISR shr (0+2)
  9587                           
  9588                           ; Vector 55 : TMR3G
  9589  000076  13DE               	dw	_DEFAULT_ISR shr (0+2)
  9590                           
  9591                           ; Vector 56 : TMR4
  9592  000078  13DE               	dw	_DEFAULT_ISR shr (0+2)
  9593                           
  9594                           ; Vector 57 : CCP2
  9595  00007A  13DE               	dw	_DEFAULT_ISR shr (0+2)
  9596                           
  9597                           ; Vector 58 : Undefined
  9598  00007C  002B               	dw	ivt0x8_undefint shr (0+2)
  9599                           
  9600                           ; Vector 59 : CWG2
  9601  00007E  13DE               	dw	_DEFAULT_ISR shr (0+2)
  9602                           
  9603                           ; Vector 60 : CLC2
  9604  000080  13DE               	dw	_DEFAULT_ISR shr (0+2)
  9605                           
  9606                           ; Vector 61 : INT2
  9607  000082  13DE               	dw	_DEFAULT_ISR shr (0+2)
  9608                           
  9609                           ; Vector 62 : Undefined
  9610  000084  002B               	dw	ivt0x8_undefint shr (0+2)
  9611                           
  9612                           ; Vector 63 : Undefined
  9613  000086  002B               	dw	ivt0x8_undefint shr (0+2)
  9614                           
  9615                           ; Vector 64 : Undefined
  9616  000088  002B               	dw	ivt0x8_undefint shr (0+2)
  9617                           
  9618                           ; Vector 65 : Undefined
  9619  00008A  002B               	dw	ivt0x8_undefint shr (0+2)
  9620                           
  9621                           ; Vector 66 : Undefined
  9622  00008C  002B               	dw	ivt0x8_undefint shr (0+2)
  9623                           
  9624                           ; Vector 67 : Undefined
  9625  00008E  002B               	dw	ivt0x8_undefint shr (0+2)
  9626                           
  9627                           ; Vector 68 : Undefined
  9628  000090  002B               	dw	ivt0x8_undefint shr (0+2)
  9629                           
  9630                           ; Vector 69 : Undefined
  9631  000092  002B               	dw	ivt0x8_undefint shr (0+2)
  9632                           
  9633                           ; Vector 70 : TMR5
  9634  000094  13DE               	dw	_DEFAULT_ISR shr (0+2)
  9635                           
  9636                           ; Vector 71 : TMR5G
  9637  000096  13DE               	dw	_DEFAULT_ISR shr (0+2)
  9638                           
  9639                           ; Vector 72 : TMR6
  9640  000098  13DE               	dw	_DEFAULT_ISR shr (0+2)
  9641                           
  9642                           ; Vector 73 : CCP3
  9643  00009A  13DE               	dw	_DEFAULT_ISR shr (0+2)
  9644                           
  9645                           ; Vector 74 : CWG3
  9646  00009C  13DE               	dw	_DEFAULT_ISR shr (0+2)
  9647                           
  9648                           ; Vector 75 : CLC3
  9649  00009E  13DE               	dw	_DEFAULT_ISR shr (0+2)
  9650                           
  9651                           ; Vector 76 : Undefined
  9652  0000A0  002B               	dw	ivt0x8_undefint shr (0+2)
  9653                           
  9654                           ; Vector 77 : Undefined
  9655  0000A2  002B               	dw	ivt0x8_undefint shr (0+2)
  9656                           
  9657                           ; Vector 78 : Undefined
  9658  0000A4  002B               	dw	ivt0x8_undefint shr (0+2)
  9659                           
  9660                           ; Vector 79 : Undefined
  9661  0000A6  002B               	dw	ivt0x8_undefint shr (0+2)
  9662                           
  9663                           ; Vector 80 : CCP4
  9664  0000A8  13DE               	dw	_DEFAULT_ISR shr (0+2)
  9665                           
  9666                           ; Vector 81 : CLC4
  9667  0000AA  13DE               	dw	_DEFAULT_ISR shr (0+2)
  9668  0000AC                     ivt0x8_undefint:
  9669                           	opt callstack 0
  9670  0000AC  00FF               	reset	
  9671                           
  9672                           	psect	rparam
  9673  0000                     tosu	equ	0x3FFF
  9674                           tosh	equ	0x3FFE
  9675                           tosl	equ	0x3FFD
  9676                           stkptr	equ	0x3FFC
  9677                           pclatu	equ	0x3FFB
  9678                           pclath	equ	0x3FFA
  9679                           pcl	equ	0x3FF9
  9680                           tblptru	equ	0x3FF8
  9681                           tblptrh	equ	0x3FF7
  9682                           tblptrl	equ	0x3FF6
  9683                           tablat	equ	0x3FF5
  9684                           prodh	equ	0x3FF4
  9685                           prodl	equ	0x3FF3
  9686                           indf0	equ	0x3FEF
  9687                           postinc0	equ	0x3FEE
  9688                           postdec0	equ	0x3FED
  9689                           preinc0	equ	0x3FEC
  9690                           plusw0	equ	0x3FEB
  9691                           fsr0h	equ	0x3FEA
  9692                           fsr0l	equ	0x3FE9
  9693                           wreg	equ	0x3FE8
  9694                           indf1	equ	0x3FE7
  9695                           postinc1	equ	0x3FE6
  9696                           postdec1	equ	0x3FE5
  9697                           preinc1	equ	0x3FE4
  9698                           plusw1	equ	0x3FE3
  9699                           fsr1h	equ	0x3FE2
  9700                           fsr1l	equ	0x3FE1
  9701                           bsr	equ	0x3FE0
  9702                           indf2	equ	0x3FDF
  9703                           postinc2	equ	0x3FDE
  9704                           postdec2	equ	0x3FDD
  9705                           preinc2	equ	0x3FDC
  9706                           plusw2	equ	0x3FDB
  9707                           fsr2h	equ	0x3FDA
  9708                           fsr2l	equ	0x3FD9
  9709                           status	equ	0x3FD8


Data Sizes:
    Strings     170
    Constant    0
    Data        2
    BSS         224
    Persistent  0
    Stack       0

Auto Spaces:
    Space          Size  Autos    Used
    COMRAM           95     60      76
    BANK0           160    115     158
    BANK1           256     10     177
    BANK2           256      0       0
    BANK3           256      0       0
    BANK4           256      0       0
    BANK5           256      0       0
    BANK6           256      0       0
    BANK7           256      0       0
    BANK8           256      0       0
    BANK9           256      0       0
    BANK10          256      0       0
    BANK11          256      0       0
    BANK12          256      0       0
    BANK13          256      0       0
    BANK14          256      0       0
    BANK15          256      0       0
    BANK16          256      0       0
    BANK17          256      0       0
    BANK18          256      0       0
    BANK19          256      0       0
    BANK20          256      0       0
    BANK21          256      0       0
    BANK22          256      0       0
    BANK23          256      0       0
    BANK24          256      0       0
    BANK25          256      0       0
    BANK26          256      0       0
    BANK27          256      0       0
    BANK28          256      0       0
    BANK29          256      0       0
    BANK30          256      0       0
    BANK31          256      0       0

Pointer List with Targets:

    strncmp@_r	PTR const unsigned char  size(2) Largest target is 3
		 -> STR_20(CODE[3]), 

    strncmp@r	PTR const unsigned char  size(2) Largest target is 3
		 -> STR_20(CODE[3]), 

    strncmp@_l	PTR const unsigned char  size(2) Largest target is 3
		 -> vfpfcnvrt@ct(BANK0[3]), 

    strncmp@l	PTR const unsigned char  size(2) Largest target is 3
		 -> vfpfcnvrt@ct(BANK0[3]), 

    strlen@s	PTR const unsigned char  size(2) Largest target is 80
		 -> dbuf(BANK1[80]), 

    strlen@a	PTR const unsigned char  size(2) Largest target is 80
		 -> dbuf(BANK1[80]), 

    strcpy@dest	PTR unsigned char  size(2) Largest target is 80
		 -> dbuf(BANK1[80]), 

    strcpy@d	PTR unsigned char  size(2) Largest target is 80
		 -> dbuf(BANK1[80]), 

    strcpy@src	PTR const unsigned char  size(2) Largest target is 80
		 -> STR_15(CODE[4]), STR_14(CODE[4]), STR_11(CODE[4]), STR_10(CODE[4]), 
		 -> dbuf(BANK1[80]), 

    strcpy@s	PTR const unsigned char  size(2) Largest target is 80
		 -> STR_15(CODE[4]), STR_14(CODE[4]), STR_11(CODE[4]), STR_10(CODE[4]), 
		 -> dbuf(BANK1[80]), 

    sprintf@fmt	PTR const unsigned char  size(2) Largest target is 51
		 -> STR_9(CODE[24]), STR_8(CODE[19]), STR_7(CODE[13]), STR_6(CODE[21]), 
		 -> STR_5(CODE[20]), STR_4(CODE[24]), STR_3(CODE[51]), STR_2(CODE[3]), 
		 -> STR_1(CODE[3]), 

    sprintf@s	PTR unsigned char  size(2) Largest target is 55
		 -> tx_buffer(BANK1[55]), 

    sprintf@ap	PTR void [1] size(2) Largest target is 2
		 -> ?_sprintf(BANK0[2]), 

    f.buffer	PTR unsigned char  size(2) Largest target is 55
		 -> tx_buffer(BANK1[55]), 

    fputs@s	PTR const unsigned char  size(2) Largest target is 80
		 -> dbuf(BANK1[80]), 

    fputs@fp	PTR struct _IO_FILE size(2) Largest target is 7
		 -> sprintf@f(BANK1[6]), 

    S2167_IO_FILE$buffer	PTR unsigned char  size(2) Largest target is 55
		 -> tx_buffer(BANK1[55]), 

    fputc@fp.buffer	PTR unsigned char  size(2) Largest target is 55
		 -> tx_buffer(BANK1[55]), 

    fputc@fp	PTR struct _IO_FILE size(2) Largest target is 7
		 -> sprintf@f(BANK1[6]), 

    vfprintf@ap	PTR PTR void  size(2) Largest target is 2
		 -> sprintf@ap(BANK1[2]), 

    vfprintf@fp	PTR struct _IO_FILE size(2) Largest target is 7
		 -> sprintf@f(BANK1[6]), 

    vfprintf@fmt	PTR const unsigned char  size(2) Largest target is 51
		 -> STR_9(CODE[24]), STR_8(CODE[19]), STR_7(CODE[13]), STR_6(CODE[21]), 
		 -> STR_5(CODE[20]), STR_4(CODE[24]), STR_3(CODE[51]), STR_2(CODE[3]), 
		 -> STR_1(CODE[3]), 

    vfprintf@cfmt	PTR unsigned char  size(2) Largest target is 51
		 -> STR_9(CODE[24]), STR_8(CODE[19]), STR_7(CODE[13]), STR_6(CODE[21]), 
		 -> STR_5(CODE[20]), STR_4(CODE[24]), STR_3(CODE[51]), STR_2(CODE[3]), 
		 -> STR_1(CODE[3]), 

    vfpfcnvrt@fp	PTR struct _IO_FILE size(2) Largest target is 7
		 -> sprintf@f(BANK1[6]), 

    vfpfcnvrt@ap	PTR PTR void  size(2) Largest target is 2
		 -> sprintf@ap(BANK1[2]), 

    vfpfcnvrt@fmt	PTR PTR unsigned char  size(2) Largest target is 2
		 -> vfprintf@cfmt(BANK0[2]), 

    efgtoa@fp	PTR struct _IO_FILE size(2) Largest target is 7
		 -> sprintf@f(BANK1[6]), 

    sp__strcpy	PTR unsigned char  size(2) Largest target is 80
		 -> dbuf(BANK1[80]), 

    pad@fp	PTR struct _IO_FILE size(2) Largest target is 7
		 -> sprintf@f(BANK1[6]), 

    pad@buf	PTR unsigned char  size(2) Largest target is 80
		 -> dbuf(BANK1[80]), 

    UART1_SendString@str	PTR unsigned char  size(2) Largest target is 55
		 -> tx_buffer(BANK1[55]), 

    I2C_Transmit@buffer	PTR unsigned char  size(2) Largest target is 2
		 -> AD5272_COMMANDS(BANK0[2]), 

    memset@st	PTR unsigned char  size(2) Largest target is 55
		 -> tx_buffer(BANK1[55]), 


Critical Paths under _main in COMRAM

    _vfprintf->_vfpfcnvrt
    _efgtoa->___flge
    _tolower->_isupper
    _pad->_fputs
    _fputs->_fputc
    _floorf->___fldiv
    ___flsub->___flmul
    ___flge->___flmul
    _UART1_SendString->_GetStringSize
    _I2C_handler->_I2C_Transmit
    _UART1_ReceiveCommand->___wmul

Critical Paths under _TIMER0_ISR in COMRAM

    _TIMER0_ISR->_ADC_Start

Critical Paths under _UART1_TX_ISR in COMRAM

    None.

Critical Paths under _UART1_RX_ISR in COMRAM

    None.

Critical Paths under _ADC_ISR in COMRAM

    _ADC_ISR->___xxtofl

Critical Paths under _I2C_TX_ISR in COMRAM

    None.

Critical Paths under _I2C_RX_ISR in COMRAM

    None.

Critical Paths under _I2C_GENERAL_ISR in COMRAM

    None.

Critical Paths under _DEFAULT_ISR in COMRAM

    None.

Critical Paths under _main in BANK0

    _main->_UART_handler
    _UART_handler->_sprintf
    _sprintf->_vfprintf
    _vfprintf->_vfpfcnvrt
    _vfpfcnvrt->_efgtoa
    _efgtoa->_floorf

Critical Paths under _TIMER0_ISR in BANK0

    None.

Critical Paths under _UART1_TX_ISR in BANK0

    None.

Critical Paths under _UART1_RX_ISR in BANK0

    None.

Critical Paths under _ADC_ISR in BANK0

    None.

Critical Paths under _I2C_TX_ISR in BANK0

    None.

Critical Paths under _I2C_RX_ISR in BANK0

    None.

Critical Paths under _I2C_GENERAL_ISR in BANK0

    None.

Critical Paths under _DEFAULT_ISR in BANK0

    None.

Critical Paths under _main in BANK1

    _UART_handler->_sprintf

Critical Paths under _TIMER0_ISR in BANK1

    None.

Critical Paths under _UART1_TX_ISR in BANK1

    None.

Critical Paths under _UART1_RX_ISR in BANK1

    None.

Critical Paths under _ADC_ISR in BANK1

    None.

Critical Paths under _I2C_TX_ISR in BANK1

    None.

Critical Paths under _I2C_RX_ISR in BANK1

    None.

Critical Paths under _I2C_GENERAL_ISR in BANK1

    None.

Critical Paths under _DEFAULT_ISR in BANK1

    None.

Critical Paths under _main in BANK2

    None.

Critical Paths under _TIMER0_ISR in BANK2

    None.

Critical Paths under _UART1_TX_ISR in BANK2

    None.

Critical Paths under _UART1_RX_ISR in BANK2

    None.

Critical Paths under _ADC_ISR in BANK2

    None.

Critical Paths under _I2C_TX_ISR in BANK2

    None.

Critical Paths under _I2C_RX_ISR in BANK2

    None.

Critical Paths under _I2C_GENERAL_ISR in BANK2

    None.

Critical Paths under _DEFAULT_ISR in BANK2

    None.

Critical Paths under _main in BANK3

    None.

Critical Paths under _TIMER0_ISR in BANK3

    None.

Critical Paths under _UART1_TX_ISR in BANK3

    None.

Critical Paths under _UART1_RX_ISR in BANK3

    None.

Critical Paths under _ADC_ISR in BANK3

    None.

Critical Paths under _I2C_TX_ISR in BANK3

    None.

Critical Paths under _I2C_RX_ISR in BANK3

    None.

Critical Paths under _I2C_GENERAL_ISR in BANK3

    None.

Critical Paths under _DEFAULT_ISR in BANK3

    None.

Critical Paths under _main in BANK4

    None.

Critical Paths under _TIMER0_ISR in BANK4

    None.

Critical Paths under _UART1_TX_ISR in BANK4

    None.

Critical Paths under _UART1_RX_ISR in BANK4

    None.

Critical Paths under _ADC_ISR in BANK4

    None.

Critical Paths under _I2C_TX_ISR in BANK4

    None.

Critical Paths under _I2C_RX_ISR in BANK4

    None.

Critical Paths under _I2C_GENERAL_ISR in BANK4

    None.

Critical Paths under _DEFAULT_ISR in BANK4

    None.

Critical Paths under _main in BANK5

    None.

Critical Paths under _TIMER0_ISR in BANK5

    None.

Critical Paths under _UART1_TX_ISR in BANK5

    None.

Critical Paths under _UART1_RX_ISR in BANK5

    None.

Critical Paths under _ADC_ISR in BANK5

    None.

Critical Paths under _I2C_TX_ISR in BANK5

    None.

Critical Paths under _I2C_RX_ISR in BANK5

    None.

Critical Paths under _I2C_GENERAL_ISR in BANK5

    None.

Critical Paths under _DEFAULT_ISR in BANK5

    None.

Critical Paths under _main in BANK6

    None.

Critical Paths under _TIMER0_ISR in BANK6

    None.

Critical Paths under _UART1_TX_ISR in BANK6

    None.

Critical Paths under _UART1_RX_ISR in BANK6

    None.

Critical Paths under _ADC_ISR in BANK6

    None.

Critical Paths under _I2C_TX_ISR in BANK6

    None.

Critical Paths under _I2C_RX_ISR in BANK6

    None.

Critical Paths under _I2C_GENERAL_ISR in BANK6

    None.

Critical Paths under _DEFAULT_ISR in BANK6

    None.

Critical Paths under _main in BANK7

    None.

Critical Paths under _TIMER0_ISR in BANK7

    None.

Critical Paths under _UART1_TX_ISR in BANK7

    None.

Critical Paths under _UART1_RX_ISR in BANK7

    None.

Critical Paths under _ADC_ISR in BANK7

    None.

Critical Paths under _I2C_TX_ISR in BANK7

    None.

Critical Paths under _I2C_RX_ISR in BANK7

    None.

Critical Paths under _I2C_GENERAL_ISR in BANK7

    None.

Critical Paths under _DEFAULT_ISR in BANK7

    None.

Critical Paths under _main in BANK8

    None.

Critical Paths under _TIMER0_ISR in BANK8

    None.

Critical Paths under _UART1_TX_ISR in BANK8

    None.

Critical Paths under _UART1_RX_ISR in BANK8

    None.

Critical Paths under _ADC_ISR in BANK8

    None.

Critical Paths under _I2C_TX_ISR in BANK8

    None.

Critical Paths under _I2C_RX_ISR in BANK8

    None.

Critical Paths under _I2C_GENERAL_ISR in BANK8

    None.

Critical Paths under _DEFAULT_ISR in BANK8

    None.

Critical Paths under _main in BANK9

    None.

Critical Paths under _TIMER0_ISR in BANK9

    None.

Critical Paths under _UART1_TX_ISR in BANK9

    None.

Critical Paths under _UART1_RX_ISR in BANK9

    None.

Critical Paths under _ADC_ISR in BANK9

    None.

Critical Paths under _I2C_TX_ISR in BANK9

    None.

Critical Paths under _I2C_RX_ISR in BANK9

    None.

Critical Paths under _I2C_GENERAL_ISR in BANK9

    None.

Critical Paths under _DEFAULT_ISR in BANK9

    None.

Critical Paths under _main in BANK10

    None.

Critical Paths under _TIMER0_ISR in BANK10

    None.

Critical Paths under _UART1_TX_ISR in BANK10

    None.

Critical Paths under _UART1_RX_ISR in BANK10

    None.

Critical Paths under _ADC_ISR in BANK10

    None.

Critical Paths under _I2C_TX_ISR in BANK10

    None.

Critical Paths under _I2C_RX_ISR in BANK10

    None.

Critical Paths under _I2C_GENERAL_ISR in BANK10

    None.

Critical Paths under _DEFAULT_ISR in BANK10

    None.

Critical Paths under _main in BANK11

    None.

Critical Paths under _TIMER0_ISR in BANK11

    None.

Critical Paths under _UART1_TX_ISR in BANK11

    None.

Critical Paths under _UART1_RX_ISR in BANK11

    None.

Critical Paths under _ADC_ISR in BANK11

    None.

Critical Paths under _I2C_TX_ISR in BANK11

    None.

Critical Paths under _I2C_RX_ISR in BANK11

    None.

Critical Paths under _I2C_GENERAL_ISR in BANK11

    None.

Critical Paths under _DEFAULT_ISR in BANK11

    None.

Critical Paths under _main in BANK12

    None.

Critical Paths under _TIMER0_ISR in BANK12

    None.

Critical Paths under _UART1_TX_ISR in BANK12

    None.

Critical Paths under _UART1_RX_ISR in BANK12

    None.

Critical Paths under _ADC_ISR in BANK12

    None.

Critical Paths under _I2C_TX_ISR in BANK12

    None.

Critical Paths under _I2C_RX_ISR in BANK12

    None.

Critical Paths under _I2C_GENERAL_ISR in BANK12

    None.

Critical Paths under _DEFAULT_ISR in BANK12

    None.

Critical Paths under _main in BANK13

    None.

Critical Paths under _TIMER0_ISR in BANK13

    None.

Critical Paths under _UART1_TX_ISR in BANK13

    None.

Critical Paths under _UART1_RX_ISR in BANK13

    None.

Critical Paths under _ADC_ISR in BANK13

    None.

Critical Paths under _I2C_TX_ISR in BANK13

    None.

Critical Paths under _I2C_RX_ISR in BANK13

    None.

Critical Paths under _I2C_GENERAL_ISR in BANK13

    None.

Critical Paths under _DEFAULT_ISR in BANK13

    None.

Critical Paths under _main in BANK14

    None.

Critical Paths under _TIMER0_ISR in BANK14

    None.

Critical Paths under _UART1_TX_ISR in BANK14

    None.

Critical Paths under _UART1_RX_ISR in BANK14

    None.

Critical Paths under _ADC_ISR in BANK14

    None.

Critical Paths under _I2C_TX_ISR in BANK14

    None.

Critical Paths under _I2C_RX_ISR in BANK14

    None.

Critical Paths under _I2C_GENERAL_ISR in BANK14

    None.

Critical Paths under _DEFAULT_ISR in BANK14

    None.

Critical Paths under _main in BANK15

    None.

Critical Paths under _TIMER0_ISR in BANK15

    None.

Critical Paths under _UART1_TX_ISR in BANK15

    None.

Critical Paths under _UART1_RX_ISR in BANK15

    None.

Critical Paths under _ADC_ISR in BANK15

    None.

Critical Paths under _I2C_TX_ISR in BANK15

    None.

Critical Paths under _I2C_RX_ISR in BANK15

    None.

Critical Paths under _I2C_GENERAL_ISR in BANK15

    None.

Critical Paths under _DEFAULT_ISR in BANK15

    None.

Critical Paths under _main in BANK16

    None.

Critical Paths under _TIMER0_ISR in BANK16

    None.

Critical Paths under _UART1_TX_ISR in BANK16

    None.

Critical Paths under _UART1_RX_ISR in BANK16

    None.

Critical Paths under _ADC_ISR in BANK16

    None.

Critical Paths under _I2C_TX_ISR in BANK16

    None.

Critical Paths under _I2C_RX_ISR in BANK16

    None.

Critical Paths under _I2C_GENERAL_ISR in BANK16

    None.

Critical Paths under _DEFAULT_ISR in BANK16

    None.

Critical Paths under _main in BANK17

    None.

Critical Paths under _TIMER0_ISR in BANK17

    None.

Critical Paths under _UART1_TX_ISR in BANK17

    None.

Critical Paths under _UART1_RX_ISR in BANK17

    None.

Critical Paths under _ADC_ISR in BANK17

    None.

Critical Paths under _I2C_TX_ISR in BANK17

    None.

Critical Paths under _I2C_RX_ISR in BANK17

    None.

Critical Paths under _I2C_GENERAL_ISR in BANK17

    None.

Critical Paths under _DEFAULT_ISR in BANK17

    None.

Critical Paths under _main in BANK18

    None.

Critical Paths under _TIMER0_ISR in BANK18

    None.

Critical Paths under _UART1_TX_ISR in BANK18

    None.

Critical Paths under _UART1_RX_ISR in BANK18

    None.

Critical Paths under _ADC_ISR in BANK18

    None.

Critical Paths under _I2C_TX_ISR in BANK18

    None.

Critical Paths under _I2C_RX_ISR in BANK18

    None.

Critical Paths under _I2C_GENERAL_ISR in BANK18

    None.

Critical Paths under _DEFAULT_ISR in BANK18

    None.

Critical Paths under _main in BANK19

    None.

Critical Paths under _TIMER0_ISR in BANK19

    None.

Critical Paths under _UART1_TX_ISR in BANK19

    None.

Critical Paths under _UART1_RX_ISR in BANK19

    None.

Critical Paths under _ADC_ISR in BANK19

    None.

Critical Paths under _I2C_TX_ISR in BANK19

    None.

Critical Paths under _I2C_RX_ISR in BANK19

    None.

Critical Paths under _I2C_GENERAL_ISR in BANK19

    None.

Critical Paths under _DEFAULT_ISR in BANK19

    None.

Critical Paths under _main in BANK20

    None.

Critical Paths under _TIMER0_ISR in BANK20

    None.

Critical Paths under _UART1_TX_ISR in BANK20

    None.

Critical Paths under _UART1_RX_ISR in BANK20

    None.

Critical Paths under _ADC_ISR in BANK20

    None.

Critical Paths under _I2C_TX_ISR in BANK20

    None.

Critical Paths under _I2C_RX_ISR in BANK20

    None.

Critical Paths under _I2C_GENERAL_ISR in BANK20

    None.

Critical Paths under _DEFAULT_ISR in BANK20

    None.

Critical Paths under _main in BANK21

    None.

Critical Paths under _TIMER0_ISR in BANK21

    None.

Critical Paths under _UART1_TX_ISR in BANK21

    None.

Critical Paths under _UART1_RX_ISR in BANK21

    None.

Critical Paths under _ADC_ISR in BANK21

    None.

Critical Paths under _I2C_TX_ISR in BANK21

    None.

Critical Paths under _I2C_RX_ISR in BANK21

    None.

Critical Paths under _I2C_GENERAL_ISR in BANK21

    None.

Critical Paths under _DEFAULT_ISR in BANK21

    None.

Critical Paths under _main in BANK22

    None.

Critical Paths under _TIMER0_ISR in BANK22

    None.

Critical Paths under _UART1_TX_ISR in BANK22

    None.

Critical Paths under _UART1_RX_ISR in BANK22

    None.

Critical Paths under _ADC_ISR in BANK22

    None.

Critical Paths under _I2C_TX_ISR in BANK22

    None.

Critical Paths under _I2C_RX_ISR in BANK22

    None.

Critical Paths under _I2C_GENERAL_ISR in BANK22

    None.

Critical Paths under _DEFAULT_ISR in BANK22

    None.

Critical Paths under _main in BANK23

    None.

Critical Paths under _TIMER0_ISR in BANK23

    None.

Critical Paths under _UART1_TX_ISR in BANK23

    None.

Critical Paths under _UART1_RX_ISR in BANK23

    None.

Critical Paths under _ADC_ISR in BANK23

    None.

Critical Paths under _I2C_TX_ISR in BANK23

    None.

Critical Paths under _I2C_RX_ISR in BANK23

    None.

Critical Paths under _I2C_GENERAL_ISR in BANK23

    None.

Critical Paths under _DEFAULT_ISR in BANK23

    None.

Critical Paths under _main in BANK24

    None.

Critical Paths under _TIMER0_ISR in BANK24

    None.

Critical Paths under _UART1_TX_ISR in BANK24

    None.

Critical Paths under _UART1_RX_ISR in BANK24

    None.

Critical Paths under _ADC_ISR in BANK24

    None.

Critical Paths under _I2C_TX_ISR in BANK24

    None.

Critical Paths under _I2C_RX_ISR in BANK24

    None.

Critical Paths under _I2C_GENERAL_ISR in BANK24

    None.

Critical Paths under _DEFAULT_ISR in BANK24

    None.

Critical Paths under _main in BANK25

    None.

Critical Paths under _TIMER0_ISR in BANK25

    None.

Critical Paths under _UART1_TX_ISR in BANK25

    None.

Critical Paths under _UART1_RX_ISR in BANK25

    None.

Critical Paths under _ADC_ISR in BANK25

    None.

Critical Paths under _I2C_TX_ISR in BANK25

    None.

Critical Paths under _I2C_RX_ISR in BANK25

    None.

Critical Paths under _I2C_GENERAL_ISR in BANK25

    None.

Critical Paths under _DEFAULT_ISR in BANK25

    None.

Critical Paths under _main in BANK26

    None.

Critical Paths under _TIMER0_ISR in BANK26

    None.

Critical Paths under _UART1_TX_ISR in BANK26

    None.

Critical Paths under _UART1_RX_ISR in BANK26

    None.

Critical Paths under _ADC_ISR in BANK26

    None.

Critical Paths under _I2C_TX_ISR in BANK26

    None.

Critical Paths under _I2C_RX_ISR in BANK26

    None.

Critical Paths under _I2C_GENERAL_ISR in BANK26

    None.

Critical Paths under _DEFAULT_ISR in BANK26

    None.

Critical Paths under _main in BANK27

    None.

Critical Paths under _TIMER0_ISR in BANK27

    None.

Critical Paths under _UART1_TX_ISR in BANK27

    None.

Critical Paths under _UART1_RX_ISR in BANK27

    None.

Critical Paths under _ADC_ISR in BANK27

    None.

Critical Paths under _I2C_TX_ISR in BANK27

    None.

Critical Paths under _I2C_RX_ISR in BANK27

    None.

Critical Paths under _I2C_GENERAL_ISR in BANK27

    None.

Critical Paths under _DEFAULT_ISR in BANK27

    None.

Critical Paths under _main in BANK28

    None.

Critical Paths under _TIMER0_ISR in BANK28

    None.

Critical Paths under _UART1_TX_ISR in BANK28

    None.

Critical Paths under _UART1_RX_ISR in BANK28

    None.

Critical Paths under _ADC_ISR in BANK28

    None.

Critical Paths under _I2C_TX_ISR in BANK28

    None.

Critical Paths under _I2C_RX_ISR in BANK28

    None.

Critical Paths under _I2C_GENERAL_ISR in BANK28

    None.

Critical Paths under _DEFAULT_ISR in BANK28

    None.

Critical Paths under _main in BANK29

    None.

Critical Paths under _TIMER0_ISR in BANK29

    None.

Critical Paths under _UART1_TX_ISR in BANK29

    None.

Critical Paths under _UART1_RX_ISR in BANK29

    None.

Critical Paths under _ADC_ISR in BANK29

    None.

Critical Paths under _I2C_TX_ISR in BANK29

    None.

Critical Paths under _I2C_RX_ISR in BANK29

    None.

Critical Paths under _I2C_GENERAL_ISR in BANK29

    None.

Critical Paths under _DEFAULT_ISR in BANK29

    None.

Critical Paths under _main in BANK30

    None.

Critical Paths under _TIMER0_ISR in BANK30

    None.

Critical Paths under _UART1_TX_ISR in BANK30

    None.

Critical Paths under _UART1_RX_ISR in BANK30

    None.

Critical Paths under _ADC_ISR in BANK30

    None.

Critical Paths under _I2C_TX_ISR in BANK30

    None.

Critical Paths under _I2C_RX_ISR in BANK30

    None.

Critical Paths under _I2C_GENERAL_ISR in BANK30

    None.

Critical Paths under _DEFAULT_ISR in BANK30

    None.

Critical Paths under _main in BANK31

    None.

Critical Paths under _TIMER0_ISR in BANK31

    None.

Critical Paths under _UART1_TX_ISR in BANK31

    None.

Critical Paths under _UART1_RX_ISR in BANK31

    None.

Critical Paths under _ADC_ISR in BANK31

    None.

Critical Paths under _I2C_TX_ISR in BANK31

    None.

Critical Paths under _I2C_RX_ISR in BANK31

    None.

Critical Paths under _I2C_GENERAL_ISR in BANK31

    None.

Critical Paths under _DEFAULT_ISR in BANK31

    None.

Call Graph Tables:

 ---------------------------------------------------------------------------------
 (Depth) Function   	        Calls       Base Space   Used Autos Params    Refs
 ---------------------------------------------------------------------------------
 (0) _main                                                 3     3      0   42469
                                            112 BANK0      3     3      0
                           _ADC_Init
                           _I2C_Init
                       _I2C_Transmit
                         _UART1_Init
               _UART1_ReceiveCommand
                       _UART_handler
                        _timer0_init
 ---------------------------------------------------------------------------------
 (1) _timer0_init                                          0     0      0       0
 ---------------------------------------------------------------------------------
 (1) _UART_handler                                         2     2      0   41468
                                            110 BANK0      2     2      0
                      _GetStringSize
                        _I2C_handler
                   _UART1_SendString
                            ___flmul
                             _memset
                            _sprintf
 ---------------------------------------------------------------------------------
 (2) _sprintf                                             18    10      8   36356
                                            102 BANK0      8     0      8
                                              0 BANK1     10    10      0
                           _vfprintf
 ---------------------------------------------------------------------------------
 (3) _vfprintf                                             8     2      6   34418
                                             94 BANK0      8     2      6
                          _vfpfcnvrt
 ---------------------------------------------------------------------------------
 (4) _vfpfcnvrt                                           46    40      6   33924
                                             56 COMRAM     4     4      0
                                             78 BANK0     16    10      6
                             _efgtoa
                              _fputc
                            _isupper
                            _strncmp
                            _tolower
 ---------------------------------------------------------------------------------
 (5) _strncmp                                             11     5      6     595
                                             19 COMRAM    11     5      6
 ---------------------------------------------------------------------------------
 (5) _efgtoa                                              68    61      7   29227
                                             10 BANK0     68    61      7
                            ___awdiv
                            ___awmod
                            ___fladd
                            ___fldiv
                             ___fleq
                             ___flge
                            ___flmul
                            ___flneg
                            ___flsub
                            ___fltol
                      ___fpclassifyf
                             _floorf
                            _isupper
                                _pad
                             _strcpy
                            _tolower
 ---------------------------------------------------------------------------------
 (5) _tolower                                              8     6      2    1142
                                             25 COMRAM     8     6      2
                            _isupper
 ---------------------------------------------------------------------------------
 (6) _isupper                                              6     4      2     551
                                             19 COMRAM     6     4      2
 ---------------------------------------------------------------------------------
 (6) _strcpy                                              10     6      4    1037
                                             19 COMRAM    10     6      4
 ---------------------------------------------------------------------------------
 (6) _pad                                                 11     5      6    3957
                                             35 COMRAM    11     5      6
                              _fputc
                              _fputs
                             _strlen
 ---------------------------------------------------------------------------------
 (7) _strlen                                               4     2      2     220
                                             19 COMRAM     4     2      2
 ---------------------------------------------------------------------------------
 (7) _fputs                                                7     3      4    1537
                                             28 COMRAM     7     3      4
                              _fputc
 ---------------------------------------------------------------------------------
 (5) _fputc                                                9     5      4    1037
                                             19 COMRAM     9     5      4
                              _putch
 ---------------------------------------------------------------------------------
 (6) _putch                                                1     1      0       0
 ---------------------------------------------------------------------------------
 (6) _floorf                                              20    16      4     669
                                             44 COMRAM    10     6      4
                                              0 BANK0     10    10      0
                            ___fldiv (ARG)
 ---------------------------------------------------------------------------------
 (6) ___fpclassifyf                                       14    10      4     375
                                             19 COMRAM    14    10      4
 ---------------------------------------------------------------------------------
 (6) ___fltol                                             10     6      4     517
                                             19 COMRAM    10     6      4
 ---------------------------------------------------------------------------------
 (6) ___flsub                                              8     0      8    4007
                                             44 COMRAM     8     0      8
                            ___fladd
                            ___flmul (ARG)
 ---------------------------------------------------------------------------------
 (7) ___fladd                                             16     8      8    3442
                                             19 COMRAM    16     8      8
 ---------------------------------------------------------------------------------
 (6) ___flneg                                              4     0      4     155
                                             19 COMRAM     4     0      4
 ---------------------------------------------------------------------------------
 (6) ___flmul                                             25    17      8    3593
                                             19 COMRAM    25    17      8
 ---------------------------------------------------------------------------------
 (6) ___flge                                              12     4      8     806
                                             44 COMRAM    12     4      8
                            ___flmul (ARG)
 ---------------------------------------------------------------------------------
 (6) ___fleq                                              12     4      8     770
                                             19 COMRAM    12     4      8
 ---------------------------------------------------------------------------------
 (6) ___fldiv                                             25    17      8    2723
                                             19 COMRAM    25    17      8
 ---------------------------------------------------------------------------------
 (6) ___awmod                                              6     2      4     613
                                             19 COMRAM     6     2      4
 ---------------------------------------------------------------------------------
 (6) ___awdiv                                              8     4      4     625
                                             19 COMRAM     8     4      4
 ---------------------------------------------------------------------------------
 (2) _memset                                               8     3      5     340
                                             19 COMRAM     8     3      5
 ---------------------------------------------------------------------------------
 (2) _UART1_SendString                                     8     4      4     335
                                             23 COMRAM     8     4      4
                      _GetStringSize (ARG)
                     _UART1_SendByte
 ---------------------------------------------------------------------------------
 (3) _UART1_SendByte                                       1     1      0      22
                                             19 COMRAM     1     1      0
 ---------------------------------------------------------------------------------
 (2) _I2C_handler                                          2     0      2     754
                                             31 COMRAM     2     0      2
                       _I2C_Transmit
 ---------------------------------------------------------------------------------
 (3) _I2C_Transmit                                        12     8      4     634
                                             19 COMRAM    12     8      4
 ---------------------------------------------------------------------------------
 (2) _GetStringSize                                        4     2      2      90
                                             19 COMRAM     4     2      2
 ---------------------------------------------------------------------------------
 (1) _UART1_ReceiveCommand                                 2     2      0     311
                                             25 COMRAM     2     2      0
                             ___wmul
 ---------------------------------------------------------------------------------
 (2) ___wmul                                               6     2      4     311
                                             19 COMRAM     6     2      4
 ---------------------------------------------------------------------------------
 (1) _UART1_Init                                           3     3      0      22
                                             19 COMRAM     3     3      0
 ---------------------------------------------------------------------------------
 (1) _I2C_Init                                             0     0      0       0
 ---------------------------------------------------------------------------------
 (1) _ADC_Init                                             0     0      0       0
 ---------------------------------------------------------------------------------
 Estimated maximum stack depth 7
 ---------------------------------------------------------------------------------
 (Depth) Function   	        Calls       Base Space   Used Autos Params    Refs
 ---------------------------------------------------------------------------------
 (10) _TIMER0_ISR                                          0     0      0      22
                          _ADC_Start
 ---------------------------------------------------------------------------------
 (11) _ADC_Start                                           1     1      0      22
                                              0 COMRAM     1     1      0
 ---------------------------------------------------------------------------------
 Estimated maximum stack depth 11
 ---------------------------------------------------------------------------------
 (Depth) Function   	        Calls       Base Space   Used Autos Params    Refs
 ---------------------------------------------------------------------------------
 (10) _UART1_TX_ISR                                        0     0      0       0
 ---------------------------------------------------------------------------------
 Estimated maximum stack depth 10
 ---------------------------------------------------------------------------------
 (Depth) Function   	        Calls       Base Space   Used Autos Params    Refs
 ---------------------------------------------------------------------------------
 (10) _UART1_RX_ISR                                        0     0      0       0
 ---------------------------------------------------------------------------------
 Estimated maximum stack depth 10
 ---------------------------------------------------------------------------------
 (Depth) Function   	        Calls       Base Space   Used Autos Params    Refs
 ---------------------------------------------------------------------------------
 (10) _ADC_ISR                                             4     4      0     542
                                             15 COMRAM     4     4      0
                           ___xxtofl
 ---------------------------------------------------------------------------------
 (11) ___xxtofl                                           14    10      4     474
                                              1 COMRAM    14    10      4
 ---------------------------------------------------------------------------------
 Estimated maximum stack depth 11
 ---------------------------------------------------------------------------------
 (Depth) Function   	        Calls       Base Space   Used Autos Params    Refs
 ---------------------------------------------------------------------------------
 (10) _I2C_TX_ISR                                          0     0      0       0
 ---------------------------------------------------------------------------------
 Estimated maximum stack depth 10
 ---------------------------------------------------------------------------------
 (Depth) Function   	        Calls       Base Space   Used Autos Params    Refs
 ---------------------------------------------------------------------------------
 (10) _I2C_RX_ISR                                          0     0      0       0
 ---------------------------------------------------------------------------------
 Estimated maximum stack depth 10
 ---------------------------------------------------------------------------------
 (Depth) Function   	        Calls       Base Space   Used Autos Params    Refs
 ---------------------------------------------------------------------------------
 (10) _I2C_GENERAL_ISR                                     0     0      0       0
 ---------------------------------------------------------------------------------
 Estimated maximum stack depth 10
 ---------------------------------------------------------------------------------
 (Depth) Function   	        Calls       Base Space   Used Autos Params    Refs
 ---------------------------------------------------------------------------------
 (10) _DEFAULT_ISR                                         0     0      0       0
 ---------------------------------------------------------------------------------
 Estimated maximum stack depth 10
 ---------------------------------------------------------------------------------

 Call Graph Graphs:

 _main (ROOT)
   _ADC_Init
   _I2C_Init
   _I2C_Transmit
   _UART1_Init
   _UART1_ReceiveCommand
     ___wmul
   _UART_handler
     _GetStringSize
     _I2C_handler
       _I2C_Transmit
     _UART1_SendString
       _GetStringSize (ARG)
       _UART1_SendByte (ARG)
     ___flmul
     _memset
     _sprintf
       _vfprintf
         _vfpfcnvrt
           _efgtoa
             ___awdiv
             ___awmod
             ___fladd
             ___fldiv
             ___fleq
             ___flge
               ___flmul (ARG)
             ___flmul
             ___flneg
             ___flsub
               ___fladd
               ___flmul (ARG)
             ___fltol
             ___fpclassifyf
             _floorf
               ___fldiv (ARG)
             _isupper
             _pad
               _fputc
                 _putch
               _fputs
                 _fputc
                   _putch
               _strlen
             _strcpy
             _tolower
               _isupper
           _fputc
             _putch
           _isupper
           _strncmp
           _tolower
             _isupper
   _timer0_init

 _TIMER0_ISR (ROOT)
   _ADC_Start

 _UART1_TX_ISR (ROOT)

 _UART1_RX_ISR (ROOT)

 _ADC_ISR (ROOT)
   ___xxtofl

 _I2C_TX_ISR (ROOT)

 _I2C_RX_ISR (ROOT)

 _I2C_GENERAL_ISR (ROOT)

 _DEFAULT_ISR (ROOT)

 Address spaces:
Name               Size   Autos  Total    Cost      Usage
BIGRAM            1FFF      0       0      69        0.0%
EEDATA             400      0       0       0        0.0%
BITBANK31          100      0       0      67        0.0%
BANK31             100      0       0      68        0.0%
BITBANK30          100      0       0      65        0.0%
BANK30             100      0       0      66        0.0%
BITBANK29          100      0       0      63        0.0%
BANK29             100      0       0      64        0.0%
BITBANK28          100      0       0      61        0.0%
BANK28             100      0       0      62        0.0%
BITBANK27          100      0       0      59        0.0%
BANK27             100      0       0      60        0.0%
BITBANK26          100      0       0      56        0.0%
BANK26             100      0       0      57        0.0%
BITBANK25          100      0       0      54        0.0%
BANK25             100      0       0      55        0.0%
BITBANK24          100      0       0      52        0.0%
BANK24             100      0       0      53        0.0%
BITBANK23          100      0       0      50        0.0%
BANK23             100      0       0      51        0.0%
BITBANK22          100      0       0      48        0.0%
BANK22             100      0       0      49        0.0%
BITBANK21          100      0       0      46        0.0%
BANK21             100      0       0      47        0.0%
BITBANK20          100      0       0      44        0.0%
BANK20             100      0       0      45        0.0%
BITBANK19          100      0       0      42        0.0%
BANK19             100      0       0      43        0.0%
BITBANK18          100      0       0      40        0.0%
BANK18             100      0       0      41        0.0%
BITBANK17          100      0       0      38        0.0%
BANK17             100      0       0      39        0.0%
BITBANK16          100      0       0      36        0.0%
BANK16             100      0       0      37        0.0%
BITBANK15          100      0       0      34        0.0%
BANK15             100      0       0      35        0.0%
BITBANK14          100      0       0      32        0.0%
BANK14             100      0       0      33        0.0%
BITBANK13          100      0       0      30        0.0%
BANK13             100      0       0      31        0.0%
BITBANK12          100      0       0      28        0.0%
BANK12             100      0       0      29        0.0%
BITBANK11          100      0       0      26        0.0%
BANK11             100      0       0      27        0.0%
BITBANK10          100      0       0      24        0.0%
BANK10             100      0       0      25        0.0%
BITBANK9           100      0       0      22        0.0%
BANK9              100      0       0      23        0.0%
BITBANK8           100      0       0      20        0.0%
BANK8              100      0       0      21        0.0%
BITBANK7           100      0       0      18        0.0%
BANK7              100      0       0      19        0.0%
BITBANK6           100      0       0      16        0.0%
BANK6              100      0       0      17        0.0%
BITBANK5           100      0       0      14        0.0%
BANK5              100      0       0      15        0.0%
BITBANK4           100      0       0      12        0.0%
BANK4              100      0       0      13        0.0%
BITBANK3           100      0       0      10        0.0%
BANK3              100      0       0      11        0.0%
BITBANK2           100      0       0       8        0.0%
BANK2              100      0       0       9        0.0%
BITBANK1           100      0       0       6        0.0%
BANK1              100      A      B1       7       69.1%
BITBANK0            A0      0       0       4        0.0%
BANK0               A0     73      9E       5       98.8%
BITCOMRAM           5F      0       0       0        0.0%
COMRAM              5F     3C      4C       1       80.0%
BITSFR_8             0      0       0     200        0.0%
SFR_8                0      0       0     200        0.0%
BITSFR_7             0      0       0     200        0.0%
SFR_7                0      0       0     200        0.0%
BITSFR_6             0      0       0     200        0.0%
SFR_6                0      0       0     200        0.0%
BITSFR_5             0      0       0     200        0.0%
SFR_5                0      0       0     200        0.0%
BITSFR_4             0      0       0     200        0.0%
SFR_4                0      0       0     200        0.0%
BITSFR_3             0      0       0     200        0.0%
SFR_3                0      0       0     200        0.0%
BITSFR_2             0      0       0     200        0.0%
SFR_2                0      0       0     200        0.0%
BITSFR_1             0      0       0     200        0.0%
SFR_1                0      0       0     200        0.0%
BITSFR               0      0       0     200        0.0%
SFR                  0      0       0     200        0.0%
STACK                0      0       0       2        0.0%
NULL                 0      0       0       0        0.0%
ABS                  0      0     19B      58        0.0%
DATA                 0      0     19B       3        0.0%
CODE                 0      0       0       0        0.0%


Microchip Technology PIC18 Macro Assembler V2.05 build -831301201 
Symbol Table                                                                                   Fri May 17 09:32:49 2019

                 ___fldiv@aexp 002C                   ___fldiv@bexp 002B            __size_of_I2C_RX_ISR 0016  
                 ___fldiv@sign 0024            __size_of_I2C_TX_ISR 0016         ??_UART1_ReceiveCommand 001A  
                  __CFG_CP$OFF 000000                   ___awdiv@sign 0019             __size_of_ADC_Start 0012  
          ___wmul@multiplicand 0016                            l201 440A                            l539 2476  
                          l565 282C                            l498 44E8                            l883 4228  
                          _pad 44AE                __end_of_ADC_ISR 474C                   ___awmod@sign 0019  
                          wreg 003FE8                   ___flmul@aexp 0021                   ___flmul@bexp 0026  
                 ___flmul@sign 0020                   ___flmul@temp 002B                   ___flmul@prod 0027  
                __CFG_BBEN$OFF 000000           __size_of_DEFAULT_ISR 0002                   __CFG_LVP$OFF 000000  
                 __CFG_ZCD$OFF 000000                   ___fltol@exp1 001D                           l1202 3814  
                         l1213 3882                           l1214 387E                           l1232 2C82  
                         l1241 2EE0                           l1242 2EDC                           l1163 357E  
                         l1147 34AC                           l1172 35E6                           l1148 348A  
                         l1173 35E2                           l1309 3CB4                           l1249 2F76  
                         l1375 4CE8                           l5003 4E1E                           l5005 4E22  
                         l5031 3378                           l5201 3662                           l5121 34D0  
                         l5105 3498                           l5131 34F6                           l5107 349C  
                         l5051 33BC                           l5027 3374                           l5205 366A  
                         l5221 44CE                           l4415 4D3C                           l4351 465A  
                         l4407 4E92                           l5207 366C                           l5063 33E0  
                         l5055 33C0                           l5231 450E                           l6007 2B34  
                         l6111 3286                           l4601 3DF8                           l4441 47AA  
                         l4425 475E                           l5129 34F2                           l5225 44E0  
                         l6033 2BC2                           l6017 2B60                           l6121 32E2  
                         l4347 462E                           l5315 36BC                           l5139 3508  
                         l5251 4142                           l5235 4542                           l5227 44F2  
                         l6051 4296                           l4445 47C6                           l4429 4782  
                         l4437 4796                           l5421 38FA                           l5157 35A2  
                         l5173 35C2                           l5149 356E                           l5093 343A  
                         l6053 42A4                           l6117 32D6                           l6141 4A32  
                         ?_pad 0024                           l4607 3E00                           l4551 3D6E  
                         l4383 4DB0                           l5431 3932                           l5335 36FC  
                         l5319 36C0                           l5167 35B8                           l5247 4138  
                         l5263 4ADE                           l6127 3300                           l4641 3E60  
                         l4633 3E4A                           l4625 3E34                           l4617 3E1E  
                         l4369 4EF2                           l5433 3934                           l5425 3924  
                         l5417 38D6                           l5361 376A                           l5353 3752  
                         l5193 363C                           l5257 418A                           l5281 3C02  
                         l6161 395E                           l4475 490C                           l4563 3D8C  
                         l4387 4DC6                           l5371 37C4                           l5347 3734  
                         l5339 3700                           l5523 2E88                           l5291 3CD6  
                         l6091 3144                           l6083 30C2                           l6139 4A04  
                         l6171 3A5C                           l4477 4916                           l4485 492C  
                         l4573 3DAC                           l5613 48DA                           l5453 2C2E  
                         l6165 39D2                           l4479 4920                           l4487 494C  
                         l4655 3E86                           l5391 382A                           l5471 2C6E  
                         l5455 2C32                           l5295 3D1C                           l6095 3180  
                         l6191 3AFA                           l6183 3AB8                           l6175 3A72  
                         l6263 449A                           l4649 3E76                           l5617 48E8  
                         l5609 48D0                           l5633 4998                           l5385 3812  
                         l5553 2F52                           l5529 2EA6                           l5481 2CA0  
                         l5473 2C72                           l5457 2C42                           l6193 3B10  
                         l6177 3A96                           l6169 3A46                           l4579 3DBC  
                         l5379 37EC                           l5299 3D4A                           l6187 3AD2  
                         l6259 448E                           l5653 49DE                           l5645 49C6  
                         l5637 49A6                           l5629 498C                           l5397 3848  
                         l5661 4818                           l5565 2F96                           l5549 2F34  
                         l5725 43A2                           l5709 4350                           l5805 2294  
                         l5813 22AE                           l6197 3B26                           l5591 4892  
                         l5639 49AE                           l5743 43E2                           l5735 43BA  
                         l5903 275A                           l5823 2344                           l6199 3B4A  
                         l5585 4882                           l5649 49D0                           l5665 484C  
                         l5681 41FC                           l5737 43C6                           l5729 43B2  
                         l5841 245E                           l5825 23AA                           l5691 4260  
                         l5931 28F4                           l5851 248A                           l5819 22FA  
                         l5597 48A8                           l5669 486A                           l5685 4212  
                         l5677 41C8                           l5917 2824                           l5909 27A8  
                         l5861 24DA                           l5845 2484                           l5829 23F6  
                         l5757 210E                           l5599 48B0                           l5943 2924  
                         l5951 2944                           l5919 2846                           l5871 24FC  
                         l5791 21EE                           l4985 4578                           l5881 2530  
                         l5769 2140                           l5777 2158                           l5699 4D8C  
                         l4995 4D00                           l5859 24D6                           l5787 21CC  
                         l5795 2220                           l5877 2520                           l5789 21E4  
                         l4999 4D1C                           l5959 2968                           l5967 2A38  
                         l5887 256A                           l5895 26C4                           l5995 2AC8  
                         l5979 2A7A                           l5997 2AD2                           STR_1 20A8  
                         STR_2 20A8                           STR_3 2001                           STR_4 2034  
                         STR_5 2061                           STR_6 204C                           STR_7 2088  
                         STR_8 2075                           STR_9 2034                           u6020 4570  
                         u5310 3D86                           u5240 47C6                           u6200 3470  
                         u6040 45B8                           u5190 4D62                           u6230 34B4  
                         u6070 4E08                           u5280 3D6A                           u7040 2C8E  
                         u6080 4E0A                           u8000 4302                           u7130 2F42  
                         u7050 2E42                           u7300 4866                           u7140 2F60  
                         u6180 345E                           u6190 346E                           u7055 2E38  
                         u6440 3648                           u6360 35C6                           u6520 40FE  
                         u7250 49B2                           u7090 2ED6                           u6610 4CCE  
                         _PIR3 0039A3                           u6380 35DC                           u7420 43CC  
                         u6620 4CD0                           u7500 21A6                           u8060 3220  
                         u8140 4412                           u6525 40F4                           u7190 48B4  
                         u6710 3CFC                           u8070 3222                           u6640 3BC6  
                         u7370 433E                           u6570 4182                           u6650 3BE8  
                         u7610 246C                           u7530 226C                           u6715 3CF2  
                         u6900 3878                           u7380 4376                           u6580 4184  
                         u7540 226E                           u7460 2130                           u6565 4164  
                         u6645 3BBC                           u6590 4B24                           u7640 24A2  
                         u7385 436C                           u8177 4462                           u6690 3C94  
                         u7490 21A4                           u6675 3C1C                           u6940 38E4  
                         u6676 3C22                           u7580 242E                           u6677 3C30  
                         u6597 4B16                           u6950 3908                           u7910 2B4A  
                         u6695 3C8A                           u7680 24F8                           u7930 2BAC  
                         u7850 2A5C                           u7940 2BAE                 _UART1_SendByte 4EDE  
                         _dbuf 0120           __size_of_I2C_handler 002C                           _main 43FC  
                         _prec 0043               __end_of_I2C_Init 4AC6                           _nout 00F3  
                         pad@i 002B                           pad@p 0028                           fsr1h 003FE2  
                         fsr2h 003FDA                           indf1 003FE7                           indf2 003FDF  
                         fsr1l 003FE1                           pad@w 002D                           fsr2l 003FD9  
             __end_of_ADC_Init 4EBE                  ___fpclassifyf 40A8                           prodh 003FF4  
                         prodl 003FF3                           start 00AE                ___fldiv@new_exp 0025  
                 _tolower$2239 0020                   ___param_bank 000000                    ?_UART1_Init 0001  
                  ?_TIMER0_ISR 0001                          ??_pad 002A          __size_of_I2C_Transmit 00A2  
                ___fltol@sign1 001C                __end_of___fladd 3690                          ?_main 0001  
                        _ADPCH 003EF1                __end_of___fldiv 393C                          _ADREF 003EFD  
              __end_of___awdiv 48F6                __end_of___flneg 4DA6                          STR_10 2095  
                        STR_11 209D                          STR_20 20A5                          STR_14 2099  
                        STR_15 20A1                  __CFG_WDTE$OFF 000000                          STR_18 20A5  
              __end_of___awmod 49EC                __end_of___flmul 2FB4                __end_of___flsub 4C4C  
              __end_of___fltol 43FC                ___awdiv@divisor 0016                 __CFG_DEBUG$OFF 000000  
                        _U1UIR 003DF8                          _U1RXB 003DE8                          _U1TXB 003DEA  
                        i2l152 4C70                          i2l190 4F4C                ___awdiv@counter 0018  
                        _OSCEN 0039DD                   vfpfcnvrt@fmt 00B0                          _TMR0H 003FB7  
                        _TMR0L 003FB6         _AD5272_VOLTAGE_ADDRESS 00FD               I2C_handler@value 0020  
               __CFG_FCMEN$OFF 000000                  __CFG_WRTB$OFF 000000                  __CFG_WRTC$OFF 000000  
                __CFG_WRTD$OFF 000000                          _flags 0045         __end_of_UART1_SendByte 4EF6  
                        _fputc 4560                          _fputs 4CF6             __CFG_MCLRE$EXTMCLR 000000  
                        pad@fp 0024                          _width 0041                          _putch 4F74  
              __end_of_isupper 4E10                          tablat 003FF5              UART1_SendString@i 001C  
            __end_of_ADC_Start 4F66                          status 003FD8                __end_of_sprintf 4B90  
               ?___fpclassifyf 0014                __end_of_tolower 4CF6                __end_of_strncmp 4332  
                 _I2C_Transmit 460E                 __CFG_CSWEN$OFF 000000        I2C_Transmit@buffer_size 0016  
              __initialization 4B90                   __end_of_main 44AE                 __CFG_SAFEN$OFF 000000  
                    ??_ADC_ISR 0010                  _I2C_RX_BUFFER 00D3                         ??_main 00D0  
               __CFG_PR1WAY$ON 000000                  __activetblptr 000003                  _I2C_TX_BUFFER 00DD  
           UART1_SendByte@byte 0014                 __CFG_MVECEN$ON 000000                   ??_I2C_RX_ISR 0014  
                 ??_I2C_TX_ISR 0014                         _ADCON0 003EF8                         _ADCON1 003EF9  
                       _ADCON2 003EFA                         ?_fputc 0014                ?_UART1_SendByte 0001  
                       ?_fputs 001D                         _ADRESH 003EF0                         _ADRESL 003EEF  
             ___awdiv@dividend 0014                         ?_putch 0001                         _T0CON0 003FB8  
                       _T0CON1 003FB9                         _RB1I2C 003A5A                         _U1CON0 003DF2  
                       _U1CON1 003DF3            __size_of_UART1_Init 0082                         _U1BRGH 003DF6  
                       _U1BRGL 003DF5                         _U2CON2 003DDC                         _RB0PPS 003A08  
           __CFG_PWRTS$PWRT_64 000000                         _RB1PPS 003A09                         _RC7PPS 003A17  
                       i2l1280 4018                         i2l1273 3F92                 __CFG_WDTCCS$SC 000000  
                       i2l4801 408E                         i2l4813 4C5C            __size_of_TIMER0_ISR 0056  
                       i2l4823 4C86                         i2l4841 470A                         i2l4825 4C8C  
                       i2l4771 3FC8                         i2l4773 3FCE                         i2l4765 3FAA  
                       i2l4845 4746                         i2l4783 403E                         i2l4775 3FDA  
                       i2l4785 404A                         i2l4777 4000                _I2C_GENERAL_ISR 4F40  
                       _OSCFRQ 0039DF               __end_of___xxtofl 40A8                 __CFG_XINST$OFF 000000  
             _UART1_SendString 474C              _I2C_STOP_DETECTED 00F8                   vfprintf@cfmt 00C4  
                       ___flge 4194                         ___fleq 47E4                      ??___fladd 001C  
                       ___wmul 4E42                      ??___fldiv 001C                      ??___awdiv 0018  
                    ??___flneg 0018                 __CFG_STVREN$ON 000000                      ??___awmod 0018  
                    ??___flmul 001C                      ??___flsub 0035                      ??___fltol 0018  
                 ?_timer0_init 0001                         _efgtoa 20AC             __end_of_I2C_RX_ISR 4F3E  
           __end_of_I2C_TX_ISR 4F26                         _floorf 3B68                         _memset 4DA6  
                       clear_0 4BBE                         clear_1 4BCA                         clear_2 4BD6  
             ___awdiv@quotient 001A                ___awmod@divisor 0016                ___awmod@counter 0018  
                       pad@buf 0026                         _strcpy 4AC6                         _strlen 4E10  
                       fputc@c 0014                         fputs@c 0021                         fputs@i 0022  
                 __pdataCOMRAM 004C                         fputs@s 001D                      ?_I2C_Init 0001  
              ___fpclassifyf@e 001C                      ?_ADC_Init 0001                ___fpclassifyf@u 001E  
              ___fpclassifyf@x 0014                   __mediumconst 0000                         tblptrh 003FF7  
                    ??_isupper 0016                         tblptrl 003FF6                         tblptru 003FF8  
                       putch@c 0001               __end_of_vfprintf 4A5A                      ??_sprintf 003D  
                    ??_tolower 001C          __end_of_GetStringSize 4D70                      ??_strncmp 001A  
                   ___flge@ff1 002D                     ___flge@ff2 0031                ??___fpclassifyf 0018  
                 ___xxtofl@arg 000C                   ___xxtofl@exp 000B                   ___xxtofl@val 0002  
                   ___fleq@ff1 0014                     ___fleq@ff2 0018                     __accesstop 0060  
      __end_of__initialization 4BE8                     ___flneg@f1 0014                  ___rparam_used 000001  
                   ___fltol@f1 0014                 __pcstackCOMRAM 0001                   __pidataBANK0 4F7B  
               ivt0x8_undefint 00AC                  __end_of_fputc 460E                  __end_of_fputs 4D34  
                __end_of_putch 4F76                  ?_UART1_RX_ISR 0001                  ?_UART1_TX_ISR 0001  
                   ??_I2C_Init 0014                     ??_ADC_Init 0014        __end_of_I2C_GENERAL_ISR 4F54  
               _I2C_RX_COUNTER 0048                        ??_fputc 0018                        ??_fputs 0021  
              __CFG_IVT1WAY$ON 000000                        ??_putch 0014                     __pbssBANK0 00D3  
                   __pbssBANK1 0100                 _I2C_TX_COUNTER 0049                        IVTBASEH 003FD6  
                      IVTBASEL 003FD5                        IVTBASEU 003FD7                        ?___flge 002D  
                      ?___fleq 0014                   ??_UART1_Init 0014                        _I2C1CLK 003D7B  
                      _I2C1CNT 003D6C                        _I2C1ERR 003D76                        ?___wmul 0014  
                      _I2C1PIR 003D79                        _I2C1RXB 003D6A                        _I2C1TXB 003D6B  
              __CFG_PPS1WAY$ON 000000                   ??_TIMER0_ISR 0002                        ?_efgtoa 006A  
               _counter_timer0 0047                        ?_floorf 002D                        _ADC_ISR 46B0  
                      ?_memset 0014                 ??_UART1_RX_ISR 0002                 ??_UART1_TX_ISR 0002  
__size_of_UART1_ReceiveCommand 01E0                        _COMMAND 00F9                        ?_strcpy 0014  
                      ?_strlen 0014                        _U1ERRIE 003DFA                  ??_DEFAULT_ISR 0014  
                      _U1RXPPS 003AE5                      ?___xxtofl 0002                        _IVTLOCK 003FD4  
           __size_of_vfpfcnvrt 0394                        _OSCTUNE 0039DE                        _WDTCON0 00395B  
                      _WDTCON1 00395C                     _led_enable 00F7                  ??_I2C_handler 0022  
           _ADC_VOLTAGE_RESULT 00EF             __end_of_UART1_Init 4978             __end_of_TIMER0_ISR 4CA2  
               GetStringSize@i 0016                      _ADC_Start 4F54                        __Hparam 0000  
                      __Lparam 0000     __CFG_RSTOSC$HFINTOSC_64MHZ 000000                __size_of___flge 00D0  
              __size_of___fleq 008A                        ___fladd 3348                        ___fldiv 3690  
                      ___awdiv 486E                        ___flneg 4D70                        ___awmod 4978  
                      ___flmul 2C02                        ___flsub 4BEE                        ___fltol 4332  
              __size_of___wmul 002E                  ?_UART_handler 0001                      ?_vfprintf 00BE  
                 __psmallconst 2000                __size_of_efgtoa 0B56                __size_of_floorf 01FC  
                      __pcinit 4B90                __size_of_memset 0036                        __ramtop 2000  
         __size_of_timer0_init 0020                        __ptext0 43FC                        __ptext1 4EBE  
                      __ptext2 393C                        __ptext3 4B2E                        __ptext4 49EC  
                      __ptext5 2FB4                        __ptext6 4264                        __ptext7 20AC  
                      __ptext8 4CA2                        __ptext9 4DDC                __CFG_WRTAPP$OFF 000000  
              __size_of_strcpy 0068                __size_of_strlen 0032               ??_UART1_SendByte 0014  
                 __size_of_pad 00B2                     ??___xxtofl 0006               ___awmod@dividend 0014  
                  _I2C1PIEbits 003D7A                __CFG_WRTSAF$OFF 000000       __end_of_UART1_SendString 47E4  
                      _isupper 4DDC                        efgtoa@c 0070                        efgtoa@d 008E  
                      efgtoa@e 00A6                        efgtoa@f 006C                        efgtoa@g 00A2  
                      efgtoa@h 0098                        efgtoa@i 00A0               ?_I2C_GENERAL_ISR 0001  
                      efgtoa@l 009C                        efgtoa@m 008A                        efgtoa@n 00A8  
                      efgtoa@p 0092                        efgtoa@t 0086                        efgtoa@u 00AA  
                      efgtoa@w 0095                    _I2C1PIRbits 003D79                        _sprintf 4B2E  
                      _tolower 4CA2                        _tx_byte 004A                        _strncmp 4264  
          __end_of_DEFAULT_ISR 4F7A           end_of_initialization 4BE8                        floorf@e 0064  
                      floorf@m 0060                        floorf@u 0066                        floorf@x 002D  
                      fputc@fp 0016               __CFG_BOREN$NOSLP 000000                        memset@i 001A  
                      memset@x 0016                        fputs@fp 001F                   ADC_Start@pin 0001  
          __end_of_I2C_handler 4E9C            UART1_SendString@str 0018                     ?_ADC_Start 0001  
            __end_of_vfpfcnvrt 3348                     efgtoa@mode 0097                     efgtoa@sign 0090  
                      postdec2 003FDD                        postinc0 003FEE                        postinc1 003FE6  
                      postinc2 003FDE                 ??_UART_handler 00CE             _ADC_CURRENT_RESULT 00EB  
                   ??_vfprintf 003D          __CFG_WDTCPS$WDTCPS_31 000000                        strcpy@d 001C  
                      strlen@a 0016                        strcpy@s 001A                        strlen@s 0014  
                  ___fladd@grs 0023                  ___xxtofl@sign 000A                      _TRISAbits 003FC2  
                    _TRISBbits 003FC3                      _TRISCbits 003FC4              __size_of_I2C_Init 006C  
                  ___fldiv@grs 0027                    ___fldiv@rem 0020                     _rx_counter 004B  
            __size_of_ADC_Init 0022               __CFG_FEXTOSC$OFF 000000                    ___flmul@grs 0022  
         __end_of_UART1_RX_ISR 4F0E           __end_of_UART1_TX_ISR 4F74                 __end_of___flge 4264  
               __end_of___fleq 486E                    vfpfcnvrt@ap 00B2                    vfpfcnvrt@ct 00BA  
                  vfpfcnvrt@fp 00AE                 __end_of___wmul 4E70                  __pidataCOMRAM 4F7A  
               __end_of_efgtoa 2C02                 __end_of_floorf 3D64                     floorf@F524 00E7  
               __end_of_memset 4DDC            UART1_Init@baud_rate 0016                    _DEFAULT_ISR 4F78  
               __end_of_strcpy 4B2E                 __end_of_strlen 4E42            start_initialization 4B90  
            ADC_ISR@adc_result 0012                    __end_of_pad 4560                     ivt0x8_base 0008  
                  _I2C_handler 4E70          __end_of___fpclassifyf 4194                    ??_ADC_Start 0001  
             __CFG_LPBOREN$OFF 000000                    vfprintf@fmt 00C0                       ??___flge 0035  
                     ??___fleq 001C                       ??___wmul 0018                       ??_efgtoa 0071  
                  __pdataBANK0 00FD                       ??_floorf 0031           _COMMAND_WRITE_NUMBER 00F5  
       __size_of_GetStringSize 003C                       ?_ADC_ISR 0001                       ??_memset 0019  
              _AD5272_COMMANDS 00FB                     memset@size 0017                       ??_strcpy 0018  
                     ??_strlen 0016                      ___fladd@a 0018                      ___fladd@b 0014  
                    ___fldiv@a 0018                      ___fldiv@b 0014                      ___flmul@a 0018  
                    ___flmul@b 0014                    __pbssCOMRAM 003D                      ___flsub@a 0031  
                    ___flsub@b 002D                  __pcstackBANK0 0060                  __pcstackBANK1 01A7  
            __size_of___xxtofl 0164           __end_of_UART_handler 3B68   __end_of_UART1_ReceiveCommand 3F44  
                ?_I2C_Transmit 0014                    _efgtoa$1661 007E                    _efgtoa$1655 007A  
                  _efgtoa$1656 007C                    _efgtoa$1665 0080                    _efgtoa$1666 0082  
                  _efgtoa$1667 0084                       ?___fladd 0014                       ?___fldiv 0014  
                     ?___awdiv 0014                       ?___flneg 0014                       ?___awmod 0014  
                     ?___flmul 0014                       ?___flsub 002D                       ?___fltol 0014  
                     _I2C1ADB1 003D6E                       _I2C1CON0 003D73                       _I2C1CON1 003D74  
                     _I2C1CON2 003D75            main@receive_command 00D2              __size_of_vfprintf 006E  
     UART1_SendString@attempts 001E         __CFG_BBSIZE$BBSIZE_512 000000                    __smallconst 2000  
                     _I2C_Init 4A5A                       _ADC_Init 4E9C                       ?_isupper 0014  
            ?_UART1_SendString 0018          __size_of_UART1_RX_ISR 0016          __size_of_UART1_TX_ISR 000C  
                     ?_sprintf 00C6                       ?_tolower 001A                 __size_of_fputc 00AE  
               __size_of_fputs 003E                       ?_strncmp 0014             ??_UART1_SendString 001C  
               __size_of_putch 0002                  _GetStringSize 4D34                     _I2C1SDAPPS 003AE2  
                   _I2C1SCLPPS 003AE1                 ___wmul@product 0018                       _LATAbits 003FBA  
                     _LATBbits 003FBB                 ??_I2C_Transmit 0018                       _IPR1bits 003981  
                     _IPR2bits 003982                       _IPR3bits 003983                       _PIE1bits 003991  
                     _PIE2bits 003992                       _PIE3bits 003993            __CFG_BORV$VBOR_2P85 000000  
                _I2C1STAT0bits 003D77                       _PIR1bits 0039A1                       _PIR2bits 0039A2  
                     _PIR3bits 0039A3                       i2u584_40 4054                       i2u592_40 4C96  
                     i2u593_40 4C98                  ??_timer0_init 0014                      _vfpfcnvrt 2FB4  
                    _rx_buffer 0100               __size_of_ADC_ISR 009C                     _ADCON0bits 003EF8  
            ___wmul@multiplier 0014                   _UART1_RX_ISR 4EF8                   _UART1_TX_ISR 4F68  
                    _tx_buffer 0170                     _I2C_RX_ISR 4F28                     _I2C_TX_ISR 4F10  
                   vfpfcnvrt@c 00BD                     vfpfcnvrt@f 00B6                    _INTCON0bits 003FD2  
               ?_GetStringSize 0014                  I2C_Transmit@i 001F              _measur_vol_or_cur 004C  
     __size_of_I2C_GENERAL_ISR 0014                       __Hrparam 0000                     vfprintf@ap 00C2  
                     __Lrparam 0000                     vfprintf@fp 00BE               __size_of___fladd 0348  
             __size_of___fldiv 02AC               __size_of___awdiv 0088               __size_of___flneg 0036  
             __size_of___awmod 0074               __size_of___flmul 03B2               __size_of___flsub 005E  
             __size_of___fltol 00CA                     ?_vfpfcnvrt 00AE           _UART1_ReceiveCommand 3D64  
                   _ANSELAbits 003A40                     _ANSELBbits 003A50                     _ANSELCbits 003A60  
           ___fpclassifyf@F463 003D            __end_of_timer0_init 4EDE                   ?_DEFAULT_ISR 0001  
                   sprintf@fmt 00C8                       ___xxtofl 3F44                     _T0CON0bits 003FB8  
        __size_of_UART_handler 022C                     _COMMAND_WR 00FA                   _I2C1CON0bits 003D73  
                     __pivt0x8 0008                       __ptext10 4AC6                       __ptext11 44AE  
                     __ptext20 3348                       __ptext12 4E10                       __ptext21 4D70  
                     __ptext13 4CF6                       __ptext30 4EDE                       __ptext22 2C02  
                     __ptext14 4560                       __ptext31 4E70                       __ptext23 4194  
                     __ptext15 4F74                       __ptext40 4F54                       __ptext32 460E  
                     __ptext24 47E4                       __ptext16 3B68                       __ptext41 4F68  
                     __ptext33 4D34                       __ptext25 3690                       __ptext17 40A8  
                     __ptext42 4EF8                       __ptext34 3D64                       __ptext26 4978  
                     __ptext18 4332                       __ptext43 46B0                       __ptext35 4E42  
                     __ptext27 486E                       __ptext19 4BEE                       __ptext44 3F44  
                     __ptext36 48F6                       __ptext28 4DA6                       __ptext45 4F10  
                     __ptext37 4A5A                       __ptext29 474C                       __ptext46 4F28  
                     __ptext38 4E9C                       __ptext47 4F40                       __ptext39 4C4C  
                     __ptext48 4F78               __size_of_isupper 0034                     _U1CON1bits 003DF3  
                 ?_I2C_handler 0020               __size_of_sprintf 0062               __size_of_tolower 0054  
                   strcpy@dest 0014               __size_of_strncmp 00CE        __size_of_UART1_SendByte 0018  
                __size_of_main 00B2           __CFG_WDTCWS$WDTCWS_7 000000                       efgtoa@fp 006A  
                     efgtoa@ne 008C                       efgtoa@pp 0088                       efgtoa@ou 0076  
          I2C_Transmit@address 0017                     _ODCONBbits 003A52                       _vfprintf 49EC  
                 _UART_handler 393C          ?_UART1_ReceiveCommand 0001                    _OSCSTATbits 0039DC  
         __end_of_I2C_Transmit 46B0                 _vfpfcnvrt$1684 00B4                ??_GetStringSize 0016  
                  ?_I2C_RX_ISR 0001                    ?_I2C_TX_ISR 0001                       memset@st 0014  
                     intlevel2 0000                      sprintf@ap 01A9           UART1_SendString@size 001A  
            __CFG_CLKOUTEN$OFF 000000                    _SLRCONBbits 003A53                      strcpy@src 0016  
                  _PPSLOCKbits 003ABF                       isupper@c 0014                      strncmp@_l 0014  
                    strncmp@_r 0016              ??_I2C_GENERAL_ISR 0014                    efgtoa@nmode 0094  
                   _UART1_Init 48F6             I2C_Transmit@buffer 0014                    _timer0_init 4EBE  
                   _TIMER0_ISR 4C4C                    ??_vfpfcnvrt 0039                       sprintf@f 01AB  
                     tolower@c 001A                       sprintf@s 00C6         __size_of___fpclassifyf 00EC  
                     strncmp@l 001B                       strncmp@n 0018                       strncmp@r 001D  
                ___fladd@signs 0020                   ___fladd@aexp 0021                   ___fladd@bexp 0022  
    __size_of_UART1_SendString 0098  
